 KenshiMP.Core

 Timestamp is 69a6df74 (Tue Mar  3 05:17:40 2026)

 Preferred load address is 0000000180000000

 Start         Length     Name                   Class
 0001:00000000 00000410H .text$di                CODE
 0001:00000410 000b72a0H .text$mn                CODE
 0001:000b76b0 00000040H .text$mn$00             CODE
 0001:000b76f0 000044f0H .text$x                 CODE
 0001:000bbbe0 00000533H .text$yd                CODE
 0002:00000000 00000910H .idata$5                DATA
 0002:00000910 00000038H .00cfg                  DATA
 0002:00000948 00000008H .CRT$XCA                DATA
 0002:00000950 00000008H .CRT$XCL                DATA
 0002:00000958 00000050H .CRT$XCU                DATA
 0002:000009a8 00000008H .CRT$XCZ                DATA
 0002:000009b0 00000008H .CRT$XDA                DATA
 0002:000009b8 00000008H .CRT$XDZ                DATA
 0002:000009c0 00000008H .CRT$XIA                DATA
 0002:000009c8 00000008H .CRT$XIZ                DATA
 0002:000009d0 00000008H .CRT$XLA                DATA
 0002:000009d8 00000008H .CRT$XLC                DATA
 0002:000009e0 00000008H .CRT$XLD                DATA
 0002:000009e8 00000008H .CRT$XLZ                DATA
 0002:000009f0 00000008H .CRT$XPA                DATA
 0002:000009f8 00000008H .CRT$XPZ                DATA
 0002:00000a00 00000008H .CRT$XTA                DATA
 0002:00000a08 00000018H .CRT$XTZ                DATA
 0002:00000a10 00000000H .gehcont$y              DATA
 0002:00000a10 00000000H .gfids$y                DATA
 0002:00000a20 00014ee0H .rdata                  DATA
 0002:00015900 00000000H .rdata$CastGuardVftablesA DATA
 0002:00015900 00000000H .rdata$CastGuardVftablesC DATA
 0002:00015900 00000028H .rdata$T                DATA
 0002:00015928 00004d3cH .rdata$r                DATA
 0002:0001a664 000008b0H .rdata$voltmd           DATA
 0002:0001af14 000003b4H .rdata$zzzdbg           DATA
 0002:0001b2c8 00000008H .rtc$IAA                DATA
 0002:0001b2d0 00000008H .rtc$IZZ                DATA
 0002:0001b2d8 00000008H .rtc$TAA                DATA
 0002:0001b2e0 00000010H .rtc$TZZ                DATA
 0002:0001b2f0 00000010H .tls                    DATA
 0002:0001b300 00000141H .tls$                   DATA
 0002:0001b441 00000007H .tls$ZZZ                DATA
 0002:0001b448 000108f0H .xdata                  DATA
 0002:0002bd38 00000478H .xdata$x                DATA
 0002:0002c1b0 0000006cH .edata                  DATA
 0002:0002c21c 0000017cH .idata$2                DATA
 0002:0002c398 00000018H .idata$3                DATA
 0002:0002c3b0 00000910H .idata$4                DATA
 0002:0002ccc0 000020aeH .idata$6                DATA
 0003:00000000 00000780H .data                   DATA
 0003:00000780 000008a0H .data$r                 DATA
 0003:00001020 00003900H .data$rs                DATA
 0003:00004920 00002b18H .bss                    DATA
 0004:00000000 000070c8H .pdata                  DATA
 0005:00000000 00000060H .rsrc$01                DATA
 0005:00000060 00000180H .rsrc$02                DATA

  Address         Publics by Value              Rva+Base               Lib:Object

 0000:00000000       __AbsoluteZero             0000000000000000     <absolute>
 0000:00000000       ___safe_se_handler_count   0000000000000000     <absolute>
 0000:00000000       ___safe_se_handler_table   0000000000000000     <absolute>
 0000:00000000       __arm64x_extra_rfe_table   0000000000000000     <absolute>
 0000:00000000       __arm64x_extra_rfe_table_size 0000000000000000     <absolute>
 0000:00000000       __arm64x_native_entrypoint 0000000000000000     <absolute>
 0000:00000000       __arm64x_redirection_metadata 0000000000000000     <absolute>
 0000:00000000       __arm64x_redirection_metadata_count 0000000000000000     <absolute>
 0000:00000000       __dynamic_value_reloc_table 0000000000000000     <absolute>
 0000:00000000       __enclave_config           0000000000000000     <absolute>
 0000:00000000       __guard_check_icall_a64n_fptr 0000000000000000     <absolute>
 0000:00000000       __guard_eh_cont_count      0000000000000000     <absolute>
 0000:00000000       __guard_eh_cont_table      0000000000000000     <absolute>
 0000:00000000       __guard_fids_count         0000000000000000     <absolute>
 0000:00000000       __guard_fids_table         0000000000000000     <absolute>
 0000:00000000       __guard_iat_count          0000000000000000     <absolute>
 0000:00000000       __guard_iat_table          0000000000000000     <absolute>
 0000:00000000       __guard_longjmp_count      0000000000000000     <absolute>
 0000:00000000       __guard_longjmp_table      0000000000000000     <absolute>
 0000:00000000       __hybrid_auxiliary_delayload_iat 0000000000000000     <absolute>
 0000:00000000       __hybrid_auxiliary_delayload_iat_copy 0000000000000000     <absolute>
 0000:00000000       __hybrid_auxiliary_iat     0000000000000000     <absolute>
 0000:00000000       __hybrid_auxiliary_iat_copy 0000000000000000     <absolute>
 0000:00000000       __hybrid_code_map          0000000000000000     <absolute>
 0000:00000000       __hybrid_code_map_count    0000000000000000     <absolute>
 0000:00000000       __hybrid_image_info_bitfield 0000000000000000     <absolute>
 0000:00000000       __x64_code_ranges_to_entry_points 0000000000000000     <absolute>
 0000:00000000       __x64_code_ranges_to_entry_points_count 0000000000000000     <absolute>
 0000:00000100       __guard_flags              0000000000000100     <absolute>
 0000:00000000       __ImageBase                0000000180000000     <linker-defined>
 0001:00000410       DllMain                    0000000180001410 f   dllmain.obj
 0001:00000460       dllStartPlugin             0000000180001460 f   dllmain.obj
 0001:00000480       dllStopPlugin              0000000180001480 f   dllmain.obj
 0001:000004b0       ??$?0PEAD$0A@@?$basic_string@DU?$char_traits@D@std@@V?$allocator@D@2@@std@@QEAA@PEAD0AEBV?$allocator@D@1@@Z 00000001800014b0 f i core.obj
 0001:000005a0       ??$?0PEBV?$shared_ptr@Vsink@sinks@spdlog@@@std@@@logger@spdlog@@QEAA@V?$basic_string@DU?$char_traits@D@std@@V?$allocator@D@2@@std@@PEBV?$shared_ptr@Vsink@sinks@spdlog@@@3@1@Z 00000001800015a0 f i core.obj
 0001:000007b0       ??$?HDU?$char_traits@D@std@@V?$allocator@D@1@@std@@YA?AV?$basic_string@DU?$char_traits@D@std@@V?$allocator@D@2@@0@$$QEAV10@0@Z 00000001800017b0 f i core.obj
 0001:000007e0       ??$?HDU?$char_traits@D@std@@V?$allocator@D@1@@std@@YA?AV?$basic_string@DU?$char_traits@D@std@@V?$allocator@D@2@@0@$$QEAV10@QEBD@Z 00000001800017e0 f i core.obj
 0001:00000860       ??$?HDU?$char_traits@D@std@@V?$allocator@D@1@@std@@YA?AV?$basic_string@DU?$char_traits@D@std@@V?$allocator@D@2@@0@QEBD$$QEAV10@@Z 0000000180001860 f i core.obj
 0001:00000990       ??$?HDU?$char_traits@D@std@@V?$allocator@D@1@@std@@YA?AV?$basic_string@DU?$char_traits@D@std@@V?$allocator@D@2@@0@QEBDAEBV10@@Z 0000000180001990 f i core.obj
 0001:00000a90       ??$Read@H@Memory@kmp@@SA_N_KAEAH@Z 0000000180001a90 f i game_character.obj
 0001:00000a90       ??$Read@I@Memory@kmp@@SA_N_KAEAI@Z 0000000180001a90 f i core.obj
 0001:00000a90       ??$Read@M@Memory@kmp@@SA_N_KAEAM@Z 0000000180001a90 f i entity_hooks.obj
 0001:00000aa0       ??$Read@_K@Memory@kmp@@SA_N_KAEA_K@Z 0000000180001aa0 f i core.obj
 0001:00000ab0       ??$Write@UQuat@kmp@@@Memory@kmp@@SA_N_KAEBUQuat@1@@Z 0000000180001ab0 f i core.obj
 0001:00000b40       ??$_Allocate@$0BA@U_Default_allocate_traits@std@@@std@@YAPEAX_K@Z 0000000180001b40 f i core.obj
 0001:00000bb0       ??$_Construct@$00PEBD@?$basic_string@DU?$char_traits@D@std@@V?$allocator@D@2@@std@@AEAAXQEBD_K@Z 0000000180001bb0 f i core.obj
 0001:00000c70       ??$_Destroy_range@V?$allocator@UPatternEntry@kmp@@@std@@@std@@YAXPEAUPatternEntry@kmp@@QEAU12@AEAV?$allocator@UPatternEntry@kmp@@@0@@Z 0000000180001c70 f i core.obj
 0001:00000dc0       ??$_Destroy_range@V?$allocator@V?$shared_ptr@Vsink@sinks@spdlog@@@std@@@std@@@std@@YAXPEAV?$shared_ptr@Vsink@sinks@spdlog@@@0@QEAV10@AEAV?$allocator@V?$shared_ptr@Vsink@sinks@spdlog@@@std@@@0@@Z 0000000180001dc0 f i core.obj
 0001:00000e40       ??$_Emplace_reallocate@AEBUCachedEntityPos@kmp@@@?$vector@UCachedEntityPos@kmp@@V?$allocator@UCachedEntityPos@kmp@@@std@@@std@@AEAAPEAUCachedEntityPos@kmp@@QEAU23@AEBU23@@Z 0000000180001e40 f i core.obj
 0001:00001040       ??$_Emplace_reallocate@AEBUCachedRemoteResult@kmp@@@?$vector@UCachedRemoteResult@kmp@@V?$allocator@UCachedRemoteResult@kmp@@@std@@@std@@AEAAPEAUCachedRemoteResult@kmp@@QEAU23@AEBU23@@Z 0000000180002040 f i core.obj
 0001:00001410       ??$_Emplace_reallocate@UFunctionSignature@kmp@@@?$vector@UFunctionSignature@kmp@@V?$allocator@UFunctionSignature@kmp@@@std@@@std@@AEAAPEAUFunctionSignature@kmp@@QEAU23@$$QEAU23@@Z 0000000180002410 f i core.obj
 0001:00001680       ??$_Find_last@V?$basic_string@DU?$char_traits@D@std@@V?$allocator@D@2@@std@@@?$_Hash@V?$_Umap_traits@V?$basic_string@DU?$char_traits@D@std@@V?$allocator@D@2@@std@@PEAPEAXV?$_Uhash_compare@V?$basic_string@DU?$char_traits@D@std@@V?$allocator@D@2@@std@@U?$hash@V?$basic_string@DU?$char_traits@D@std@@V?$allocator@D@2@@std@@@2@U?$equal_to@V?$basic_string@DU?$char_traits@D@std@@V?$allocator@D@2@@std@@@2@@2@V?$allocator@U?$pair@$$CBV?$basic_string@DU?$char_traits@D@std@@V?$allocator@D@2@@std@@PEAPEAX@std@@@2@$0A@@std@@@std@@IEBA?AU?$_Hash_find_last_result@PEAU?$_List_node@U?$pair@$$CBV?$basic_string@DU?$char_traits@D@std@@V?$allocator@D@2@@std@@PEAPEAX@std@@PEAX@std@@@1@AEBV?$basic_string@DU?$char_traits@D@std@@V?$allocator@D@2@@1@_K@Z 0000000180002680 f i core.obj
 0001:00001680       ??$_Find_last@V?$basic_string@DU?$char_traits@D@std@@V?$allocator@D@2@@std@@@?$_Hash@V?$_Umap_traits@V?$basic_string@DU?$char_traits@D@std@@V?$allocator@D@2@@std@@PEAXV?$_Uhash_compare@V?$basic_string@DU?$char_traits@D@std@@V?$allocator@D@2@@std@@U?$hash@V?$basic_string@DU?$char_traits@D@std@@V?$allocator@D@2@@std@@@2@U?$equal_to@V?$basic_string@DU?$char_traits@D@std@@V?$allocator@D@2@@std@@@2@@2@V?$allocator@U?$pair@$$CBV?$basic_string@DU?$char_traits@D@std@@V?$allocator@D@2@@std@@PEAX@std@@@2@$0A@@std@@@std@@IEBA?AU?$_Hash_find_last_result@PEAU?$_List_node@U?$pair@$$CBV?$basic_string@DU?$char_traits@D@std@@V?$allocator@D@2@@std@@PEAX@std@@PEAX@std@@@1@AEBV?$basic_string@DU?$char_traits@D@std@@V?$allocator@D@2@@1@_K@Z 0000000180002680 f i spawn_manager.obj
 0001:00001680       ??$_Find_last@V?$basic_string@DU?$char_traits@D@std@@V?$allocator@D@2@@std@@@?$_Hash@V?$_Umap_traits@V?$basic_string@DU?$char_traits@D@std@@V?$allocator@D@2@@std@@UCommandDef@kmp@@V?$_Uhash_compare@V?$basic_string@DU?$char_traits@D@std@@V?$allocator@D@2@@std@@U?$hash@V?$basic_string@DU?$char_traits@D@std@@V?$allocator@D@2@@std@@@2@U?$equal_to@V?$basic_string@DU?$char_traits@D@std@@V?$allocator@D@2@@std@@@2@@2@V?$allocator@U?$pair@$$CBV?$basic_string@DU?$char_traits@D@std@@V?$allocator@D@2@@std@@UCommandDef@kmp@@@std@@@2@$0A@@std@@@std@@IEBA?AU?$_Hash_find_last_result@PEAU?$_List_node@U?$pair@$$CBV?$basic_string@DU?$char_traits@D@std@@V?$allocator@D@2@@std@@UCommandDef@kmp@@@std@@PEAX@std@@@1@AEBV?$basic_string@DU?$char_traits@D@std@@V?$allocator@D@2@@1@_K@Z 0000000180002680 f i command_registry.obj
 0001:00001680       ??$_Find_last@V?$basic_string@DU?$char_traits@D@std@@V?$allocator@D@2@@std@@@?$_Hash@V?$_Umap_traits@V?$basic_string@DU?$char_traits@D@std@@V?$allocator@D@2@@std@@UHookEntry@HookManager@kmp@@V?$_Uhash_compare@V?$basic_string@DU?$char_traits@D@std@@V?$allocator@D@2@@std@@U?$hash@V?$basic_string@DU?$char_traits@D@std@@V?$allocator@D@2@@std@@@2@U?$equal_to@V?$basic_string@DU?$char_traits@D@std@@V?$allocator@D@2@@std@@@2@@2@V?$allocator@U?$pair@$$CBV?$basic_string@DU?$char_traits@D@std@@V?$allocator@D@2@@std@@UHookEntry@HookManager@kmp@@@std@@@2@$0A@@std@@@std@@IEBA?AU?$_Hash_find_last_result@PEAU?$_List_node@U?$pair@$$CBV?$basic_string@DU?$char_traits@D@std@@V?$allocator@D@2@@std@@UHookEntry@HookManager@kmp@@@std@@PEAX@std@@@1@AEBV?$basic_string@DU?$char_traits@D@std@@V?$allocator@D@2@@1@_K@Z 0000000180002680 f i KenshiMP.Scanner:hook_manager.obj
 0001:00001680       ??$_Find_last@V?$basic_string@DU?$char_traits@D@std@@V?$allocator@D@2@@std@@@?$_Hash@V?$_Umap_traits@V?$basic_string@DU?$char_traits@D@std@@V?$allocator@D@2@@std@@V?$shared_ptr@Vlogger@spdlog@@@2@V?$_Uhash_compare@V?$basic_string@DU?$char_traits@D@std@@V?$allocator@D@2@@std@@U?$hash@V?$basic_string@DU?$char_traits@D@std@@V?$allocator@D@2@@std@@@2@U?$equal_to@V?$basic_string@DU?$char_traits@D@std@@V?$allocator@D@2@@std@@@2@@2@V?$allocator@U?$pair@$$CBV?$basic_string@DU?$char_traits@D@std@@V?$allocator@D@2@@std@@V?$shared_ptr@Vlogger@spdlog@@@2@@std@@@2@$0A@@std@@@std@@IEBA?AU?$_Hash_find_last_result@PEAU?$_List_node@U?$pair@$$CBV?$basic_string@DU?$char_traits@D@std@@V?$allocator@D@2@@std@@V?$shared_ptr@Vlogger@spdlog@@@2@@std@@PEAX@std@@@1@AEBV?$basic_string@DU?$char_traits@D@std@@V?$allocator@D@2@@1@_K@Z 0000000180002680 f i spdlog:spdlog.obj
 0001:00001680       ??$_Find_last@V?$basic_string@DU?$char_traits@D@std@@V?$allocator@D@2@@std@@@?$_Hash@V?$_Umap_traits@V?$basic_string@DU?$char_traits@D@std@@V?$allocator@D@2@@std@@_KV?$_Uhash_compare@V?$basic_string@DU?$char_traits@D@std@@V?$allocator@D@2@@std@@U?$hash@V?$basic_string@DU?$char_traits@D@std@@V?$allocator@D@2@@std@@@2@U?$equal_to@V?$basic_string@DU?$char_traits@D@std@@V?$allocator@D@2@@std@@@2@@2@V?$allocator@U?$pair@$$CBV?$basic_string@DU?$char_traits@D@std@@V?$allocator@D@2@@std@@_K@std@@@2@$0A@@std@@@std@@IEBA?AU?$_Hash_find_last_result@PEAU?$_List_node@U?$pair@$$CBV?$basic_string@DU?$char_traits@D@std@@V?$allocator@D@2@@std@@_K@std@@PEAX@std@@@1@AEBV?$basic_string@DU?$char_traits@D@std@@V?$allocator@D@2@@1@_K@Z 0000000180002680 f i KenshiMP.Scanner:orchestrator.obj
 0001:00001750       ??$_Insert_range_unchecked@PEBU?$pair@$$CBV?$basic_string@DU?$char_traits@D@std@@V?$allocator@D@2@@std@@PEAPEAX@std@@PEBU12@@?$_Hash@V?$_Umap_traits@V?$basic_string@DU?$char_traits@D@std@@V?$allocator@D@2@@std@@PEAPEAXV?$_Uhash_compare@V?$basic_string@DU?$char_traits@D@std@@V?$allocator@D@2@@std@@U?$hash@V?$basic_string@DU?$char_traits@D@std@@V?$allocator@D@2@@std@@@2@U?$equal_to@V?$basic_string@DU?$char_traits@D@std@@V?$allocator@D@2@@std@@@2@@2@V?$allocator@U?$pair@$$CBV?$basic_string@DU?$char_traits@D@std@@V?$allocator@D@2@@std@@PEAPEAX@std@@@2@$0A@@std@@@std@@IEAAXPEBU?$pair@$$CBV?$basic_string@DU?$char_traits@D@std@@V?$allocator@D@2@@std@@PEAPEAX@1@QEBU21@@Z 0000000180002750 f i core.obj
 0001:00001a70       ??$_Invoke@V?$tuple@P8Core@kmp@@EAAXXZPEAV12@@std@@$0A@$00@thread@std@@CAIPEAX@Z 0000000180002a70 f i core.obj
 0001:00001a70       ??$_Invoke@V?$tuple@P8TaskOrchestrator@kmp@@EAAXXZPEAV12@@std@@$0A@$00@thread@std@@CAIPEAX@Z 0000000180002a70 f i task_orchestrator.obj
 0001:00001aa0       ??$_Reallocate_grow_by@V<lambda_f3a66ab6a0570788f31503db83886f49>@@_KPEBD_K@?$basic_string@DU?$char_traits@D@std@@V?$allocator@D@2@@std@@AEAAAEAV01@_KV<lambda_f3a66ab6a0570788f31503db83886f49>@@_KPEBD2@Z 0000000180002aa0 f i core.obj
 0001:00001c20       ??$_UIntegral_to_buff@DI@std@@YAPEADPEADI@Z 0000000180002c20 f i core.obj
 0001:00001c60       ??$create@V?$basic_file_sink@Vmutex@std@@@sinks@spdlog@@AEBV?$basic_string@DU?$char_traits@D@std@@V?$allocator@D@2@@std@@AEA_NAEBUfile_event_handlers@3@@synchronous_factory@spdlog@@SA?AV?$shared_ptr@Vlogger@spdlog@@@std@@V?$basic_string@DU?$char_traits@D@std@@V?$allocator@D@2@@3@AEBV43@AEA_NAEBUfile_event_handlers@1@@Z 0000000180002c60 f i core.obj
 0001:00001e80       ??$duration_cast@V?$duration@_JU?$ratio@$00$00@std@@@chrono@std@@_JU?$ratio@$00$0DLJKMKAA@@3@$0A@@chrono@std@@YA?AV?$duration@_JU?$ratio@$00$00@std@@@01@AEBV?$duration@_JU?$ratio@$00$0DLJKMKAA@@std@@@01@@Z 0000000180002e80 f i core.obj
 0001:00001eb0       ??$duration_cast@V?$duration@_JU?$ratio@$00$0DOI@@std@@@chrono@std@@_JU?$ratio@$00$0DLJKMKAA@@3@$0A@@chrono@std@@YA?AV?$duration@_JU?$ratio@$00$0DOI@@std@@@01@AEBV?$duration@_JU?$ratio@$00$0DLJKMKAA@@std@@@01@@Z 0000000180002eb0 f i core.obj
 0001:00001ee0       ??$error@$$BY0BL@D@spdlog@@YAXAEAY0BL@$$CBD@Z 0000000180002ee0 f i ai_hooks.obj
 0001:00001ee0       ??$error@$$BY0BN@D@spdlog@@YAXAEAY0BN@$$CBD@Z 0000000180002ee0 f i ai_hooks.obj
 0001:00001ee0       ??$error@$$BY0CI@D@spdlog@@YAXAEAY0CI@$$CBD@Z 0000000180002ee0 f i render_hooks.obj
 0001:00001ee0       ??$error@$$BY0CL@D@spdlog@@YAXAEAY0CL@$$CBD@Z 0000000180002ee0 f i core.obj
 0001:00001ee0       ??$error@$$BY0CM@D@spdlog@@YAXAEAY0CM@$$CBD@Z 0000000180002ee0 f i packet_handler.obj
 0001:00001ee0       ??$error@$$BY0CN@D@spdlog@@YAXAEAY0CN@$$CBD@Z 0000000180002ee0 f i entity_hooks.obj
 0001:00001ee0       ??$error@$$BY0DC@D@spdlog@@YAXAEAY0DC@$$CBD@Z 0000000180002ee0 f i task_orchestrator.obj
 0001:00002020       ??$fill@PEAV?$_List_unchecked_const_iterator@V?$_List_val@U?$_List_simple_types@I@std@@@std@@U_Iterator_base0@2@@std@@V12@@std@@YAXQEAV?$_List_unchecked_const_iterator@V?$_List_val@U?$_List_simple_types@I@std@@@std@@U_Iterator_base0@2@@0@0AEBV10@@Z 0000000180003020 f i packet_handler.obj
 0001:00002020       ??$fill@PEAV?$_List_unchecked_const_iterator@V?$_List_val@U?$_List_simple_types@PEAX@std@@@std@@U_Iterator_base0@2@@std@@V12@@std@@YAXQEAV?$_List_unchecked_const_iterator@V?$_List_val@U?$_List_simple_types@PEAX@std@@@std@@U_Iterator_base0@2@@0@0AEBV10@@Z 0000000180003020 f i ai_hooks.obj
 0001:00002020       ??$fill@PEAV?$_List_unchecked_const_iterator@V?$_List_val@U?$_List_simple_types@_K@std@@@std@@U_Iterator_base0@2@@std@@V12@@std@@YAXQEAV?$_List_unchecked_const_iterator@V?$_List_val@U?$_List_simple_types@_K@std@@@std@@U_Iterator_base0@2@@0@0AEBV10@@Z 0000000180003020 f i KenshiMP.Scanner:string_analyzer.obj
 0001:00002020       ??$fill@PEAV?$_List_unchecked_iterator@V?$_List_val@U?$_List_simple_types@U?$pair@$$CBDV?$unique_ptr@Vcustom_flag_formatter@spdlog@@U?$default_delete@Vcustom_flag_formatter@spdlog@@@std@@@std@@@std@@@std@@@std@@@std@@V12@@std@@YAXQEAV?$_List_unchecked_iterator@V?$_List_val@U?$_List_simple_types@U?$pair@$$CBDV?$unique_ptr@Vcustom_flag_formatter@spdlog@@U?$default_delete@Vcustom_flag_formatter@spdlog@@@std@@@std@@@std@@@std@@@std@@@0@0AEBV10@@Z 0000000180003020 f i spdlog:spdlog.obj
 0001:00002020       ??$fill@PEAV?$_List_unchecked_iterator@V?$_List_val@U?$_List_simple_types@U?$pair@$$CBIH@std@@@std@@@std@@@std@@V12@@std@@YAXQEAV?$_List_unchecked_iterator@V?$_List_val@U?$_List_simple_types@U?$pair@$$CBIH@std@@@std@@@std@@@0@0AEBV10@@Z 0000000180003020 f i entity_hooks.obj
 0001:00002020       ??$fill@PEAV?$_List_unchecked_iterator@V?$_List_val@U?$_List_simple_types@U?$pair@$$CBIUEntityInfo@kmp@@@std@@@std@@@std@@@std@@V12@@std@@YAXQEAV?$_List_unchecked_iterator@V?$_List_val@U?$_List_simple_types@U?$pair@$$CBIUEntityInfo@kmp@@@std@@@std@@@std@@@0@0AEBV10@@Z 0000000180003020 f i core.obj
 0001:00002020       ??$fill@PEAV?$_List_unchecked_iterator@V?$_List_val@U?$_List_simple_types@U?$pair@$$CBIUEntityInterpState@Interpolation@kmp@@@std@@@std@@@std@@@std@@V12@@std@@YAXQEAV?$_List_unchecked_iterator@V?$_List_val@U?$_List_simple_types@U?$pair@$$CBIUEntityInterpState@Interpolation@kmp@@@std@@@std@@@std@@@0@0AEBV10@@Z 0000000180003020 f i core.obj
 0001:00002020       ??$fill@PEAV?$_List_unchecked_iterator@V?$_List_val@U?$_List_simple_types@U?$pair@$$CBIURemotePlayerState@kmp@@@std@@@std@@@std@@@std@@V12@@std@@YAXQEAV?$_List_unchecked_iterator@V?$_List_val@U?$_List_simple_types@U?$pair@$$CBIURemotePlayerState@kmp@@@std@@@std@@@std@@@0@0AEBV10@@Z 0000000180003020 f i core.obj
 0001:00002020       ??$fill@PEAV?$_List_unchecked_iterator@V?$_List_val@U?$_List_simple_types@U?$pair@$$CBV?$basic_string@DU?$char_traits@D@std@@V?$allocator@D@2@@std@@PEAPEAX@std@@@std@@@std@@@std@@V12@@std@@YAXQEAV?$_List_unchecked_iterator@V?$_List_val@U?$_List_simple_types@U?$pair@$$CBV?$basic_string@DU?$char_traits@D@std@@V?$allocator@D@2@@std@@PEAPEAX@std@@@std@@@std@@@0@0AEBV10@@Z 0000000180003020 f i core.obj
 0001:00002020       ??$fill@PEAV?$_List_unchecked_iterator@V?$_List_val@U?$_List_simple_types@U?$pair@$$CBV?$basic_string@DU?$char_traits@D@std@@V?$allocator@D@2@@std@@PEAX@std@@@std@@@std@@@std@@V12@@std@@YAXQEAV?$_List_unchecked_iterator@V?$_List_val@U?$_List_simple_types@U?$pair@$$CBV?$basic_string@DU?$char_traits@D@std@@V?$allocator@D@2@@std@@PEAX@std@@@std@@@std@@@0@0AEBV10@@Z 0000000180003020 f i core.obj
 0001:00002020       ??$fill@PEAV?$_List_unchecked_iterator@V?$_List_val@U?$_List_simple_types@U?$pair@$$CBV?$basic_string@DU?$char_traits@D@std@@V?$allocator@D@2@@std@@UCommandDef@kmp@@@std@@@std@@@std@@@std@@V12@@std@@YAXQEAV?$_List_unchecked_iterator@V?$_List_val@U?$_List_simple_types@U?$pair@$$CBV?$basic_string@DU?$char_traits@D@std@@V?$allocator@D@2@@std@@UCommandDef@kmp@@@std@@@std@@@std@@@0@0AEBV10@@Z 0000000180003020 f i command_registry.obj
 0001:00002020       ??$fill@PEAV?$_List_unchecked_iterator@V?$_List_val@U?$_List_simple_types@U?$pair@$$CBV?$basic_string@DU?$char_traits@D@std@@V?$allocator@D@2@@std@@UHookEntry@HookManager@kmp@@@std@@@std@@@std@@@std@@V12@@std@@YAXQEAV?$_List_unchecked_iterator@V?$_List_val@U?$_List_simple_types@U?$pair@$$CBV?$basic_string@DU?$char_traits@D@std@@V?$allocator@D@2@@std@@UHookEntry@HookManager@kmp@@@std@@@std@@@std@@@0@0AEBV10@@Z 0000000180003020 f i KenshiMP.Scanner:hook_manager.obj
 0001:00002020       ??$fill@PEAV?$_List_unchecked_iterator@V?$_List_val@U?$_List_simple_types@U?$pair@$$CBV?$basic_string@DU?$char_traits@D@std@@V?$allocator@D@2@@std@@V?$shared_ptr@Vlogger@spdlog@@@2@@std@@@std@@@std@@@std@@V12@@std@@YAXQEAV?$_List_unchecked_iterator@V?$_List_val@U?$_List_simple_types@U?$pair@$$CBV?$basic_string@DU?$char_traits@D@std@@V?$allocator@D@2@@std@@V?$shared_ptr@Vlogger@spdlog@@@2@@std@@@std@@@std@@@0@0AEBV10@@Z 0000000180003020 f i spdlog:spdlog.obj
 0001:00002020       ??$fill@PEAV?$_List_unchecked_iterator@V?$_List_val@U?$_List_simple_types@U?$pair@$$CBV?$basic_string@DU?$char_traits@D@std@@V?$allocator@D@2@@std@@_K@std@@@std@@@std@@@std@@V12@@std@@YAXQEAV?$_List_unchecked_iterator@V?$_List_val@U?$_List_simple_types@U?$pair@$$CBV?$basic_string@DU?$char_traits@D@std@@V?$allocator@D@2@@std@@_K@std@@@std@@@std@@@0@0AEBV10@@Z 0000000180003020 f i core.obj
 0001:00002020       ??$fill@PEAV?$_List_unchecked_iterator@V?$_List_val@U?$_List_simple_types@U?$pair@$$CB_KUCallNode@kmp@@@std@@@std@@@std@@@std@@V12@@std@@YAXQEAV?$_List_unchecked_iterator@V?$_List_val@U?$_List_simple_types@U?$pair@$$CB_KUCallNode@kmp@@@std@@@std@@@std@@@0@0AEBV10@@Z 0000000180003020 f i core.obj
 0001:00002020       ??$fill@PEAV?$_List_unchecked_iterator@V?$_List_val@U?$_List_simple_types@U?$pair@$$CB_KV?$basic_string@DU?$char_traits@D@std@@V?$allocator@D@2@@std@@@std@@@std@@@std@@@std@@V12@@std@@YAXQEAV?$_List_unchecked_iterator@V?$_List_val@U?$_List_simple_types@U?$pair@$$CB_KV?$basic_string@DU?$char_traits@D@std@@V?$allocator@D@2@@std@@@std@@@std@@@std@@@0@0AEBV10@@Z 0000000180003020 f i KenshiMP.Scanner:orchestrator.obj
 0001:00002020       ??$fill@PEAV?$_List_unchecked_iterator@V?$_List_val@U?$_List_simple_types@U?$pair@$$CB_KV?$vector@_KV?$allocator@_K@std@@@std@@@std@@@std@@@std@@@std@@V12@@std@@YAXQEAV?$_List_unchecked_iterator@V?$_List_val@U?$_List_simple_types@U?$pair@$$CB_KV?$vector@_KV?$allocator@_K@std@@@std@@@std@@@std@@@std@@@0@0AEBV10@@Z 0000000180003020 f i core.obj
 0001:00002020       ??$fill@PEAV?$_List_unchecked_iterator@V?$_List_val@U?$_List_simple_types@U?$pair@$$CB_K_K@std@@@std@@@std@@@std@@V12@@std@@YAXQEAV?$_List_unchecked_iterator@V?$_List_val@U?$_List_simple_types@U?$pair@$$CB_K_K@std@@@std@@@std@@@0@0AEBV10@@Z 0000000180003020 f i KenshiMP.Scanner:string_analyzer.obj
 0001:000020b0       ??$info@$$BY0BH@D@spdlog@@YAXAEAY0BH@$$CBD@Z 00000001800030b0 f i core.obj
 0001:000020b0       ??$info@$$BY0BM@D@spdlog@@YAXAEAY0BM@$$CBD@Z 00000001800030b0 f i native_menu.obj
 0001:000020b0       ??$info@$$BY0BO@D@spdlog@@YAXAEAY0BO@$$CBD@Z 00000001800030b0 f i player_controller.obj
 0001:000020b0       ??$info@$$BY0CB@D@spdlog@@YAXAEAY0CB@$$CBD@Z 00000001800030b0 f i native_menu.obj
 0001:000020b0       ??$info@$$BY0CP@D@spdlog@@YAXAEAY0CP@$$CBD@Z 00000001800030b0 f i core.obj
 0001:000020b0       ??$info@$$BY0EK@D@spdlog@@YAXAEAY0EK@$$CBD@Z 00000001800030b0 f i core.obj
 0001:000020b0       ??$info@$$BY0LF@D@spdlog@@YAXAEAY0LF@$$CBD@Z 00000001800030b0 f i KenshiMP.Scanner:orchestrator.obj
 0001:000021f0       ??$info@AEAHAEA_K@spdlog@@YAXU?$fstring@AEAHAEA_K@v11@fmt@@AEAHAEA_K@Z 00000001800031f0 f i core.obj
 0001:000022a0       ??$info@AEAMAEAMAEAM@spdlog@@YAXU?$fstring@AEAMAEAMAEAM@v11@fmt@@AEAM11@Z 00000001800032a0 f i core.obj
 0001:00002360       ??$log@$$BY0CK@D@logger@spdlog@@QEAAXW4level_enum@level@1@AEAY0CK@$$CBD@Z 0000000180003360 f i client.obj
 0001:00002360       ??$log@$$BY0ED@D@logger@spdlog@@QEAAXW4level_enum@level@1@AEAY0ED@$$CBD@Z 0000000180003360 f i core.obj
 0001:000024b0       ??$log_@AEAH@logger@spdlog@@IEAAXUsource_loc@1@W4level_enum@level@1@V?$basic_string_view@D@v11@fmt@@AEAH@Z 00000001800034b0 f i core.obj
 0001:000024b0       ??$log_@AEBH@logger@spdlog@@IEAAXUsource_loc@1@W4level_enum@level@1@V?$basic_string_view@D@v11@fmt@@AEBH@Z 00000001800034b0 f i building_hooks.obj
 0001:00002680       ??$log_@AEAHAEAHAEAHAEAH@logger@spdlog@@IEAAXUsource_loc@1@W4level_enum@level@1@V?$basic_string_view@D@v11@fmt@@AEAH333@Z 0000000180003680 f i core.obj
 0001:000028b0       ??$log_@AEAHAEAHPEBD_K@logger@spdlog@@IEAAXUsource_loc@1@W4level_enum@level@1@V?$basic_string_view@D@v11@fmt@@AEAH3$$QEAPEBD$$QEA_K@Z 00000001800038b0 f i core.obj
 0001:00002ae0       ??$log_@AEAHAEAIAEAMAEAMAEAMAEAM@logger@spdlog@@IEAAXUsource_loc@1@W4level_enum@level@1@V?$basic_string_view@D@v11@fmt@@AEAHAEAIAEAM555@Z 0000000180003ae0 f i core.obj
 0001:00002d70       ??$log_@AEAHAEAMAEAH@logger@spdlog@@IEAAXUsource_loc@1@W4level_enum@level@1@V?$basic_string_view@D@v11@fmt@@AEAHAEAM3@Z 0000000180003d70 f i core.obj
 0001:00002f90       ??$log_@AEAHAEAMAEAMAEAM@logger@spdlog@@IEAAXUsource_loc@1@W4level_enum@level@1@V?$basic_string_view@D@v11@fmt@@AEAHAEAM44@Z 0000000180003f90 f i core.obj
 0001:000031d0       ??$log_@AEAHAEAV?$basic_string@DU?$char_traits@D@std@@V?$allocator@D@2@@std@@AEAMAEAMAEAMAEAM@logger@spdlog@@IEAAXUsource_loc@1@W4level_enum@level@1@V?$basic_string_view@D@v11@fmt@@AEAHAEAV?$basic_string@DU?$char_traits@D@std@@V?$allocator@D@2@@std@@AEAM555@Z 00000001800041d0 f i core.obj
 0001:00003480       ??$log_@AEAHAEA_K@logger@spdlog@@IEAAXUsource_loc@1@W4level_enum@level@1@V?$basic_string_view@D@v11@fmt@@AEAHAEA_K@Z 0000000180004480 f i core.obj
 0001:00003480       ??$log_@AEAH_K@logger@spdlog@@IEAAXUsource_loc@1@W4level_enum@level@1@V?$basic_string_view@D@v11@fmt@@AEAH$$QEA_K@Z 0000000180004480 f i entity_hooks.obj
 0001:00003480       ??$log_@HAEA_K@logger@spdlog@@IEAAXUsource_loc@1@W4level_enum@level@1@V?$basic_string_view@D@v11@fmt@@$$QEAHAEA_K@Z 0000000180004480 f i core.obj
 0001:00003670       ??$log_@AEAHAEA_K_J@logger@spdlog@@IEAAXUsource_loc@1@W4level_enum@level@1@V?$basic_string_view@D@v11@fmt@@AEAHAEA_K$$QEA_J@Z 0000000180004670 f i core.obj
 0001:00003880       ??$log_@AEAH_JAEAM_K_K@logger@spdlog@@IEAAXUsource_loc@1@W4level_enum@level@1@V?$basic_string_view@D@v11@fmt@@AEAH$$QEA_JAEAM$$QEA_K6@Z 0000000180004880 f i core.obj
 0001:00003ae0       ??$log_@AEAIAEAH@logger@spdlog@@IEAAXUsource_loc@1@W4level_enum@level@1@V?$basic_string_view@D@v11@fmt@@AEAIAEAH@Z 0000000180004ae0 f i core.obj
 0001:00003ae0       ??$log_@AEAIH@logger@spdlog@@IEAAXUsource_loc@1@W4level_enum@level@1@V?$basic_string_view@D@v11@fmt@@AEAI$$QEAH@Z 0000000180004ae0 f i entity_hooks.obj
 0001:00003cd0       ??$log_@AEAIAEA_K@logger@spdlog@@IEAAXUsource_loc@1@W4level_enum@level@1@V?$basic_string_view@D@v11@fmt@@AEAIAEA_K@Z 0000000180004cd0 f i player_controller.obj
 0001:00003cd0       ??$log_@AEAI_K@logger@spdlog@@IEAAXUsource_loc@1@W4level_enum@level@1@V?$basic_string_view@D@v11@fmt@@AEAI$$QEA_K@Z 0000000180004cd0 f i core.obj
 0001:00003ec0       ??$log_@AEAI_KAEAV?$basic_string@DU?$char_traits@D@std@@V?$allocator@D@2@@std@@@logger@spdlog@@IEAAXUsource_loc@1@W4level_enum@level@1@V?$basic_string_view@D@v11@fmt@@AEAI$$QEA_KAEAV?$basic_string@DU?$char_traits@D@std@@V?$allocator@D@2@@std@@@Z 0000000180004ec0 f i core.obj
 0001:000040f0       ??$log_@AEAMAEAMAEAM@logger@spdlog@@IEAAXUsource_loc@1@W4level_enum@level@1@V?$basic_string_view@D@v11@fmt@@AEAM33@Z 00000001800050f0 f i core.obj
 0001:00004310       ??$log_@AEAPEBD@logger@spdlog@@IEAAXUsource_loc@1@W4level_enum@level@1@V?$basic_string_view@D@v11@fmt@@AEAPEBD@Z 0000000180005310 f i core.obj
 0001:00004310       ??$log_@PEBD@logger@spdlog@@IEAAXUsource_loc@1@W4level_enum@level@1@V?$basic_string_view@D@v11@fmt@@$$QEAPEBD@Z 0000000180005310 f i spawn_manager.obj
 0001:000044e0       ??$log_@AEAPEBDAEAHAEAH@logger@spdlog@@IEAAXUsource_loc@1@W4level_enum@level@1@V?$basic_string_view@D@v11@fmt@@AEAPEBDAEAH4@Z 00000001800054e0 f i core.obj
 0001:000046f0       ??$log_@AEA_K@logger@spdlog@@IEAAXUsource_loc@1@W4level_enum@level@1@V?$basic_string_view@D@v11@fmt@@AEA_K@Z 00000001800056f0 f i core.obj
 0001:000046f0       ??$log_@AEB_K@logger@spdlog@@IEAAXUsource_loc@1@W4level_enum@level@1@V?$basic_string_view@D@v11@fmt@@AEB_K@Z 00000001800056f0 f i spawn_manager.obj
 0001:000046f0       ??$log_@_K@logger@spdlog@@IEAAXUsource_loc@1@W4level_enum@level@1@V?$basic_string_view@D@v11@fmt@@$$QEA_K@Z 00000001800056f0 f i core.obj
 0001:000048c0       ??$log_@AEA_KH_K_N_N@logger@spdlog@@IEAAXUsource_loc@1@W4level_enum@level@1@V?$basic_string_view@D@v11@fmt@@AEA_K$$QEAH$$QEA_K$$QEA_N6@Z 00000001800058c0 f i core.obj
 0001:00004b20       ??$log_@HHH@logger@spdlog@@IEAAXUsource_loc@1@W4level_enum@level@1@V?$basic_string_view@D@v11@fmt@@$$QEAH33@Z 0000000180005b20 f i core.obj
 0001:00004d30       ??$log_@AEAPEBDAEA_KAEA_K@logger@spdlog@@IEAAXUsource_loc@1@W4level_enum@level@1@V?$basic_string_view@D@v11@fmt@@AEAPEBDAEA_K4@Z 0000000180005d30 f i KenshiMP.Scanner:patterns.obj
 0001:00004d30       ??$log_@PEBD_KAEA_K@logger@spdlog@@IEAAXUsource_loc@1@W4level_enum@level@1@V?$basic_string_view@D@v11@fmt@@$$QEAPEBD$$QEA_KAEA_K@Z 0000000180005d30 f i core.obj
 0001:00004f40       ??$log_@_KAEAHAEAH@logger@spdlog@@IEAAXUsource_loc@1@W4level_enum@level@1@V?$basic_string_view@D@v11@fmt@@$$QEA_KAEAH4@Z 0000000180005f40 f i core.obj
 0001:00005150       ??$log_@AEA_KAEA_K@logger@spdlog@@IEAAXUsource_loc@1@W4level_enum@level@1@V?$basic_string_view@D@v11@fmt@@AEA_K3@Z 0000000180006150 f i game_character.obj
 0001:00005150       ??$log_@AEA_K_K@logger@spdlog@@IEAAXUsource_loc@1@W4level_enum@level@1@V?$basic_string_view@D@v11@fmt@@AEA_K$$QEA_K@Z 0000000180006150 f i game_character.obj
 0001:00005150       ??$log_@AEB_KAEB_K@logger@spdlog@@IEAAXUsource_loc@1@W4level_enum@level@1@V?$basic_string_view@D@v11@fmt@@AEB_K3@Z 0000000180006150 f i KenshiMP.Scanner:orchestrator.obj
 0001:00005150       ??$log_@_KAEA_K@logger@spdlog@@IEAAXUsource_loc@1@W4level_enum@level@1@V?$basic_string_view@D@v11@fmt@@$$QEA_KAEA_K@Z 0000000180006150 f i squad_hooks.obj
 0001:00005150       ??$log_@_K_K@logger@spdlog@@IEAAXUsource_loc@1@W4level_enum@level@1@V?$basic_string_view@D@v11@fmt@@$$QEA_K3@Z 0000000180006150 f i core.obj
 0001:00005340       ??$move@AEAV?$basic_string@DU?$char_traits@D@std@@V?$allocator@D@2@@std@@@std@@YA$$QEAV?$basic_string@DU?$char_traits@D@std@@V?$allocator@D@2@@0@AEAV10@@Z 0000000180006340 f i core.obj
 0001:00005350       ??$parse_dynamic_spec@D@detail@v11@fmt@@YA?AU?$parse_dynamic_spec_result@D@012@PEBD0AEAHAEAT?$arg_ref@D@012@AEAV?$parse_context@D@12@@Z 0000000180006350 f i core.obj
 0001:000055b0       ??$parse_format_specs@D@detail@v11@fmt@@YAPEBDPEBD0AEAU?$dynamic_format_specs@D@012@AEAV?$parse_context@D@12@W4type@012@@Z 00000001800065b0 f i core.obj
 0001:00005cc0       ??$parse_nonnegative_int@D@detail@v11@fmt@@YAHAEAPEBDPEBDH@Z 0000000180006cc0 f i core.obj
 0001:00005d50       ??$sprintf_s@$0IA@@@YAHAEAY0IA@DPEBDZZ 0000000180006d50 f i core.obj
 0001:00005db0       ??$warn@AEAH@spdlog@@YAXU?$fstring@AEAH@v11@fmt@@AEAH@Z 0000000180006db0 f i core.obj
 0001:00005e50       ??0?$basic_string@DU?$char_traits@D@std@@V?$allocator@D@2@@std@@QEAA@$$QEAV01@@Z 0000000180006e50 f i core.obj
 0001:00005e80       ??0?$basic_string@DU?$char_traits@D@std@@V?$allocator@D@2@@std@@QEAA@AEBV01@@Z 0000000180006e80 f i core.obj
 0001:00005f40       ??0?$basic_string@DU?$char_traits@D@std@@V?$allocator@D@2@@std@@QEAA@QEBD@Z 0000000180006f40 f i core.obj
 0001:00005f90       ??0?$basic_string@DU?$char_traits@D@std@@V?$allocator@D@2@@std@@QEAA@U_String_constructor_concat_tag@1@AEAV01@1@Z 0000000180006f90 f i core.obj
 0001:00006140       ??0?$basic_string@DU?$char_traits@D@std@@V?$allocator@D@2@@std@@QEAA@U_String_constructor_concat_tag@1@AEBV01@QEBD_K23@Z 0000000180007140 f i core.obj
 0001:00006210       ??0?$unordered_map@V?$basic_string@DU?$char_traits@D@std@@V?$allocator@D@2@@std@@PEAXU?$hash@V?$basic_string@DU?$char_traits@D@std@@V?$allocator@D@2@@std@@@2@U?$equal_to@V?$basic_string@DU?$char_traits@D@std@@V?$allocator@D@2@@std@@@2@V?$allocator@U?$pair@$$CBV?$basic_string@DU?$char_traits@D@std@@V?$allocator@D@2@@std@@PEAX@std@@@2@@std@@QEAA@XZ 0000000180007210 f i core.obj
 0001:00006210       ??0?$unordered_map@V?$basic_string@DU?$char_traits@D@std@@V?$allocator@D@2@@std@@_KU?$hash@V?$basic_string@DU?$char_traits@D@std@@V?$allocator@D@2@@std@@@2@U?$equal_to@V?$basic_string@DU?$char_traits@D@std@@V?$allocator@D@2@@std@@@2@V?$allocator@U?$pair@$$CBV?$basic_string@DU?$char_traits@D@std@@V?$allocator@D@2@@std@@_K@std@@@2@@std@@QEAA@XZ 0000000180007210 f i core.obj
 0001:00006310       ??0Core@kmp@@AEAA@XZ       0000000180007310 f i core.obj
 0001:00006990       ??0EntityInfo@kmp@@QEAA@XZ 0000000180007990 f i core.obj
 0001:00006a40       ??0EntityRegistry@kmp@@QEAA@XZ 0000000180007a40 f i core.obj
 0001:00006c30       ??0FrameData@kmp@@QEAA@XZ  0000000180007c30 f i core.obj
 0001:00006c60       ??0FunctionSignature@kmp@@QEAA@$$QEAU01@@Z 0000000180007c60 f i core.obj
 0001:00006d20       ??0NativeHud@kmp@@QEAA@XZ  0000000180007d20 f i core.obj
 0001:00006ef0       ??0Overlay@kmp@@QEAA@XZ    0000000180007ef0 f i core.obj
 0001:000072f0       ??0PacketWriter@kmp@@QEAA@XZ 00000001800082f0 f i core.obj
 0001:000073b0       ??0PatternOrchestrator@kmp@@QEAA@XZ 00000001800083b0 f i core.obj
 0001:00007650       ??0PlayerController@kmp@@QEAA@XZ 0000000180008650 f i core.obj
 0001:000077a0       ??0ScannerEngine@kmp@@QEAA@XZ 00000001800087a0 f i core.obj
 0001:00007910       ??0SpawnManager@kmp@@QEAA@XZ 0000000180008910 f i core.obj
 0001:00007ac0       ??0StringAnalyzer@kmp@@QEAA@XZ 0000000180008ac0 f i core.obj
 0001:00007c00       ??0bad_alloc@std@@QEAA@AEBV01@@Z 0000000180008c00 f i core.obj
 0001:00007c40       ??0bad_alloc@std@@QEAA@XZ  0000000180008c40 f i core.obj
 0001:00007c70       ??0bad_array_new_length@std@@QEAA@AEBV01@@Z 0000000180008c70 f i core.obj
 0001:00007cb0       ??0bad_array_new_length@std@@QEAA@XZ 0000000180008cb0 f i core.obj
 0001:00007ce0       ??0exception@std@@QEAA@AEBV01@@Z 0000000180008ce0 f i core.obj
 0001:00007d20       ??0logger@spdlog@@QEAA@V?$basic_string@DU?$char_traits@D@std@@V?$allocator@D@2@@std@@V?$shared_ptr@Vsink@sinks@spdlog@@@3@@Z 0000000180008d20 f i core.obj
 0001:00007f00       ??1?$_Alloc_construct_ptr@V?$allocator@U?$_List_node@U?$pair@$$CBV?$basic_string@DU?$char_traits@D@std@@V?$allocator@D@2@@std@@PEAPEAX@std@@PEAX@std@@@std@@@std@@QEAA@XZ 0000000180008f00 f i core.obj
 0001:00007f00       ??1?$_Alloc_construct_ptr@V?$allocator@U?$_List_node@U?$pair@$$CBV?$basic_string@DU?$char_traits@D@std@@V?$allocator@D@2@@std@@PEAX@std@@PEAX@std@@@std@@@std@@QEAA@XZ 0000000180008f00 f i spawn_manager.obj
 0001:00007f00       ??1?$_Alloc_construct_ptr@V?$allocator@U?$_List_node@U?$pair@$$CBV?$basic_string@DU?$char_traits@D@std@@V?$allocator@D@2@@std@@_K@std@@PEAX@std@@@std@@@std@@QEAA@XZ 0000000180008f00 f i KenshiMP.Scanner:orchestrator.obj
 0001:00007f00       ??1?$_Alloc_construct_ptr@V?$allocator@U?$_List_node@U?$pair@$$CB_KV?$basic_string@DU?$char_traits@D@std@@V?$allocator@D@2@@std@@@std@@PEAX@std@@@std@@@std@@QEAA@XZ 0000000180008f00 f i KenshiMP.Scanner:orchestrator.obj
 0001:00007f20       ??1?$_Func_class@XAEBV?$basic_string@DU?$char_traits@D@std@@V?$allocator@D@2@@std@@@std@@QEAA@XZ 0000000180008f20 f i core.obj
 0001:00007f20       ??1?$_Func_class@XAEBV?$basic_string@DU?$char_traits@D@std@@V?$allocator@D@2@@std@@PEAU_iobuf@@@std@@QEAA@XZ 0000000180008f20 f i core.obj
 0001:00007f20       ??1?$_Func_class@XIPEAX@std@@QEAA@XZ 0000000180008f20 f i core.obj
 0001:00007f20       ??1?$_Func_class@XPEBE_KH@std@@QEAA@XZ 0000000180008f20 f i core.obj
 0001:00007f20       ??1?$_Func_class@_NHW4parse_event_t@detail@json_abi_v3_11_3@nlohmann@@AEAV?$basic_json@Vmap@std@@Vvector@2@V?$basic_string@DU?$char_traits@D@std@@V?$allocator@D@2@@2@_N_J_KNVallocator@2@Uadl_serializer@json_abi_v3_11_3@nlohmann@@V?$vector@EV?$allocator@E@std@@@2@X@34@@std@@QEAA@XZ 0000000180008f20 f i KenshiMP.Common:config.obj
 0001:00007f20       ??1?$function@$$A6A?AV?$basic_string@DU?$char_traits@D@std@@V?$allocator@D@2@@std@@AEBUCommandArgs@kmp@@@Z@std@@QEAA@XZ 0000000180008f20 f i command_registry.obj
 0001:00007f20       ??1?$function@$$A6AXAEBV?$basic_string@DU?$char_traits@D@std@@V?$allocator@D@2@@std@@@Z@std@@QEAA@XZ 0000000180008f20 f i core.obj
 0001:00007f20       ??1?$function@$$A6AXAEBV?$basic_string@DU?$char_traits@D@std@@V?$allocator@D@2@@std@@PEAU_iobuf@@@Z@std@@QEAA@XZ 0000000180008f20 f i core.obj
 0001:00007f20       ??1?$function@$$A6AXIPEAX@Z@std@@QEAA@XZ 0000000180008f20 f i core.obj
 0001:00007f20       ??1?$function@$$A6AXPEBE_KH@Z@std@@QEAA@XZ 0000000180008f20 f i core.obj
 0001:00007f20       ??1?$function@$$A6AXXZ@std@@QEAA@XZ 0000000180008f20 f i core.obj
 0001:00007f20       ??1?$function@$$A6A_NHW4parse_event_t@detail@json_abi_v3_11_3@nlohmann@@AEAV?$basic_json@Vmap@std@@Vvector@2@V?$basic_string@DU?$char_traits@D@std@@V?$allocator@D@2@@2@_N_J_KNVallocator@2@Uadl_serializer@json_abi_v3_11_3@nlohmann@@V?$vector@EV?$allocator@E@std@@@2@X@34@@Z@std@@QEAA@XZ 0000000180008f20 f i KenshiMP.Common:config.obj
 0001:00007f20       ??1Task@TaskOrchestrator@kmp@@QEAA@XZ 0000000180008f20 f i core.obj
 0001:00007f50       ??1?$_Hash@V?$_Umap_traits@V?$basic_string@DU?$char_traits@D@std@@V?$allocator@D@2@@std@@PEAPEAXV?$_Uhash_compare@V?$basic_string@DU?$char_traits@D@std@@V?$allocator@D@2@@std@@U?$hash@V?$basic_string@DU?$char_traits@D@std@@V?$allocator@D@2@@std@@@2@U?$equal_to@V?$basic_string@DU?$char_traits@D@std@@V?$allocator@D@2@@std@@@2@@2@V?$allocator@U?$pair@$$CBV?$basic_string@DU?$char_traits@D@std@@V?$allocator@D@2@@std@@PEAPEAX@std@@@2@$0A@@std@@@std@@QEAA@XZ 0000000180008f50 f i core.obj
 0001:00007f50       ??1?$unordered_map@V?$basic_string@DU?$char_traits@D@std@@V?$allocator@D@2@@std@@PEAPEAXU?$hash@V?$basic_string@DU?$char_traits@D@std@@V?$allocator@D@2@@std@@@2@U?$equal_to@V?$basic_string@DU?$char_traits@D@std@@V?$allocator@D@2@@std@@@2@V?$allocator@U?$pair@$$CBV?$basic_string@DU?$char_traits@D@std@@V?$allocator@D@2@@std@@PEAPEAX@std@@@2@@std@@QEAA@XZ 0000000180008f50 f i core.obj
 0001:00007f50       ??1?$unordered_map@V?$basic_string@DU?$char_traits@D@std@@V?$allocator@D@2@@std@@PEAXU?$hash@V?$basic_string@DU?$char_traits@D@std@@V?$allocator@D@2@@std@@@2@U?$equal_to@V?$basic_string@DU?$char_traits@D@std@@V?$allocator@D@2@@std@@@2@V?$allocator@U?$pair@$$CBV?$basic_string@DU?$char_traits@D@std@@V?$allocator@D@2@@std@@PEAX@std@@@2@@std@@QEAA@XZ 0000000180008f50 f i core.obj
 0001:00007f50       ??1?$unordered_map@V?$basic_string@DU?$char_traits@D@std@@V?$allocator@D@2@@std@@W4level_enum@level@spdlog@@U?$hash@V?$basic_string@DU?$char_traits@D@std@@V?$allocator@D@2@@std@@@2@U?$equal_to@V?$basic_string@DU?$char_traits@D@std@@V?$allocator@D@2@@std@@@2@V?$allocator@U?$pair@$$CBV?$basic_string@DU?$char_traits@D@std@@V?$allocator@D@2@@std@@W4level_enum@level@spdlog@@@std@@@2@@std@@QEAA@XZ 0000000180008f50 f i spdlog:spdlog.obj
 0001:00007f70       ??1?$_Hash_vec@V?$allocator@V?$_List_unchecked_const_iterator@V?$_List_val@U?$_List_simple_types@I@std@@@std@@U_Iterator_base0@2@@std@@@std@@@std@@QEAA@XZ 0000000180008f70 f i packet_handler.obj
 0001:00007f70       ??1?$_Hash_vec@V?$allocator@V?$_List_unchecked_const_iterator@V?$_List_val@U?$_List_simple_types@PEAX@std@@@std@@U_Iterator_base0@2@@std@@@std@@@std@@QEAA@XZ 0000000180008f70 f i ai_hooks.obj
 0001:00007f70       ??1?$_Hash_vec@V?$allocator@V?$_List_unchecked_const_iterator@V?$_List_val@U?$_List_simple_types@_K@std@@@std@@U_Iterator_base0@2@@std@@@std@@@std@@QEAA@XZ 0000000180008f70 f i KenshiMP.Scanner:string_analyzer.obj
 0001:00007f70       ??1?$_Hash_vec@V?$allocator@V?$_List_unchecked_iterator@V?$_List_val@U?$_List_simple_types@U?$pair@$$CBDV?$unique_ptr@Vcustom_flag_formatter@spdlog@@U?$default_delete@Vcustom_flag_formatter@spdlog@@@std@@@std@@@std@@@std@@@std@@@std@@@std@@@std@@QEAA@XZ 0000000180008f70 f i spdlog:spdlog.obj
 0001:00007f70       ??1?$_Hash_vec@V?$allocator@V?$_List_unchecked_iterator@V?$_List_val@U?$_List_simple_types@U?$pair@$$CBIH@std@@@std@@@std@@@std@@@std@@@std@@QEAA@XZ 0000000180008f70 f i entity_hooks.obj
 0001:00007f70       ??1?$_Hash_vec@V?$allocator@V?$_List_unchecked_iterator@V?$_List_val@U?$_List_simple_types@U?$pair@$$CBIUEntityInfo@kmp@@@std@@@std@@@std@@@std@@@std@@@std@@QEAA@XZ 0000000180008f70 f i core.obj
 0001:00007f70       ??1?$_Hash_vec@V?$allocator@V?$_List_unchecked_iterator@V?$_List_val@U?$_List_simple_types@U?$pair@$$CBIUEntityInterpState@Interpolation@kmp@@@std@@@std@@@std@@@std@@@std@@@std@@QEAA@XZ 0000000180008f70 f i core.obj
 0001:00007f70       ??1?$_Hash_vec@V?$allocator@V?$_List_unchecked_iterator@V?$_List_val@U?$_List_simple_types@U?$pair@$$CBIURemotePlayerState@kmp@@@std@@@std@@@std@@@std@@@std@@@std@@QEAA@XZ 0000000180008f70 f i core.obj
 0001:00007f70       ??1?$_Hash_vec@V?$allocator@V?$_List_unchecked_iterator@V?$_List_val@U?$_List_simple_types@U?$pair@$$CBV?$basic_string@DU?$char_traits@D@std@@V?$allocator@D@2@@std@@PEAPEAX@std@@@std@@@std@@@std@@@std@@@std@@QEAA@XZ 0000000180008f70 f i core.obj
 0001:00007f70       ??1?$_Hash_vec@V?$allocator@V?$_List_unchecked_iterator@V?$_List_val@U?$_List_simple_types@U?$pair@$$CBV?$basic_string@DU?$char_traits@D@std@@V?$allocator@D@2@@std@@PEAX@std@@@std@@@std@@@std@@@std@@@std@@QEAA@XZ 0000000180008f70 f i core.obj
 0001:00007f70       ??1?$_Hash_vec@V?$allocator@V?$_List_unchecked_iterator@V?$_List_val@U?$_List_simple_types@U?$pair@$$CBV?$basic_string@DU?$char_traits@D@std@@V?$allocator@D@2@@std@@UCommandDef@kmp@@@std@@@std@@@std@@@std@@@std@@@std@@QEAA@XZ 0000000180008f70 f i command_registry.obj
 0001:00007f70       ??1?$_Hash_vec@V?$allocator@V?$_List_unchecked_iterator@V?$_List_val@U?$_List_simple_types@U?$pair@$$CBV?$basic_string@DU?$char_traits@D@std@@V?$allocator@D@2@@std@@UHookEntry@HookManager@kmp@@@std@@@std@@@std@@@std@@@std@@@std@@QEAA@XZ 0000000180008f70 f i KenshiMP.Scanner:hook_manager.obj
 0001:00007f70       ??1?$_Hash_vec@V?$allocator@V?$_List_unchecked_iterator@V?$_List_val@U?$_List_simple_types@U?$pair@$$CBV?$basic_string@DU?$char_traits@D@std@@V?$allocator@D@2@@std@@UScanResult@kmp@@@std@@@std@@@std@@@std@@@std@@@std@@QEAA@XZ 0000000180008f70 f i core.obj
 0001:00007f70       ??1?$_Hash_vec@V?$allocator@V?$_List_unchecked_iterator@V?$_List_val@U?$_List_simple_types@U?$pair@$$CBV?$basic_string@DU?$char_traits@D@std@@V?$allocator@D@2@@std@@V?$shared_ptr@Vlogger@spdlog@@@2@@std@@@std@@@std@@@std@@@std@@@std@@QEAA@XZ 0000000180008f70 f i spdlog:spdlog.obj
 0001:00007f70       ??1?$_Hash_vec@V?$allocator@V?$_List_unchecked_iterator@V?$_List_val@U?$_List_simple_types@U?$pair@$$CBV?$basic_string@DU?$char_traits@D@std@@V?$allocator@D@2@@std@@W4level_enum@level@spdlog@@@std@@@std@@@std@@@std@@@std@@@std@@QEAA@XZ 0000000180008f70 f i spdlog:spdlog.obj
 0001:00007f70       ??1?$_Hash_vec@V?$allocator@V?$_List_unchecked_iterator@V?$_List_val@U?$_List_simple_types@U?$pair@$$CBV?$basic_string@DU?$char_traits@D@std@@V?$allocator@D@2@@std@@_K@std@@@std@@@std@@@std@@@std@@@std@@QEAA@XZ 0000000180008f70 f i core.obj
 0001:00007f70       ??1?$_Hash_vec@V?$allocator@V?$_List_unchecked_iterator@V?$_List_val@U?$_List_simple_types@U?$pair@$$CB_KUCallNode@kmp@@@std@@@std@@@std@@@std@@@std@@@std@@QEAA@XZ 0000000180008f70 f i core.obj
 0001:00007f70       ??1?$_Hash_vec@V?$allocator@V?$_List_unchecked_iterator@V?$_List_val@U?$_List_simple_types@U?$pair@$$CB_KV?$basic_string@DU?$char_traits@D@std@@V?$allocator@D@2@@std@@@std@@@std@@@std@@@std@@@std@@@std@@QEAA@XZ 0000000180008f70 f i KenshiMP.Scanner:orchestrator.obj
 0001:00007f70       ??1?$_Hash_vec@V?$allocator@V?$_List_unchecked_iterator@V?$_List_val@U?$_List_simple_types@U?$pair@$$CB_KV?$vector@_KV?$allocator@_K@std@@@std@@@std@@@std@@@std@@@std@@@std@@@std@@QEAA@XZ 0000000180008f70 f i core.obj
 0001:00007f70       ??1?$_Hash_vec@V?$allocator@V?$_List_unchecked_iterator@V?$_List_val@U?$_List_simple_types@U?$pair@$$CB_K_K@std@@@std@@@std@@@std@@@std@@@std@@QEAA@XZ 0000000180008f70 f i KenshiMP.Scanner:string_analyzer.obj
 0001:00007f70       ??1?$_Hash_vec@V?$allocator@V?$_List_unchecked_iterator@V?$_List_val@U?$_List_simple_types@U?$pair@QEAXI@std@@@std@@@std@@@std@@@std@@@std@@QEAA@XZ 0000000180008f70 f i core.obj
 0001:00007f70       ??1?$vector@PEAV?$basic_json@Vmap@std@@Vvector@2@V?$basic_string@DU?$char_traits@D@std@@V?$allocator@D@2@@2@_N_J_KNVallocator@2@Uadl_serializer@json_abi_v3_11_3@nlohmann@@V?$vector@EV?$allocator@E@std@@@2@X@json_abi_v3_11_3@nlohmann@@V?$allocator@PEAV?$basic_json@Vmap@std@@Vvector@2@V?$basic_string@DU?$char_traits@D@std@@V?$allocator@D@2@@2@_N_J_KNVallocator@2@Uadl_serializer@json_abi_v3_11_3@nlohmann@@V?$vector@EV?$allocator@E@std@@@2@X@json_abi_v3_11_3@nlohmann@@@std@@@std@@QEAA@XZ 0000000180008f70 f i KenshiMP.Common:config.obj
 0001:00007f70       ??1?$vector@PEBUCommandDef@kmp@@V?$allocator@PEBUCommandDef@kmp@@@std@@@std@@QEAA@XZ 0000000180008f70 f i command_registry.obj
 0001:00007f70       ??1?$vector@PEBUGameString@kmp@@V?$allocator@PEBUGameString@kmp@@@std@@@std@@QEAA@XZ 0000000180008f70 f i KenshiMP.Scanner:orchestrator.obj
 0001:00007f70       ??1?$vector@_KV?$allocator@_K@std@@@std@@QEAA@XZ 0000000180008f70 f i core.obj
 0001:00007f70       ?_Tidy@?$vector@PEAXV?$allocator@PEAX@std@@@std@@AEAAXXZ 0000000180008f70 f i mygui_bridge.obj
 0001:00007f70       ?_Tidy@?$vector@_KV?$allocator@_K@std@@@std@@AEAAXXZ 0000000180008f70 f i core.obj
 0001:00007fe0       ??1?$_List_node_emplace_op2@V?$allocator@U?$_List_node@U?$pair@$$CBV?$basic_string@DU?$char_traits@D@std@@V?$allocator@D@2@@std@@PEAPEAX@std@@PEAX@std@@@std@@@std@@QEAA@XZ 0000000180008fe0 f i core.obj
 0001:00007fe0       ??1?$_List_node_emplace_op2@V?$allocator@U?$_List_node@U?$pair@$$CBV?$basic_string@DU?$char_traits@D@std@@V?$allocator@D@2@@std@@PEAX@std@@PEAX@std@@@std@@@std@@QEAA@XZ 0000000180008fe0 f i spawn_manager.obj
 0001:00007fe0       ??1?$_List_node_emplace_op2@V?$allocator@U?$_List_node@U?$pair@$$CBV?$basic_string@DU?$char_traits@D@std@@V?$allocator@D@2@@std@@_K@std@@PEAX@std@@@std@@@std@@QEAA@XZ 0000000180008fe0 f i KenshiMP.Scanner:orchestrator.obj
 0001:00008020       ??1?$_Tidy_guard@V?$vector@V?$basic_string@DU?$char_traits@D@std@@V?$allocator@D@2@@std@@V?$allocator@V?$basic_string@DU?$char_traits@D@std@@V?$allocator@D@2@@std@@@2@@std@@@std@@QEAA@XZ 0000000180009020 f i core.obj
 0001:00008030       ??1?$_Uninitialized_backout_al@V?$allocator@V?$basic_string@DU?$char_traits@D@std@@V?$allocator@D@2@@std@@@std@@@std@@QEAA@XZ 0000000180009030 f i core.obj
 0001:00008070       ??1?$base_sink@Vmutex@std@@@sinks@spdlog@@UEAA@XZ 0000000180009070 f i core.obj
 0001:00008090       ??1?$basic_memory_buffer@D$0BPE@U?$allocator@D@detail@v11@fmt@@@v11@fmt@@QEAA@XZ 0000000180009090 f i spdlog:bundled_fmtlib_format.obj
 0001:00008090       ??1?$basic_memory_buffer@D$0PK@U?$allocator@D@detail@v11@fmt@@@v11@fmt@@QEAA@XZ 0000000180009090 f i core.obj
 0001:00008090       ??1?$basic_memory_buffer@H$0BPE@U?$allocator@H@detail@v11@fmt@@@v11@fmt@@QEAA@XZ 0000000180009090 f i spdlog:bundled_fmtlib_format.obj
 0001:00008090       ??1?$basic_memory_buffer@I$0CA@U?$allocator@I@detail@v11@fmt@@@v11@fmt@@QEAA@XZ 0000000180009090 f i spdlog:bundled_fmtlib_format.obj
 0001:00008090       ??1bigint@detail@v11@fmt@@QEAA@XZ 0000000180009090 f i spdlog:bundled_fmtlib_format.obj
 0001:000080b0       ??1?$basic_string@DU?$char_traits@D@std@@V?$allocator@D@2@@std@@QEAA@XZ 00000001800090b0 f i core.obj
 0001:000080b0       ?_Tidy_deallocate@?$basic_string@DU?$char_traits@D@std@@V?$allocator@D@2@@std@@AEAAXXZ 00000001800090b0 f i core.obj
 0001:00008130       ??1?$circular_q@Vlog_msg_buffer@details@spdlog@@@details@spdlog@@QEAA@XZ 0000000180009130 f i core.obj
 0001:00008140       ??1?$deque@UChatEntry@NativeHud@kmp@@V?$allocator@UChatEntry@NativeHud@kmp@@@std@@@std@@QEAA@XZ 0000000180009140 f i core.obj
 0001:00008240       ??1?$deque@UChatEntry@Overlay@kmp@@V?$allocator@UChatEntry@Overlay@kmp@@@std@@@std@@QEAA@XZ 0000000180009240 f i core.obj
 0001:00008340       ??1?$deque@ULogEntry@NativeHud@kmp@@V?$allocator@ULogEntry@NativeHud@kmp@@@std@@@std@@QEAA@XZ 0000000180009340 f i core.obj
 0001:00008440       ??1?$deque@USpawnRequest@kmp@@V?$allocator@USpawnRequest@kmp@@@std@@@std@@QEAA@XZ 0000000180009440 f i core.obj
 0001:00008540       ??1?$deque@UTask@TaskOrchestrator@kmp@@V?$allocator@UTask@TaskOrchestrator@kmp@@@std@@@std@@QEAA@XZ 0000000180009540 f i core.obj
 0001:00008650       ??1?$list@U?$pair@$$CBIUEntityInfo@kmp@@@std@@V?$allocator@U?$pair@$$CBIUEntityInfo@kmp@@@std@@@2@@std@@QEAA@XZ 0000000180009650 f i core.obj
 0001:000086b0       ??1?$list@U?$pair@$$CBIUEntityInterpState@Interpolation@kmp@@@std@@V?$allocator@U?$pair@$$CBIUEntityInterpState@Interpolation@kmp@@@std@@@2@@std@@QEAA@XZ 00000001800096b0 f i core.obj
 0001:00008710       ??1?$list@U?$pair@$$CBIURemotePlayerState@kmp@@@std@@V?$allocator@U?$pair@$$CBIURemotePlayerState@kmp@@@std@@@2@@std@@QEAA@XZ 0000000180009710 f i core.obj
 0001:00008790       ??1?$list@U?$pair@$$CBV?$basic_string@DU?$char_traits@D@std@@V?$allocator@D@2@@std@@PEAPEAX@std@@V?$allocator@U?$pair@$$CBV?$basic_string@DU?$char_traits@D@std@@V?$allocator@D@2@@std@@PEAPEAX@std@@@2@@std@@QEAA@XZ 0000000180009790 f i core.obj
 0001:00008790       ??1?$list@U?$pair@$$CBV?$basic_string@DU?$char_traits@D@std@@V?$allocator@D@2@@std@@PEAX@std@@V?$allocator@U?$pair@$$CBV?$basic_string@DU?$char_traits@D@std@@V?$allocator@D@2@@std@@PEAX@std@@@2@@std@@QEAA@XZ 0000000180009790 f i core.obj
 0001:00008790       ??1?$list@U?$pair@$$CBV?$basic_string@DU?$char_traits@D@std@@V?$allocator@D@2@@std@@W4level_enum@level@spdlog@@@std@@V?$allocator@U?$pair@$$CBV?$basic_string@DU?$char_traits@D@std@@V?$allocator@D@2@@std@@W4level_enum@level@spdlog@@@std@@@2@@std@@QEAA@XZ 0000000180009790 f i spdlog:spdlog.obj
 0001:00008790       ??1?$list@U?$pair@$$CBV?$basic_string@DU?$char_traits@D@std@@V?$allocator@D@2@@std@@_K@std@@V?$allocator@U?$pair@$$CBV?$basic_string@DU?$char_traits@D@std@@V?$allocator@D@2@@std@@_K@std@@@2@@std@@QEAA@XZ 0000000180009790 f i core.obj
 0001:00008800       ??1?$list@U?$pair@$$CBV?$basic_string@DU?$char_traits@D@std@@V?$allocator@D@2@@std@@UScanResult@kmp@@@std@@V?$allocator@U?$pair@$$CBV?$basic_string@DU?$char_traits@D@std@@V?$allocator@D@2@@std@@UScanResult@kmp@@@std@@@2@@std@@QEAA@XZ 0000000180009800 f i core.obj
 0001:00008870       ??1?$list@U?$pair@$$CB_KUCallNode@kmp@@@std@@V?$allocator@U?$pair@$$CB_KUCallNode@kmp@@@std@@@2@@std@@QEAA@XZ 0000000180009870 f i core.obj
 0001:00008960       ??1?$list@U?$pair@$$CB_KV?$vector@_KV?$allocator@_K@std@@@std@@@std@@V?$allocator@U?$pair@$$CB_KV?$vector@_KV?$allocator@_K@std@@@std@@@std@@@2@@std@@QEAA@XZ 0000000180009960 f i core.obj
 0001:000089d0       ??1?$list@U?$pair@$$CB_K_K@std@@V?$allocator@U?$pair@$$CB_K_K@std@@@2@@std@@QEAA@XZ 00000001800099d0 f i KenshiMP.Scanner:string_analyzer.obj
 0001:000089d0       ??1?$list@U?$pair@QEAXI@std@@V?$allocator@U?$pair@QEAXI@std@@@2@@std@@QEAA@XZ 00000001800099d0 f i core.obj
 0001:00008a30       ??1?$lock_guard@Vmutex@std@@@std@@QEAA@XZ 0000000180009a30 f i core.obj
 0001:00008a30       ??1?$lock_guard@Vrecursive_mutex@std@@@std@@QEAA@XZ 0000000180009a30 f i command_registry.obj
 0001:00008a40       ??1?$pair@$$CBV?$basic_string@DU?$char_traits@D@std@@V?$allocator@D@2@@std@@PEAPEAX@std@@QEAA@XZ 0000000180009a40 f i core.obj
 0001:00008a40       ??1?$thousands_sep_result@D@detail@v11@fmt@@QEAA@XZ 0000000180009a40 f i spdlog:bundled_fmtlib_format.obj
 0001:00008a40       ??1HookDiag@kmp@@QEAA@XZ   0000000180009a40 f i builtin_commands.obj
 0001:00008a40       ??1HookEntry@HookManager@kmp@@QEAA@XZ 0000000180009a40 f i KenshiMP.Scanner:hook_manager.obj
 0001:00008a50       ??1?$output_adapter@DV?$basic_string@DU?$char_traits@D@std@@V?$allocator@D@2@@std@@@detail@json_abi_v3_11_3@nlohmann@@QEAA@XZ 0000000180009a50 f i KenshiMP.Common:config.obj
 0001:00008a50       ??1?$shared_ptr@U?$output_adapter_protocol@D@detail@json_abi_v3_11_3@nlohmann@@@std@@QEAA@XZ 0000000180009a50 f i KenshiMP.Common:config.obj
 0001:00008a50       ??1?$shared_ptr@V?$basic_file_sink@Vmutex@std@@@sinks@spdlog@@@std@@QEAA@XZ 0000000180009a50 f i core.obj
 0001:00008a50       ??1?$shared_ptr@V?$wincolor_stdout_sink@Uconsole_mutex@details@spdlog@@@sinks@spdlog@@@std@@QEAA@XZ 0000000180009a50 f i spdlog:spdlog.obj
 0001:00008a50       ??1?$shared_ptr@Vlogger@spdlog@@@std@@QEAA@XZ 0000000180009a50 f i core.obj
 0001:00008a50       ??1?$shared_ptr@Vsink@sinks@spdlog@@@std@@QEAA@XZ 0000000180009a50 f i core.obj
 0001:00008a50       ??1?$shared_ptr@Vthread_pool@details@spdlog@@@std@@QEAA@XZ 0000000180009a50 f i spdlog:spdlog.obj
 0001:00008aa0       ??1?$unique_ptr@V?$tuple@P8Core@kmp@@EAAXXZPEAV12@@std@@U?$default_delete@V?$tuple@P8Core@kmp@@EAAXXZPEAV12@@std@@@2@@std@@QEAA@XZ 0000000180009aa0 f i core.obj
 0001:00008aa0       ??1?$unique_ptr@V?$tuple@P8TaskOrchestrator@kmp@@EAAXXZPEAV12@@std@@U?$default_delete@V?$tuple@P8TaskOrchestrator@kmp@@EAAXXZPEAV12@@std@@@2@@std@@QEAA@XZ 0000000180009aa0 f i task_orchestrator.obj
 0001:00008ac0       ??1?$unique_ptr@V?$A_formatter@Unull_scoped_padder@details@spdlog@@@details@spdlog@@U?$default_delete@V?$A_formatter@Unull_scoped_padder@details@spdlog@@@details@spdlog@@@std@@@std@@QEAA@XZ 0000000180009ac0 f i spdlog:spdlog.obj
 0001:00008ac0       ??1?$unique_ptr@V?$A_formatter@Vscoped_padder@details@spdlog@@@details@spdlog@@U?$default_delete@V?$A_formatter@Vscoped_padder@details@spdlog@@@details@spdlog@@@std@@@std@@QEAA@XZ 0000000180009ac0 f i spdlog:spdlog.obj
 0001:00008ac0       ??1?$unique_ptr@V?$mdc_formatter@Unull_scoped_padder@details@spdlog@@@details@spdlog@@U?$default_delete@V?$mdc_formatter@Unull_scoped_padder@details@spdlog@@@details@spdlog@@@std@@@std@@QEAA@XZ 0000000180009ac0 f i spdlog:spdlog.obj
 0001:00008ac0       ??1?$unique_ptr@V?$mdc_formatter@Vscoped_padder@details@spdlog@@@details@spdlog@@U?$default_delete@V?$mdc_formatter@Vscoped_padder@details@spdlog@@@details@spdlog@@@std@@@std@@QEAA@XZ 0000000180009ac0 f i spdlog:spdlog.obj
 0001:00008ac0       ??1?$unique_ptr@V_Facet_base@std@@U?$default_delete@V_Facet_base@std@@@2@@std@@QEAA@XZ 0000000180009ac0 f i command_registry.obj
 0001:00008ac0       ??1?$unique_ptr@Vcustom_flag_formatter@spdlog@@U?$default_delete@Vcustom_flag_formatter@spdlog@@@std@@@std@@QEAA@XZ 0000000180009ac0 f i spdlog:spdlog.obj
 0001:00008ac0       ??1?$unique_ptr@Vflag_formatter@details@spdlog@@U?$default_delete@Vflag_formatter@details@spdlog@@@std@@@std@@QEAA@XZ 0000000180009ac0 f i spdlog:spdlog.obj
 0001:00008ac0       ??1?$unique_ptr@Vformatter@spdlog@@U?$default_delete@Vformatter@spdlog@@@std@@@std@@QEAA@XZ 0000000180009ac0 f i core.obj
 0001:00008ae0       ??1?$unordered_map@IUEntityInfo@kmp@@U?$hash@I@std@@U?$equal_to@I@4@V?$allocator@U?$pair@$$CBIUEntityInfo@kmp@@@std@@@4@@std@@QEAA@XZ 0000000180009ae0 f i core.obj
 0001:00008b40       ??1?$vector@EV?$allocator@E@std@@@std@@QEAA@XZ 0000000180009b40 f i core.obj
 0001:00008b40       ??1PacketWriter@kmp@@QEAA@XZ 0000000180009b40 f i core.obj
 0001:00008b50       ??1?$vector@IV?$allocator@I@std@@@std@@QEAA@XZ 0000000180009b50 f i core.obj
 0001:00008b50       ?_Tidy@?$vector@IV?$allocator@I@std@@@std@@AEAAXXZ 0000000180009b50 f i core.obj
 0001:00008bc0       ??1?$vector@UCachedEntityPos@kmp@@V?$allocator@UCachedEntityPos@kmp@@@std@@@std@@QEAA@XZ 0000000180009bc0 f i core.obj
 0001:00008bc0       ??1?$vector@UPESection@kmp@@V?$allocator@UPESection@kmp@@@std@@@std@@QEAA@XZ 0000000180009bc0 f i core.obj
 0001:00008c50       ??1?$vector@UCachedRemoteResult@kmp@@V?$allocator@UCachedRemoteResult@kmp@@@std@@@std@@QEAA@XZ 0000000180009c50 f i core.obj
 0001:00008ce0       ??1?$vector@UCallEdge@kmp@@V?$allocator@UCallEdge@kmp@@@std@@@std@@QEAA@XZ 0000000180009ce0 f i core.obj
 0001:00008d50       ??1?$vector@UFunctionEntry@kmp@@V?$allocator@UFunctionEntry@kmp@@@std@@@std@@QEAA@XZ 0000000180009d50 f i core.obj
 0001:00008e00       ??1?$vector@UFunctionSignature@kmp@@V?$allocator@UFunctionSignature@kmp@@@std@@@std@@QEAA@XZ 0000000180009e00 f i core.obj
 0001:00008ed0       ??1?$vector@UGameString@kmp@@V?$allocator@UGameString@kmp@@@std@@@std@@QEAA@XZ 0000000180009ed0 f i core.obj
 0001:00008ee0       ??1?$vector@ULabeledFunction@kmp@@V?$allocator@ULabeledFunction@kmp@@@std@@@std@@QEAA@XZ 0000000180009ee0 f i core.obj
 0001:00008fd0       ??1?$vector@UPatternEntry@kmp@@V?$allocator@UPatternEntry@kmp@@@std@@@std@@QEAA@XZ 0000000180009fd0 f i core.obj
 0001:00009070       ??1?$vector@UPendingQuery@ServerQueryClient@kmp@@V?$allocator@UPendingQuery@ServerQueryClient@kmp@@@std@@@std@@QEAA@XZ 000000018000a070 f i core.obj
 0001:00009130       ??1?$vector@UPlayerInfo@kmp@@V?$allocator@UPlayerInfo@kmp@@@std@@@std@@QEAA@XZ 000000018000a130 f i core.obj
 0001:00009200       ??1?$vector@UServerQueryResult@kmp@@V?$allocator@UServerQueryResult@kmp@@@std@@@std@@QEAA@XZ 000000018000a200 f i core.obj
 0001:00009200       ?_Tidy@?$vector@UServerQueryResult@kmp@@V?$allocator@UServerQueryResult@kmp@@@std@@@std@@AEAAXXZ 000000018000a200 f i core.obj
 0001:000092d0       ??1?$vector@UVTableInfo@kmp@@V?$allocator@UVTableInfo@kmp@@@std@@@std@@QEAA@XZ 000000018000a2d0 f i core.obj
 0001:000092e0       ??1?$vector@UVTableSlot@kmp@@V?$allocator@UVTableSlot@kmp@@@std@@@std@@QEAA@XZ 000000018000a2e0 f i core.obj
 0001:000093a0       ??1?$vector@UXRef@GameString@kmp@@V?$allocator@UXRef@GameString@kmp@@@std@@@std@@QEAA@XZ 000000018000a3a0 f i core.obj
 0001:00009470       ??1?$vector@V?$basic_string@DU?$char_traits@D@std@@V?$allocator@D@2@@std@@V?$allocator@V?$basic_string@DU?$char_traits@D@std@@V?$allocator@D@2@@std@@@2@@std@@QEAA@XZ 000000018000a470 f i core.obj
 0001:00009480       ??1?$vector@V?$shared_ptr@Vsink@sinks@spdlog@@@std@@V?$allocator@V?$shared_ptr@Vsink@sinks@spdlog@@@std@@@2@@std@@QEAA@XZ 000000018000a480 f i core.obj
 0001:00009490       ??1?$vector@Vlog_msg_buffer@details@spdlog@@V?$allocator@Vlog_msg_buffer@details@spdlog@@@std@@@std@@QEAA@XZ 000000018000a490 f i core.obj
 0001:00009490       ?_Tidy@?$vector@Vlog_msg_buffer@details@spdlog@@V?$allocator@Vlog_msg_buffer@details@spdlog@@@std@@@std@@AEAAXXZ 000000018000a490 f i core.obj
 0001:00009570       ??1?$vector@Vthread@std@@V?$allocator@Vthread@std@@@2@@std@@QEAA@XZ 000000018000a570 f i core.obj
 0001:00009610       ??1?$vector@_NV?$allocator@_N@std@@@std@@QEAA@XZ 000000018000a610 f i core.obj
 0001:00009620       ??1CallGraphAnalyzer@kmp@@QEAA@XZ 000000018000a620 f i core.obj
 0001:00009640       ??1CallNode@kmp@@QEAA@XZ   000000018000a640 f i core.obj
 0001:000096d0       ??1?$digit_grouping@D@detail@v11@fmt@@QEAA@XZ 000000018000a6d0 f i spdlog:bundled_fmtlib_format.obj
 0001:000096d0       ??1?$pair@V?$basic_string@DU?$char_traits@D@std@@V?$allocator@D@2@@std@@V12@@std@@QEAA@XZ 000000018000a6d0 f i KenshiMP.Scanner:string_analyzer.obj
 0001:000096d0       ??1ChatEntry@NativeHud@kmp@@QEAA@XZ 000000018000a6d0 f i core.obj
 0001:000096d0       ??1LogEntry@NativeHud@kmp@@QEAA@XZ 000000018000a6d0 f i core.obj
 0001:000096f0       ??1ChatEntry@Overlay@kmp@@QEAA@XZ 000000018000a6f0 f i core.obj
 0001:00009710       ??1ClientConfig@kmp@@QEAA@XZ 000000018000a710 f i core.obj
 0001:00009750       ??1Core@kmp@@AEAA@XZ       000000018000a750 f i core.obj
 0001:00009920       ??1EntityRegistry@kmp@@QEAA@XZ 000000018000a920 f i core.obj
 0001:000099c0       ??1FrameData@kmp@@QEAA@XZ  000000018000a9c0 f i core.obj
 0001:000099f0       ??1FunctionEntry@kmp@@QEAA@XZ 000000018000a9f0 f i core.obj
 0001:00009a10       ??1FunctionSignature@kmp@@QEAA@XZ 000000018000aa10 f i core.obj
 0001:00009a10       ??1PendingQuery@ServerQueryClient@kmp@@QEAA@XZ 000000018000aa10 f i core.obj
 0001:00009a10       ??1PlayerInfo@kmp@@QEAA@XZ 000000018000aa10 f i core.obj
 0001:00009a20       ??1GameString@kmp@@QEAA@XZ 000000018000aa20 f i core.obj
 0001:00009b00       ??1Interpolation@kmp@@QEAA@XZ 000000018000ab00 f i core.obj
 0001:00009b60       ??1LabeledFunction@kmp@@QEAA@XZ 000000018000ab60 f i core.obj
 0001:00009ba0       ??1NativeHud@kmp@@QEAA@XZ  000000018000aba0 f i core.obj
 0001:00009be0       ??1NetworkClient@kmp@@QEAA@XZ 000000018000abe0 f i core.obj
 0001:00009c20       ??1OrchestratorReport@kmp@@QEAA@XZ 000000018000ac20 f i core.obj
 0001:00009c30       ??1Overlay@kmp@@QEAA@XZ    000000018000ac30 f i core.obj
 0001:00009c90       ??1PDataEnumerator@kmp@@QEAA@XZ 000000018000ac90 f i core.obj
 0001:00009ca0       ??1ParsedPattern@kmp@@QEAA@XZ 000000018000aca0 f i core.obj
 0001:00009cd0       ??1PatternEntry@kmp@@QEAA@XZ 000000018000acd0 f i core.obj
 0001:00009de0       ??1PatternOrchestrator@kmp@@QEAA@XZ 000000018000ade0 f i core.obj
 0001:00009ec0       ??1PlayerController@kmp@@QEAA@XZ 000000018000aec0 f i core.obj
 0001:00009ef0       ??1ScannerEngine@kmp@@QEAA@XZ 000000018000aef0 f i core.obj
 0001:00009f30       ??1ServerQueryResult@kmp@@QEAA@XZ 000000018000af30 f i core.obj
 0001:00009f50       ??1SpawnManager@kmp@@QEAA@XZ 000000018000af50 f i core.obj
 0001:0000a000       ??1SpawnRequest@kmp@@QEAA@XZ 000000018000b000 f i core.obj
 0001:0000a000       ??1XRef@GameString@kmp@@QEAA@XZ 000000018000b000 f i core.obj
 0001:0000a010       ??1StringAnalyzer@kmp@@QEAA@XZ 000000018000b010 f i core.obj
 0001:0000a050       ??1TaskOrchestrator@kmp@@QEAA@XZ 000000018000b050 f i core.obj
 0001:0000a070       ??1VTableInfo@kmp@@QEAA@XZ 000000018000b070 f i core.obj
 0001:0000a150       ??1VTableScanner@kmp@@QEAA@XZ 000000018000b150 f i core.obj
 0001:0000a180       ??1bad_alloc@std@@UEAA@XZ  000000018000b180 f i core.obj
 0001:0000a180       ??1bad_array_new_length@std@@UEAA@XZ 000000018000b180 f i core.obj
 0001:0000a180       ??1bad_cast@std@@UEAA@XZ   000000018000b180 f i command_registry.obj
 0001:0000a180       ??1exception@std@@UEAA@XZ  000000018000b180 f i core.obj
 0001:0000a180       ??1format_error@v11@fmt@@UEAA@XZ 000000018000b180 f i spdlog:bundled_fmtlib_format.obj
 0001:0000a180       ??1system_error@std@@UEAA@XZ 000000018000b180 f i spdlog:bundled_fmtlib_format.obj
 0001:0000a1a0       ??1file_event_handlers@spdlog@@QEAA@XZ 000000018000b1a0 f i core.obj
 0001:0000a240       ??1logger@spdlog@@UEAA@XZ  000000018000b240 f i core.obj
 0001:0000a2a0       ??1thread@std@@QEAA@XZ     000000018000b2a0 f i core.obj
 0001:0000a2c0       ??4?$basic_string@DU?$char_traits@D@std@@V?$allocator@D@2@@std@@QEAAAEAV01@AEBV01@@Z 000000018000b2c0 f i core.obj
 0001:0000a400       ??4SpawnRequest@kmp@@QEAAAEAU01@AEBU01@@Z 000000018000b400 f i core.obj
 0001:0000a850       ??_E?$_Ref_count_obj2@V?$basic_file_sink@Vmutex@std@@@sinks@spdlog@@@std@@UEAAPEAXI@Z 000000018000b850 f i core.obj
 0001:0000a850       ??_G?$_Ref_count_obj2@V?$basic_file_sink@Vmutex@std@@@sinks@spdlog@@@std@@UEAAPEAXI@Z 000000018000b850 f i core.obj
 0001:0000a880       ??_E?$_Ref_count_obj2@Vlogger@spdlog@@@std@@UEAAPEAXI@Z 000000018000b880 f i core.obj
 0001:0000a880       ??_G?$_Ref_count_obj2@Vlogger@spdlog@@@std@@UEAAPEAXI@Z 000000018000b880 f i core.obj
 0001:0000a8b0       ??_E?$basic_file_sink@Vmutex@std@@@sinks@spdlog@@UEAAPEAXI@Z 000000018000b8b0 f i core.obj
 0001:0000a8b0       ??_G?$basic_file_sink@Vmutex@std@@@sinks@spdlog@@UEAAPEAXI@Z 000000018000b8b0 f i core.obj
 0001:0000a900       ??_Ebad_alloc@std@@UEAAPEAXI@Z 000000018000b900 f i core.obj
 0001:0000a900       ??_Ebad_array_new_length@std@@UEAAPEAXI@Z 000000018000b900 f i core.obj
 0001:0000a900       ??_Ebad_cast@std@@UEAAPEAXI@Z 000000018000b900 f i command_registry.obj
 0001:0000a900       ??_Eexception@std@@UEAAPEAXI@Z 000000018000b900 f i core.obj
 0001:0000a900       ??_Eformat_error@v11@fmt@@UEAAPEAXI@Z 000000018000b900 f i spdlog:bundled_fmtlib_format.obj
 0001:0000a900       ??_Eruntime_error@std@@UEAAPEAXI@Z 000000018000b900 f i KenshiMP.Common:config.obj
 0001:0000a900       ??_Gbad_alloc@std@@UEAAPEAXI@Z 000000018000b900 f i core.obj
 0001:0000a900       ??_Gbad_array_new_length@std@@UEAAPEAXI@Z 000000018000b900 f i core.obj
 0001:0000a900       ??_Gbad_cast@std@@UEAAPEAXI@Z 000000018000b900 f i command_registry.obj
 0001:0000a900       ??_Gexception@std@@UEAAPEAXI@Z 000000018000b900 f i core.obj
 0001:0000a900       ??_Gformat_error@v11@fmt@@UEAAPEAXI@Z 000000018000b900 f i spdlog:bundled_fmtlib_format.obj
 0001:0000a900       ??_Gruntime_error@std@@UEAAPEAXI@Z 000000018000b900 f i KenshiMP.Common:config.obj
 0001:0000a950       ??_Elogger@spdlog@@UEAAPEAXI@Z 000000018000b950 f i core.obj
 0001:0000a950       ??_Glogger@spdlog@@UEAAPEAXI@Z 000000018000b950 f i core.obj
 0001:0000a9d0       ?ApplyRemotePositions@Core@kmp@@AEAAXXZ 000000018000b9d0 f   core.obj
 0001:0000ac10       ?BackgroundInterpolate@Core@kmp@@AEAAXXZ 000000018000bc10 f   core.obj
 0001:0000aee0       ?BackgroundReadEntities@Core@kmp@@AEAAXXZ 000000018000bee0 f   core.obj
 0001:0000b7f0       ?Compress@Quat@kmp@@QEBAIXZ 000000018000c7f0 f i core.obj
 0001:0000b9e0       ?Get@Core@kmp@@SAAEAV12@XZ 000000018000c9e0 f   core.obj
 0001:0000ba60       ?HandleHostTeleport@Core@kmp@@AEAAXXZ 000000018000ca60 f   core.obj
 0001:0000c340       ?HandleSpawnQueue@Core@kmp@@AEAAXXZ 000000018000d340 f   core.obj
 0001:0000d8e0       ?InitHooks@Core@kmp@@AEAA_NXZ 000000018000e8e0 f   core.obj
 0001:0000e2a0       ?InitScanner@Core@kmp@@AEAA_NXZ 000000018000f2a0 f   core.obj
 0001:0000f5b0       ?Initialize@Core@kmp@@QEAA_NXZ 00000001800105b0 f   core.obj
 0001:00011350       ?NetworkThreadFunc@Core@kmp@@AEAAXXZ 0000000180012350 f   core.obj
 0001:00011530       ?OnGameLoaded@Core@kmp@@QEAAXXZ 0000000180012530 f   core.obj
 0001:00012dc0       ?OnGameTick@Core@kmp@@QEAAXM@Z 0000000180013dc0 f   core.obj
 0001:00013dc0       ?PollLocalPositions@Core@kmp@@AEAAXXZ 0000000180014dc0 f   core.obj
 0001:00014550       ?SendExistingEntitiesToServer@Core@kmp@@QEAAXXZ 0000000180015550 f   core.obj
 0001:000152e0       ?Shutdown@Core@kmp@@QEAAXXZ 00000001800162e0 f   core.obj
 0001:00015630       ?TeleportToNearestRemotePlayer@Core@kmp@@QEAA_NXZ 0000000180016630 f   core.obj
 0001:00016650       ?WriteRaw@PacketWriter@kmp@@QEAAXPEBX_K@Z 0000000180017650 f i core.obj
 0001:00016760       ?_Assign_grow@?$_Hash_vec@V?$allocator@V?$_List_unchecked_const_iterator@V?$_List_val@U?$_List_simple_types@I@std@@@std@@U_Iterator_base0@2@@std@@@std@@@std@@QEAAX_KV?$_List_unchecked_const_iterator@V?$_List_val@U?$_List_simple_types@I@std@@@std@@U_Iterator_base0@2@@2@@Z 0000000180017760 f i packet_handler.obj
 0001:00016760       ?_Assign_grow@?$_Hash_vec@V?$allocator@V?$_List_unchecked_const_iterator@V?$_List_val@U?$_List_simple_types@PEAX@std@@@std@@U_Iterator_base0@2@@std@@@std@@@std@@QEAAX_KV?$_List_unchecked_const_iterator@V?$_List_val@U?$_List_simple_types@PEAX@std@@@std@@U_Iterator_base0@2@@2@@Z 0000000180017760 f i ai_hooks.obj
 0001:00016760       ?_Assign_grow@?$_Hash_vec@V?$allocator@V?$_List_unchecked_const_iterator@V?$_List_val@U?$_List_simple_types@_K@std@@@std@@U_Iterator_base0@2@@std@@@std@@@std@@QEAAX_KV?$_List_unchecked_const_iterator@V?$_List_val@U?$_List_simple_types@_K@std@@@std@@U_Iterator_base0@2@@2@@Z 0000000180017760 f i KenshiMP.Scanner:string_analyzer.obj
 0001:00016760       ?_Assign_grow@?$_Hash_vec@V?$allocator@V?$_List_unchecked_iterator@V?$_List_val@U?$_List_simple_types@U?$pair@$$CBDV?$unique_ptr@Vcustom_flag_formatter@spdlog@@U?$default_delete@Vcustom_flag_formatter@spdlog@@@std@@@std@@@std@@@std@@@std@@@std@@@std@@@std@@QEAAX_KV?$_List_unchecked_iterator@V?$_List_val@U?$_List_simple_types@U?$pair@$$CBDV?$unique_ptr@Vcustom_flag_formatter@spdlog@@U?$default_delete@Vcustom_flag_formatter@spdlog@@@std@@@std@@@std@@@std@@@std@@@2@@Z 0000000180017760 f i spdlog:spdlog.obj
 0001:00016760       ?_Assign_grow@?$_Hash_vec@V?$allocator@V?$_List_unchecked_iterator@V?$_List_val@U?$_List_simple_types@U?$pair@$$CBIH@std@@@std@@@std@@@std@@@std@@@std@@QEAAX_KV?$_List_unchecked_iterator@V?$_List_val@U?$_List_simple_types@U?$pair@$$CBIH@std@@@std@@@std@@@2@@Z 0000000180017760 f i entity_hooks.obj
 0001:00016760       ?_Assign_grow@?$_Hash_vec@V?$allocator@V?$_List_unchecked_iterator@V?$_List_val@U?$_List_simple_types@U?$pair@$$CBV?$basic_string@DU?$char_traits@D@std@@V?$allocator@D@2@@std@@PEAPEAX@std@@@std@@@std@@@std@@@std@@@std@@QEAAX_KV?$_List_unchecked_iterator@V?$_List_val@U?$_List_simple_types@U?$pair@$$CBV?$basic_string@DU?$char_traits@D@std@@V?$allocator@D@2@@std@@PEAPEAX@std@@@std@@@std@@@2@@Z 0000000180017760 f i core.obj
 0001:00016760       ?_Assign_grow@?$_Hash_vec@V?$allocator@V?$_List_unchecked_iterator@V?$_List_val@U?$_List_simple_types@U?$pair@$$CBV?$basic_string@DU?$char_traits@D@std@@V?$allocator@D@2@@std@@UCommandDef@kmp@@@std@@@std@@@std@@@std@@@std@@@std@@QEAAX_KV?$_List_unchecked_iterator@V?$_List_val@U?$_List_simple_types@U?$pair@$$CBV?$basic_string@DU?$char_traits@D@std@@V?$allocator@D@2@@std@@UCommandDef@kmp@@@std@@@std@@@std@@@2@@Z 0000000180017760 f i command_registry.obj
 0001:00016760       ?_Assign_grow@?$_Hash_vec@V?$allocator@V?$_List_unchecked_iterator@V?$_List_val@U?$_List_simple_types@U?$pair@$$CBV?$basic_string@DU?$char_traits@D@std@@V?$allocator@D@2@@std@@UHookEntry@HookManager@kmp@@@std@@@std@@@std@@@std@@@std@@@std@@QEAAX_KV?$_List_unchecked_iterator@V?$_List_val@U?$_List_simple_types@U?$pair@$$CBV?$basic_string@DU?$char_traits@D@std@@V?$allocator@D@2@@std@@UHookEntry@HookManager@kmp@@@std@@@std@@@std@@@2@@Z 0000000180017760 f i KenshiMP.Scanner:hook_manager.obj
 0001:00016760       ?_Assign_grow@?$_Hash_vec@V?$allocator@V?$_List_unchecked_iterator@V?$_List_val@U?$_List_simple_types@U?$pair@$$CBV?$basic_string@DU?$char_traits@D@std@@V?$allocator@D@2@@std@@V?$shared_ptr@Vlogger@spdlog@@@2@@std@@@std@@@std@@@std@@@std@@@std@@QEAAX_KV?$_List_unchecked_iterator@V?$_List_val@U?$_List_simple_types@U?$pair@$$CBV?$basic_string@DU?$char_traits@D@std@@V?$allocator@D@2@@std@@V?$shared_ptr@Vlogger@spdlog@@@2@@std@@@std@@@std@@@2@@Z 0000000180017760 f i spdlog:spdlog.obj
 0001:00016760       ?_Assign_grow@?$_Hash_vec@V?$allocator@V?$_List_unchecked_iterator@V?$_List_val@U?$_List_simple_types@U?$pair@$$CB_KV?$basic_string@DU?$char_traits@D@std@@V?$allocator@D@2@@std@@@std@@@std@@@std@@@std@@@std@@@std@@QEAAX_KV?$_List_unchecked_iterator@V?$_List_val@U?$_List_simple_types@U?$pair@$$CB_KV?$basic_string@DU?$char_traits@D@std@@V?$allocator@D@2@@std@@@std@@@std@@@std@@@2@@Z 0000000180017760 f i KenshiMP.Scanner:orchestrator.obj
 0001:00016760       ?_Assign_grow@?$_Hash_vec@V?$allocator@V?$_List_unchecked_iterator@V?$_List_val@U?$_List_simple_types@U?$pair@$$CB_K_K@std@@@std@@@std@@@std@@@std@@@std@@QEAAX_KV?$_List_unchecked_iterator@V?$_List_val@U?$_List_simple_types@U?$pair@$$CB_K_K@std@@@std@@@std@@@2@@Z 0000000180017760 f i KenshiMP.Scanner:string_analyzer.obj
 0001:00016830       ?_Assign_grow@?$_Hash_vec@V?$allocator@V?$_List_unchecked_iterator@V?$_List_val@U?$_List_simple_types@U?$pair@QEAXI@std@@@std@@@std@@@std@@@std@@@std@@QEAAX_KV?$_List_unchecked_iterator@V?$_List_val@U?$_List_simple_types@U?$pair@QEAXI@std@@@std@@@std@@@2@@Z 0000000180017830 f i core.obj
 0001:00016910       ?_Change_array@?$vector@EV?$allocator@E@std@@@std@@AEAAXQEAE_K1@Z 0000000180017910 f i core.obj
 0001:00016a10       ?_Deallocate_for_capacity@?$basic_string@DU?$char_traits@D@std@@V?$allocator@D@2@@std@@CAXAEAV?$allocator@D@2@QEAD_K@Z 0000000180017a10 f i core.obj
 0001:00016a70       ?_Delete_this@?$_Func_impl_no_alloc@V<lambda_6d8c802afd33767f062c3cf8ec64c377>@@XPEBE_KH@std@@EEAAX_N@Z 0000000180017a70 f   packet_handler.obj
 0001:00016a80       ?_Delete_this@?$_Ref_count_obj2@V?$basic_file_sink@Vmutex@std@@@sinks@spdlog@@@std@@EEAAXXZ 0000000180017a80 f i core.obj
 0001:00016a80       ?_Delete_this@?$_Ref_count_obj2@V?$output_string_adapter@DV?$basic_string@DU?$char_traits@D@std@@V?$allocator@D@2@@std@@@detail@json_abi_v3_11_3@nlohmann@@@std@@EEAAXXZ 0000000180017a80 f i KenshiMP.Common:config.obj
 0001:00016a80       ?_Delete_this@?$_Ref_count_obj2@V?$wincolor_stdout_sink@Uconsole_mutex@details@spdlog@@@sinks@spdlog@@@std@@EEAAXXZ 0000000180017a80 f i spdlog:spdlog.obj
 0001:00016a80       ?_Delete_this@?$_Ref_count_obj2@Vlogger@spdlog@@@std@@EEAAXXZ 0000000180017a80 f i core.obj
 0001:00016aa0       ?_Destroy@?$_Ref_count_obj2@V?$basic_file_sink@Vmutex@std@@@sinks@spdlog@@@std@@EEAAXXZ 0000000180017aa0 f i core.obj
 0001:00016ae0       ?_Destroy@?$_Ref_count_obj2@V?$wincolor_stdout_sink@Uconsole_mutex@details@spdlog@@@sinks@spdlog@@@std@@EEAAXXZ 0000000180017ae0 f i spdlog:spdlog.obj
 0001:00016ae0       ?_Destroy@?$_Ref_count_obj2@Vlogger@spdlog@@@std@@EEAAXXZ 0000000180017ae0 f i core.obj
 0001:00016b20       ?_Forced_rehash@?$_Hash@V?$_Umap_traits@V?$basic_string@DU?$char_traits@D@std@@V?$allocator@D@2@@std@@PEAPEAXV?$_Uhash_compare@V?$basic_string@DU?$char_traits@D@std@@V?$allocator@D@2@@std@@U?$hash@V?$basic_string@DU?$char_traits@D@std@@V?$allocator@D@2@@std@@@2@U?$equal_to@V?$basic_string@DU?$char_traits@D@std@@V?$allocator@D@2@@std@@@2@@2@V?$allocator@U?$pair@$$CBV?$basic_string@DU?$char_traits@D@std@@V?$allocator@D@2@@std@@PEAPEAX@std@@@2@$0A@@std@@@std@@IEAAX_K@Z 0000000180017b20 f i core.obj
 0001:00016de0       ?_Get@?$_Func_impl_no_alloc@V<lambda_6d8c802afd33767f062c3cf8ec64c377>@@XPEBE_KH@std@@EEBAPEBXXZ 0000000180017de0 f   packet_handler.obj
 0001:00016df0       ?_Get_deleter@_Ref_count_base@std@@UEBAPEAXAEBVtype_info@@@Z 0000000180017df0 f i core.obj
 0001:00016df0       __scrt_stub_for_is_c_termination_complete 0000000180017df0 f i MSVCRT:ucrt_stubs.obj
 0001:00016df0       _is_c_termination_complete 0000000180017df0 f i MSVCRT:ucrt_stubs.obj
 0001:00016e00       ?_Growmap@?$deque@USpawnRequest@kmp@@V?$allocator@USpawnRequest@kmp@@@std@@@std@@AEAAX_K@Z 0000000180017e00 f i core.obj
 0001:00016fd0       ?_Swap@?$_Func_class@XIPEAX@std@@IEAAXAEAV12@@Z 0000000180017fd0 f i core.obj
 0001:00016fd0       ?_Swap@?$_Func_class@XPEBE_KH@std@@IEAAXAEAV12@@Z 0000000180017fd0 f i packet_handler.obj
 0001:00017140       ?_Throw_bad_array_new_length@std@@YAXXZ 0000000180018140 f i core.obj
 0001:00017140       ?__scrt_throw_std_bad_array_new_length@@YAXXZ 0000000180018140 f i MSVCRT:throw_bad_alloc.obj
 0001:00017160       ??1?$vector@DV?$allocator@D@std@@@std@@QEAA@XZ 0000000180018160 f i KenshiMP.Common:config.obj
 0001:00017160       ?_Tidy@?$vector@EV?$allocator@E@std@@@std@@AEAAXXZ 0000000180018160 f i core.obj
 0001:000171d0       ?_Tidy@?$vector@UGameString@kmp@@V?$allocator@UGameString@kmp@@@std@@@std@@AEAAXXZ 00000001800181d0 f i core.obj
 0001:00017360       ?_Tidy@?$vector@UPatternComponent@kmp@@V?$allocator@UPatternComponent@kmp@@@std@@@std@@AEAAXXZ 0000000180018360 f i core.obj
 0001:00017440       ?_Tidy@?$vector@UPatternEntry@kmp@@V?$allocator@UPatternEntry@kmp@@@std@@@std@@AEAAXXZ 0000000180018440 f i core.obj
 0001:00017620       ?_Tidy@?$vector@UVTableInfo@kmp@@V?$allocator@UVTableInfo@kmp@@@std@@@std@@AEAAXXZ 0000000180018620 f i core.obj
 0001:000177d0       ?_Tidy@?$vector@V?$basic_string@DU?$char_traits@D@std@@V?$allocator@D@2@@std@@V?$allocator@V?$basic_string@DU?$char_traits@D@std@@V?$allocator@D@2@@std@@@2@@std@@AEAAXXZ 00000001800187d0 f i core.obj
 0001:00017870       ?_Tidy@?$vector@V?$shared_ptr@Vsink@sinks@spdlog@@@std@@V?$allocator@V?$shared_ptr@Vsink@sinks@spdlog@@@std@@@2@@std@@AEAAXXZ 0000000180018870 f i core.obj
 0001:000178f0       ?_Xlen@?$deque@UChatEntry@NativeHud@kmp@@V?$allocator@UChatEntry@NativeHud@kmp@@@std@@@std@@CAXXZ 00000001800188f0 f i native_hud.obj
 0001:000178f0       ?_Xlen@?$deque@UChatEntry@Overlay@kmp@@V?$allocator@UChatEntry@Overlay@kmp@@@std@@@std@@CAXXZ 00000001800188f0 f i overlay.obj
 0001:000178f0       ?_Xlen@?$deque@ULogEntry@NativeHud@kmp@@V?$allocator@ULogEntry@NativeHud@kmp@@@std@@@std@@CAXXZ 00000001800188f0 f i native_hud.obj
 0001:000178f0       ?_Xlen@?$deque@USpawnRequest@kmp@@V?$allocator@USpawnRequest@kmp@@@std@@@std@@CAXXZ 00000001800188f0 f i core.obj
 0001:000178f0       ?_Xlen@?$deque@UTask@TaskOrchestrator@kmp@@V?$allocator@UTask@TaskOrchestrator@kmp@@@std@@@std@@CAXXZ 00000001800188f0 f i task_orchestrator.obj
 0001:00017910       ?_Xlen_string@std@@YAXXZ   0000000180018910 f i core.obj
 0001:00017930       ?_Xlength@?$vector@DV?$allocator@D@std@@@std@@CAXXZ 0000000180018930 f i KenshiMP.Common:config.obj
 0001:00017930       ?_Xlength@?$vector@EV?$allocator@E@std@@@std@@CAXXZ 0000000180018930 f i core.obj
 0001:00017930       ?_Xlength@?$vector@IV?$allocator@I@std@@@std@@CAXXZ 0000000180018930 f i player_controller.obj
 0001:00017930       ?_Xlength@?$vector@PEAV?$basic_json@Vmap@std@@Vvector@2@V?$basic_string@DU?$char_traits@D@std@@V?$allocator@D@2@@2@_N_J_KNVallocator@2@Uadl_serializer@json_abi_v3_11_3@nlohmann@@V?$vector@EV?$allocator@E@std@@@2@X@json_abi_v3_11_3@nlohmann@@V?$allocator@PEAV?$basic_json@Vmap@std@@Vvector@2@V?$basic_string@DU?$char_traits@D@std@@V?$allocator@D@2@@2@_N_J_KNVallocator@2@Uadl_serializer@json_abi_v3_11_3@nlohmann@@V?$vector@EV?$allocator@E@std@@@2@X@json_abi_v3_11_3@nlohmann@@@std@@@std@@CAXXZ 0000000180018930 f i KenshiMP.Common:config.obj
 0001:00017930       ?_Xlength@?$vector@PEBUCommandDef@kmp@@V?$allocator@PEBUCommandDef@kmp@@@std@@@std@@CAXXZ 0000000180018930 f i command_registry.obj
 0001:00017930       ?_Xlength@?$vector@PEBUGameString@kmp@@V?$allocator@PEBUGameString@kmp@@@std@@@std@@CAXXZ 0000000180018930 f i KenshiMP.Scanner:string_analyzer.obj
 0001:00017930       ?_Xlength@?$vector@UBatchEntry@kmp@@V?$allocator@UBatchEntry@kmp@@@std@@@std@@CAXXZ 0000000180018930 f i KenshiMP.Scanner:orchestrator.obj
 0001:00017930       ?_Xlength@?$vector@UCachedCharacter@entity_hooks@kmp@@V?$allocator@UCachedCharacter@entity_hooks@kmp@@@std@@@std@@CAXXZ 0000000180018930 f i entity_hooks.obj
 0001:00017930       ?_Xlength@?$vector@UCachedEntityPos@kmp@@V?$allocator@UCachedEntityPos@kmp@@@std@@@std@@CAXXZ 0000000180018930 f i core.obj
 0001:00017930       ?_Xlength@?$vector@UCachedRemoteResult@kmp@@V?$allocator@UCachedRemoteResult@kmp@@@std@@@std@@CAXXZ 0000000180018930 f i core.obj
 0001:00017930       ?_Xlength@?$vector@UCallEdge@kmp@@V?$allocator@UCallEdge@kmp@@@std@@@std@@CAXXZ 0000000180018930 f i KenshiMP.Scanner:call_graph.obj
 0001:00017930       ?_Xlength@?$vector@UFunctionEntry@kmp@@V?$allocator@UFunctionEntry@kmp@@@std@@@std@@CAXXZ 0000000180018930 f i KenshiMP.Scanner:pdata_enumerator.obj
 0001:00017930       ?_Xlength@?$vector@UFunctionSignature@kmp@@V?$allocator@UFunctionSignature@kmp@@@std@@@std@@CAXXZ 0000000180018930 f i core.obj
 0001:00017930       ?_Xlength@?$vector@UGameString@kmp@@V?$allocator@UGameString@kmp@@@std@@@std@@CAXXZ 0000000180018930 f i KenshiMP.Scanner:string_analyzer.obj
 0001:00017930       ?_Xlength@?$vector@UHookDiag@kmp@@V?$allocator@UHookDiag@kmp@@@std@@@std@@CAXXZ 0000000180018930 f i KenshiMP.Scanner:hook_manager.obj
 0001:00017930       ?_Xlength@?$vector@ULabeledFunction@kmp@@V?$allocator@ULabeledFunction@kmp@@@std@@@std@@CAXXZ 0000000180018930 f i KenshiMP.Scanner:string_analyzer.obj
 0001:00017930       ?_Xlength@?$vector@UPESection@kmp@@V?$allocator@UPESection@kmp@@@std@@@std@@CAXXZ 0000000180018930 f i KenshiMP.Scanner:scanner_engine.obj
 0001:00017930       ?_Xlength@?$vector@UPatternEntry@kmp@@V?$allocator@UPatternEntry@kmp@@@std@@@std@@CAXXZ 0000000180018930 f i KenshiMP.Scanner:orchestrator.obj
 0001:00017930       ?_Xlength@?$vector@UPendingQuery@ServerQueryClient@kmp@@V?$allocator@UPendingQuery@ServerQueryClient@kmp@@@std@@@std@@CAXXZ 0000000180018930 f i server_query.obj
 0001:00017930       ?_Xlength@?$vector@UPlayerInfo@kmp@@V?$allocator@UPlayerInfo@kmp@@@std@@@std@@CAXXZ 0000000180018930 f i overlay.obj
 0001:00017930       ?_Xlength@?$vector@URemotePlayerState@kmp@@V?$allocator@URemotePlayerState@kmp@@@std@@@std@@CAXXZ 0000000180018930 f i player_controller.obj
 0001:00017930       ?_Xlength@?$vector@UScanRegion@ScannerEngine@kmp@@V?$allocator@UScanRegion@ScannerEngine@kmp@@@std@@@std@@CAXXZ 0000000180018930 f i KenshiMP.Scanner:scanner_engine.obj
 0001:00017930       ?_Xlength@?$vector@UServerQueryResult@kmp@@V?$allocator@UServerQueryResult@kmp@@@std@@@std@@CAXXZ 0000000180018930 f i server_query.obj
 0001:00017930       ?_Xlength@?$vector@UVTableInfo@kmp@@V?$allocator@UVTableInfo@kmp@@@std@@@std@@CAXXZ 0000000180018930 f i KenshiMP.Scanner:vtable_scanner.obj
 0001:00017930       ?_Xlength@?$vector@UVTableSlot@kmp@@V?$allocator@UVTableSlot@kmp@@@std@@@std@@CAXXZ 0000000180018930 f i KenshiMP.Scanner:vtable_scanner.obj
 0001:00017930       ?_Xlength@?$vector@UXRef@GameString@kmp@@V?$allocator@UXRef@GameString@kmp@@@std@@@std@@CAXXZ 0000000180018930 f i KenshiMP.Scanner:string_analyzer.obj
 0001:00017930       ?_Xlength@?$vector@V?$basic_json@Vmap@std@@Vvector@2@V?$basic_string@DU?$char_traits@D@std@@V?$allocator@D@2@@2@_N_J_KNVallocator@2@Uadl_serializer@json_abi_v3_11_3@nlohmann@@V?$vector@EV?$allocator@E@std@@@2@X@json_abi_v3_11_3@nlohmann@@V?$allocator@V?$basic_json@Vmap@std@@Vvector@2@V?$basic_string@DU?$char_traits@D@std@@V?$allocator@D@2@@2@_N_J_KNVallocator@2@Uadl_serializer@json_abi_v3_11_3@nlohmann@@V?$vector@EV?$allocator@E@std@@@2@X@json_abi_v3_11_3@nlohmann@@@std@@@std@@CAXXZ 0000000180018930 f i KenshiMP.Common:config.obj
 0001:00017930       ?_Xlength@?$vector@V?$basic_string@DU?$char_traits@D@std@@V?$allocator@D@2@@std@@V?$allocator@V?$basic_string@DU?$char_traits@D@std@@V?$allocator@D@2@@std@@@2@@std@@CAXXZ 0000000180018930 f i core.obj
 0001:00017930       ?_Xlength@?$vector@V?$shared_ptr@Vsink@sinks@spdlog@@@std@@V?$allocator@V?$shared_ptr@Vsink@sinks@spdlog@@@std@@@2@@std@@CAXXZ 0000000180018930 f i core.obj
 0001:00017930       ?_Xlength@?$vector@V?$unique_ptr@Vflag_formatter@details@spdlog@@U?$default_delete@Vflag_formatter@details@spdlog@@@std@@@std@@V?$allocator@V?$unique_ptr@Vflag_formatter@details@spdlog@@U?$default_delete@Vflag_formatter@details@spdlog@@@std@@@std@@@2@@std@@CAXXZ 0000000180018930 f i spdlog:spdlog.obj
 0001:00017930       ?_Xlength@?$vector@Vlog_msg_buffer@details@spdlog@@V?$allocator@Vlog_msg_buffer@details@spdlog@@@std@@@std@@CAXXZ 0000000180018930 f i spdlog:spdlog.obj
 0001:00017930       ?_Xlength@?$vector@Vthread@std@@V?$allocator@Vthread@std@@@2@@std@@CAXXZ 0000000180018930 f i task_orchestrator.obj
 0001:00017930       ?_Xlength@?$vector@_KV?$allocator@_K@std@@@std@@CAXXZ 0000000180018930 f i game_character.obj
 0001:00017970       ?_Xran@?$_String_val@U?$_Simple_types@D@std@@@std@@SAXXZ 0000000180018970 f i core.obj
 0001:00017990       ?append@?$basic_string@DU?$char_traits@D@std@@V?$allocator@D@2@@std@@QEAAAEAV12@QEBD_K@Z 0000000180018990 f i core.obj
 0001:00017b10       ?assign@?$basic_string@DU?$char_traits@D@std@@V?$allocator@D@2@@std@@QEAAAEAV12@QEBD_K@Z 0000000180018b10 f i core.obj
 0001:00017c30       ?check_arg_id@?$parse_context@D@v11@fmt@@QEAAXH@Z 0000000180018c30 f i core.obj
 0001:00017c50       ?check_char_specs@detail@v11@fmt@@YA_NAEBUformat_specs@23@@Z 0000000180018c50 f i core.obj
 0001:00017ca0       ?deallocate@?$allocator@D@std@@QEAAXQEAD_K@Z 0000000180018ca0 f i core.obj
 0001:00017d00       ?deallocate@?$allocator@I@std@@QEAAXQEAI_K@Z 0000000180018d00 f i core.obj
 0001:00017d60       ?deallocate@?$allocator@V?$_List_unchecked_const_iterator@V?$_List_val@U?$_List_simple_types@I@std@@@std@@U_Iterator_base0@2@@std@@@std@@QEAAXQEAV?$_List_unchecked_const_iterator@V?$_List_val@U?$_List_simple_types@I@std@@@std@@U_Iterator_base0@2@@2@_K@Z 0000000180018d60 f i packet_handler.obj
 0001:00017d60       ?deallocate@?$allocator@V?$_List_unchecked_const_iterator@V?$_List_val@U?$_List_simple_types@PEAX@std@@@std@@U_Iterator_base0@2@@std@@@std@@QEAAXQEAV?$_List_unchecked_const_iterator@V?$_List_val@U?$_List_simple_types@PEAX@std@@@std@@U_Iterator_base0@2@@2@_K@Z 0000000180018d60 f i ai_hooks.obj
 0001:00017d60       ?deallocate@?$allocator@V?$_List_unchecked_const_iterator@V?$_List_val@U?$_List_simple_types@_K@std@@@std@@U_Iterator_base0@2@@std@@@std@@QEAAXQEAV?$_List_unchecked_const_iterator@V?$_List_val@U?$_List_simple_types@_K@std@@@std@@U_Iterator_base0@2@@2@_K@Z 0000000180018d60 f i KenshiMP.Scanner:string_analyzer.obj
 0001:00017d60       ?deallocate@?$allocator@V?$_List_unchecked_iterator@V?$_List_val@U?$_List_simple_types@U?$pair@$$CBDV?$unique_ptr@Vcustom_flag_formatter@spdlog@@U?$default_delete@Vcustom_flag_formatter@spdlog@@@std@@@std@@@std@@@std@@@std@@@std@@@std@@QEAAXQEAV?$_List_unchecked_iterator@V?$_List_val@U?$_List_simple_types@U?$pair@$$CBDV?$unique_ptr@Vcustom_flag_formatter@spdlog@@U?$default_delete@Vcustom_flag_formatter@spdlog@@@std@@@std@@@std@@@std@@@std@@@2@_K@Z 0000000180018d60 f i spdlog:spdlog.obj
 0001:00017d60       ?deallocate@?$allocator@V?$_List_unchecked_iterator@V?$_List_val@U?$_List_simple_types@U?$pair@$$CBIH@std@@@std@@@std@@@std@@@std@@QEAAXQEAV?$_List_unchecked_iterator@V?$_List_val@U?$_List_simple_types@U?$pair@$$CBIH@std@@@std@@@std@@@2@_K@Z 0000000180018d60 f i entity_hooks.obj
 0001:00017d60       ?deallocate@?$allocator@V?$_List_unchecked_iterator@V?$_List_val@U?$_List_simple_types@U?$pair@$$CBIUEntityInfo@kmp@@@std@@@std@@@std@@@std@@@std@@QEAAXQEAV?$_List_unchecked_iterator@V?$_List_val@U?$_List_simple_types@U?$pair@$$CBIUEntityInfo@kmp@@@std@@@std@@@std@@@2@_K@Z 0000000180018d60 f i core.obj
 0001:00017d60       ?deallocate@?$allocator@V?$_List_unchecked_iterator@V?$_List_val@U?$_List_simple_types@U?$pair@$$CBIUEntityInterpState@Interpolation@kmp@@@std@@@std@@@std@@@std@@@std@@QEAAXQEAV?$_List_unchecked_iterator@V?$_List_val@U?$_List_simple_types@U?$pair@$$CBIUEntityInterpState@Interpolation@kmp@@@std@@@std@@@std@@@2@_K@Z 0000000180018d60 f i core.obj
 0001:00017d60       ?deallocate@?$allocator@V?$_List_unchecked_iterator@V?$_List_val@U?$_List_simple_types@U?$pair@$$CBIURemotePlayerState@kmp@@@std@@@std@@@std@@@std@@@std@@QEAAXQEAV?$_List_unchecked_iterator@V?$_List_val@U?$_List_simple_types@U?$pair@$$CBIURemotePlayerState@kmp@@@std@@@std@@@std@@@2@_K@Z 0000000180018d60 f i core.obj
 0001:00017d60       ?deallocate@?$allocator@V?$_List_unchecked_iterator@V?$_List_val@U?$_List_simple_types@U?$pair@$$CBV?$basic_string@DU?$char_traits@D@std@@V?$allocator@D@2@@std@@PEAPEAX@std@@@std@@@std@@@std@@@std@@QEAAXQEAV?$_List_unchecked_iterator@V?$_List_val@U?$_List_simple_types@U?$pair@$$CBV?$basic_string@DU?$char_traits@D@std@@V?$allocator@D@2@@std@@PEAPEAX@std@@@std@@@std@@@2@_K@Z 0000000180018d60 f i core.obj
 0001:00017d60       ?deallocate@?$allocator@V?$_List_unchecked_iterator@V?$_List_val@U?$_List_simple_types@U?$pair@$$CBV?$basic_string@DU?$char_traits@D@std@@V?$allocator@D@2@@std@@PEAX@std@@@std@@@std@@@std@@@std@@QEAAXQEAV?$_List_unchecked_iterator@V?$_List_val@U?$_List_simple_types@U?$pair@$$CBV?$basic_string@DU?$char_traits@D@std@@V?$allocator@D@2@@std@@PEAX@std@@@std@@@std@@@2@_K@Z 0000000180018d60 f i core.obj
 0001:00017d60       ?deallocate@?$allocator@V?$_List_unchecked_iterator@V?$_List_val@U?$_List_simple_types@U?$pair@$$CBV?$basic_string@DU?$char_traits@D@std@@V?$allocator@D@2@@std@@UCommandDef@kmp@@@std@@@std@@@std@@@std@@@std@@QEAAXQEAV?$_List_unchecked_iterator@V?$_List_val@U?$_List_simple_types@U?$pair@$$CBV?$basic_string@DU?$char_traits@D@std@@V?$allocator@D@2@@std@@UCommandDef@kmp@@@std@@@std@@@std@@@2@_K@Z 0000000180018d60 f i command_registry.obj
 0001:00017d60       ?deallocate@?$allocator@V?$_List_unchecked_iterator@V?$_List_val@U?$_List_simple_types@U?$pair@$$CBV?$basic_string@DU?$char_traits@D@std@@V?$allocator@D@2@@std@@UHookEntry@HookManager@kmp@@@std@@@std@@@std@@@std@@@std@@QEAAXQEAV?$_List_unchecked_iterator@V?$_List_val@U?$_List_simple_types@U?$pair@$$CBV?$basic_string@DU?$char_traits@D@std@@V?$allocator@D@2@@std@@UHookEntry@HookManager@kmp@@@std@@@std@@@std@@@2@_K@Z 0000000180018d60 f i KenshiMP.Scanner:hook_manager.obj
 0001:00017d60       ?deallocate@?$allocator@V?$_List_unchecked_iterator@V?$_List_val@U?$_List_simple_types@U?$pair@$$CBV?$basic_string@DU?$char_traits@D@std@@V?$allocator@D@2@@std@@UScanResult@kmp@@@std@@@std@@@std@@@std@@@std@@QEAAXQEAV?$_List_unchecked_iterator@V?$_List_val@U?$_List_simple_types@U?$pair@$$CBV?$basic_string@DU?$char_traits@D@std@@V?$allocator@D@2@@std@@UScanResult@kmp@@@std@@@std@@@std@@@2@_K@Z 0000000180018d60 f i core.obj
 0001:00017d60       ?deallocate@?$allocator@V?$_List_unchecked_iterator@V?$_List_val@U?$_List_simple_types@U?$pair@$$CBV?$basic_string@DU?$char_traits@D@std@@V?$allocator@D@2@@std@@V?$shared_ptr@Vlogger@spdlog@@@2@@std@@@std@@@std@@@std@@@std@@QEAAXQEAV?$_List_unchecked_iterator@V?$_List_val@U?$_List_simple_types@U?$pair@$$CBV?$basic_string@DU?$char_traits@D@std@@V?$allocator@D@2@@std@@V?$shared_ptr@Vlogger@spdlog@@@2@@std@@@std@@@std@@@2@_K@Z 0000000180018d60 f i spdlog:spdlog.obj
 0001:00017d60       ?deallocate@?$allocator@V?$_List_unchecked_iterator@V?$_List_val@U?$_List_simple_types@U?$pair@$$CBV?$basic_string@DU?$char_traits@D@std@@V?$allocator@D@2@@std@@W4level_enum@level@spdlog@@@std@@@std@@@std@@@std@@@std@@QEAAXQEAV?$_List_unchecked_iterator@V?$_List_val@U?$_List_simple_types@U?$pair@$$CBV?$basic_string@DU?$char_traits@D@std@@V?$allocator@D@2@@std@@W4level_enum@level@spdlog@@@std@@@std@@@std@@@2@_K@Z 0000000180018d60 f i spdlog:spdlog.obj
 0001:00017d60       ?deallocate@?$allocator@V?$_List_unchecked_iterator@V?$_List_val@U?$_List_simple_types@U?$pair@$$CBV?$basic_string@DU?$char_traits@D@std@@V?$allocator@D@2@@std@@_K@std@@@std@@@std@@@std@@@std@@QEAAXQEAV?$_List_unchecked_iterator@V?$_List_val@U?$_List_simple_types@U?$pair@$$CBV?$basic_string@DU?$char_traits@D@std@@V?$allocator@D@2@@std@@_K@std@@@std@@@std@@@2@_K@Z 0000000180018d60 f i core.obj
 0001:00017d60       ?deallocate@?$allocator@V?$_List_unchecked_iterator@V?$_List_val@U?$_List_simple_types@U?$pair@$$CB_KUCallNode@kmp@@@std@@@std@@@std@@@std@@@std@@QEAAXQEAV?$_List_unchecked_iterator@V?$_List_val@U?$_List_simple_types@U?$pair@$$CB_KUCallNode@kmp@@@std@@@std@@@std@@@2@_K@Z 0000000180018d60 f i core.obj
 0001:00017d60       ?deallocate@?$allocator@V?$_List_unchecked_iterator@V?$_List_val@U?$_List_simple_types@U?$pair@$$CB_KV?$basic_string@DU?$char_traits@D@std@@V?$allocator@D@2@@std@@@std@@@std@@@std@@@std@@@std@@QEAAXQEAV?$_List_unchecked_iterator@V?$_List_val@U?$_List_simple_types@U?$pair@$$CB_KV?$basic_string@DU?$char_traits@D@std@@V?$allocator@D@2@@std@@@std@@@std@@@std@@@2@_K@Z 0000000180018d60 f i KenshiMP.Scanner:orchestrator.obj
 0001:00017d60       ?deallocate@?$allocator@V?$_List_unchecked_iterator@V?$_List_val@U?$_List_simple_types@U?$pair@$$CB_KV?$vector@_KV?$allocator@_K@std@@@std@@@std@@@std@@@std@@@std@@@std@@QEAAXQEAV?$_List_unchecked_iterator@V?$_List_val@U?$_List_simple_types@U?$pair@$$CB_KV?$vector@_KV?$allocator@_K@std@@@std@@@std@@@std@@@std@@@2@_K@Z 0000000180018d60 f i core.obj
 0001:00017d60       ?deallocate@?$allocator@V?$_List_unchecked_iterator@V?$_List_val@U?$_List_simple_types@U?$pair@$$CB_K_K@std@@@std@@@std@@@std@@@std@@QEAAXQEAV?$_List_unchecked_iterator@V?$_List_val@U?$_List_simple_types@U?$pair@$$CB_K_K@std@@@std@@@std@@@2@_K@Z 0000000180018d60 f i KenshiMP.Scanner:string_analyzer.obj
 0001:00017d60       ?deallocate@?$allocator@V?$_List_unchecked_iterator@V?$_List_val@U?$_List_simple_types@U?$pair@QEAXI@std@@@std@@@std@@@std@@@std@@QEAAXQEAV?$_List_unchecked_iterator@V?$_List_val@U?$_List_simple_types@U?$pair@QEAXI@std@@@std@@@std@@@2@_K@Z 0000000180018d60 f i core.obj
 0001:00017dc0       ?deallocate@?$allocator@V?$basic_string@DU?$char_traits@D@std@@V?$allocator@D@2@@std@@@std@@QEAAXQEAV?$basic_string@DU?$char_traits@D@std@@V?$allocator@D@2@@2@_K@Z 0000000180018dc0 f i core.obj
 0001:00017e20       ?deallocate@?$allocator@Vlog_msg_buffer@details@spdlog@@@std@@QEAAXQEAVlog_msg_buffer@details@spdlog@@_K@Z 0000000180018e20 f i core.obj
 0001:00017e80       ?grow@?$basic_memory_buffer@D$0BPE@U?$allocator@D@detail@v11@fmt@@@v11@fmt@@CAXAEAV?$buffer@D@detail@23@_K@Z 0000000180018e80 f i spdlog:bundled_fmtlib_format.obj
 0001:00017e80       ?grow@?$basic_memory_buffer@D$0PK@U?$allocator@D@detail@v11@fmt@@@v11@fmt@@CAXAEAV?$buffer@D@detail@23@_K@Z 0000000180018e80 f i core.obj
 0001:00017f50       ?join@thread@std@@QEAAXXZ  0000000180018f50 f i core.obj
 0001:00017fc0       ?lock@_Mutex_base@std@@QEAAXXZ 0000000180018fc0 f i core.obj
 0001:00018000       ?log@logger@spdlog@@QEAAXUsource_loc@2@W4level_enum@level@2@V?$basic_string_view@D@v11@fmt@@@Z 0000000180019000 f i core.obj
 0001:000180f0       ?next_arg_id@?$parse_context@D@v11@fmt@@QEAAHXZ 00000001800190f0 f i core.obj
 0001:00018120       ?now@steady_clock@chrono@std@@SA?AV?$time_point@Usteady_clock@chrono@std@@V?$duration@_JU?$ratio@$00$0DLJKMKAA@@std@@@23@@23@XZ 0000000180019120 f i core.obj
 0001:00018200       ?push@?$queue@USpawnRequest@kmp@@V?$deque@USpawnRequest@kmp@@V?$allocator@USpawnRequest@kmp@@@std@@@std@@@std@@QEAAXAEBUSpawnRequest@kmp@@@Z 0000000180019200 f i core.obj
 0001:000182f0       ?to_string@std@@YA?AV?$basic_string@DU?$char_traits@D@std@@V?$allocator@D@2@@1@H@Z 00000001800192f0 f i core.obj
 0001:000183c0       ?to_string@std@@YA?AV?$basic_string@DU?$char_traits@D@std@@V?$allocator@D@2@@1@I@Z 00000001800193c0 f i core.obj
 0001:00018450       ?to_string@std@@YA?AV?$basic_string@DU?$char_traits@D@std@@V?$allocator@D@2@@1@_K@Z 0000000180019450 f i core.obj
 0001:000184e0       ?what@exception@std@@UEBAPEBDXZ 00000001800194e0 f i core.obj
 0001:00018500       __local_stdio_printf_options 0000000180019500 f i core.obj
 0001:00018510       ??$log_@AEAHAEAH@logger@spdlog@@IEAAXUsource_loc@1@W4level_enum@level@1@V?$basic_string_view@D@v11@fmt@@AEAH3@Z 0000000180019510 f i render_hooks.obj
 0001:00018510       ??$log_@AEBHH@logger@spdlog@@IEAAXUsource_loc@1@W4level_enum@level@1@V?$basic_string_view@D@v11@fmt@@AEBH$$QEAH@Z 0000000180019510 f i entity_hooks.obj
 0001:00018510       ??$log_@HAEAH@logger@spdlog@@IEAAXUsource_loc@1@W4level_enum@level@1@V?$basic_string_view@D@v11@fmt@@$$QEAHAEAH@Z 0000000180019510 f i overlay.obj
 0001:00018990       ?Install@render_hooks@kmp@@YA_NXZ 0000000180019990 f   render_hooks.obj
 0001:000194a0       ??$_Emplace_reallocate@AEBUCachedCharacter@entity_hooks@kmp@@@?$vector@UCachedCharacter@entity_hooks@kmp@@V?$allocator@UCachedCharacter@entity_hooks@kmp@@@std@@@std@@AEAAPEAUCachedCharacter@entity_hooks@kmp@@QEAU234@AEBU234@@Z 000000018001a4a0 f i entity_hooks.obj
 0001:00019620       ??$_Try_emplace@AEBI$$V@?$_Hash@V?$_Umap_traits@IHV?$_Uhash_compare@IU?$hash@I@std@@U?$equal_to@I@2@@std@@V?$allocator@U?$pair@$$CBIH@std@@@2@$0A@@std@@@std@@IEAA?AU?$pair@PEAU?$_List_node@U?$pair@$$CBIH@std@@PEAX@std@@_N@1@AEBI@Z 000000018001a620 f i entity_hooks.obj
 0001:000198b0       ??$error@AEAI@spdlog@@YAXU?$fstring@AEAI@v11@fmt@@AEAI@Z 000000018001a8b0 f i entity_hooks.obj
 0001:00019950       ??$log_@AEAHAEAM@logger@spdlog@@IEAAXUsource_loc@1@W4level_enum@level@1@V?$basic_string_view@D@v11@fmt@@AEAHAEAM@Z 000000018001a950 f i entity_hooks.obj
 0001:00019b40       ??$log_@AEAHAEAMAEAMAEAMAEAMAEAMAEAM@logger@spdlog@@IEAAXUsource_loc@1@W4level_enum@level@1@V?$basic_string_view@D@v11@fmt@@AEAHAEAM44444@Z 000000018001ab40 f i entity_hooks.obj
 0001:00019df0       ??$log_@AEAH_J@logger@spdlog@@IEAAXUsource_loc@1@W4level_enum@level@1@V?$basic_string_view@D@v11@fmt@@AEAH$$QEA_J@Z 000000018001adf0 f i entity_hooks.obj
 0001:00019fe0       ??$log_@AEAHAEA_K_K@logger@spdlog@@IEAAXUsource_loc@1@W4level_enum@level@1@V?$basic_string_view@D@v11@fmt@@AEAHAEA_K$$QEA_K@Z 000000018001afe0 f i spawn_manager.obj
 0001:00019fe0       ??$log_@AEAH_K_K@logger@spdlog@@IEAAXUsource_loc@1@W4level_enum@level@1@V?$basic_string_view@D@v11@fmt@@AEAH$$QEA_K4@Z 000000018001afe0 f i entity_hooks.obj
 0001:0001a1f0       ??$log_@AEAI@logger@spdlog@@IEAAXUsource_loc@1@W4level_enum@level@1@V?$basic_string_view@D@v11@fmt@@AEAI@Z 000000018001b1f0 f i entity_hooks.obj
 0001:0001a1f0       ??$log_@K@logger@spdlog@@IEAAXUsource_loc@1@W4level_enum@level@1@V?$basic_string_view@D@v11@fmt@@$$QEAK@Z 000000018001b1f0 f i native_menu.obj
 0001:0001a3c0       ??$log_@AEAIAEAHAEBHAEAI@logger@spdlog@@IEAAXUsource_loc@1@W4level_enum@level@1@V?$basic_string_view@D@v11@fmt@@AEAIAEAHAEBH3@Z 000000018001b3c0 f i entity_hooks.obj
 0001:0001a5f0       ??$log_@AEA_KAEAI@logger@spdlog@@IEAAXUsource_loc@1@W4level_enum@level@1@V?$basic_string_view@D@v11@fmt@@AEA_KAEAI@Z 000000018001b5f0 f i entity_hooks.obj
 0001:0001a5f0       ??$log_@_KAEAI@logger@spdlog@@IEAAXUsource_loc@1@W4level_enum@level@1@V?$basic_string_view@D@v11@fmt@@$$QEA_KAEAI@Z 000000018001b5f0 f i game_tick_hooks.obj
 0001:0001a7e0       ??$log_@AEA_KAEAIAEAHAEAMAEAMAEAM@logger@spdlog@@IEAAXUsource_loc@1@W4level_enum@level@1@V?$basic_string_view@D@v11@fmt@@AEA_KAEAIAEAHAEAM66@Z 000000018001b7e0 f i entity_hooks.obj
 0001:0001aa70       ??$log_@AEA_KAEAIAEAMAEAMAEAM@logger@spdlog@@IEAAXUsource_loc@1@W4level_enum@level@1@V?$basic_string_view@D@v11@fmt@@AEA_KAEAIAEAM55@Z 000000018001ba70 f i entity_hooks.obj
 0001:0001ace0       ??$log_@AEA_KAEAHAEA_K@logger@spdlog@@IEAAXUsource_loc@1@W4level_enum@level@1@V?$basic_string_view@D@v11@fmt@@AEA_KAEAH3@Z 000000018001bce0 f i KenshiMP.Scanner:scanner.obj
 0001:0001ace0       ??$log_@AEB_KAEAHAEA_K@logger@spdlog@@IEAAXUsource_loc@1@W4level_enum@level@1@V?$basic_string_view@D@v11@fmt@@AEB_KAEAHAEA_K@Z 000000018001bce0 f i entity_hooks.obj
 0001:0001aef0       ??$log_@HAEAIAEAIHAEBHAEAMAEAMAEAM@logger@spdlog@@IEAAXUsource_loc@1@W4level_enum@level@1@V?$basic_string_view@D@v11@fmt@@$$QEAHAEAI43AEBHAEAM66@Z 000000018001bef0 f i entity_hooks.obj
 0001:0001b1a0       ??$log_@HH_N@logger@spdlog@@IEAAXUsource_loc@1@W4level_enum@level@1@V?$basic_string_view@D@v11@fmt@@$$QEAH3$$QEA_N@Z 000000018001c1a0 f i entity_hooks.obj
 0001:0001b3b0       ??$log_@H_N@logger@spdlog@@IEAAXUsource_loc@1@W4level_enum@level@1@V?$basic_string_view@D@v11@fmt@@$$QEAH$$QEA_N@Z 000000018001c3b0 f i entity_hooks.obj
 0001:0001b5a0       ??$log_@_NAEA_N@logger@spdlog@@IEAAXUsource_loc@1@W4level_enum@level@1@V?$basic_string_view@D@v11@fmt@@$$QEA_NAEA_N@Z 000000018001c5a0 f i entity_hooks.obj
 0001:0001b5a0       ??$log_@_N_N@logger@spdlog@@IEAAXUsource_loc@1@W4level_enum@level@1@V?$basic_string_view@D@v11@fmt@@$$QEA_N3@Z 000000018001c5a0 f i movement_hooks.obj
 0001:0001b790       ??$sprintf_s@$0BAA@@@YAHAEAY0BAA@DPEBDZZ 000000018001c790 f i entity_hooks.obj
 0001:0001b7f0       ??1?$_Alloc_construct_ptr@V?$allocator@U?$_List_node@IPEAX@std@@@std@@@std@@QEAA@XZ 000000018001c7f0 f i packet_handler.obj
 0001:0001b7f0       ??1?$_Alloc_construct_ptr@V?$allocator@U?$_List_node@PEAXPEAX@std@@@std@@@std@@QEAA@XZ 000000018001c7f0 f i ai_hooks.obj
 0001:0001b7f0       ??1?$_Alloc_construct_ptr@V?$allocator@U?$_List_node@U?$pair@$$CBIH@std@@PEAX@std@@@std@@@std@@QEAA@XZ 000000018001c7f0 f i entity_hooks.obj
 0001:0001b7f0       ??1?$_Alloc_construct_ptr@V?$allocator@U?$_List_node@_KPEAX@std@@@std@@@std@@QEAA@XZ 000000018001c7f0 f i KenshiMP.Scanner:string_analyzer.obj
 0001:0001b7f0       ??1?$_List_node_emplace_op2@V?$allocator@U?$_List_node@IPEAX@std@@@std@@@std@@QEAA@XZ 000000018001c7f0 f i packet_handler.obj
 0001:0001b7f0       ??1?$_List_node_emplace_op2@V?$allocator@U?$_List_node@PEAXPEAX@std@@@std@@@std@@QEAA@XZ 000000018001c7f0 f i ai_hooks.obj
 0001:0001b7f0       ??1?$_List_node_emplace_op2@V?$allocator@U?$_List_node@U?$pair@$$CBIH@std@@PEAX@std@@@std@@@std@@QEAA@XZ 000000018001c7f0 f i entity_hooks.obj
 0001:0001b7f0       ??1?$_List_node_emplace_op2@V?$allocator@U?$_List_node@_KPEAX@std@@@std@@@std@@QEAA@XZ 000000018001c7f0 f i KenshiMP.Scanner:string_analyzer.obj
 0001:0001b7f0       ??1?$unique_ptr@V?$vector@V?$basic_json@Vmap@std@@Vvector@2@V?$basic_string@DU?$char_traits@D@std@@V?$allocator@D@2@@2@_N_J_KNVallocator@2@Uadl_serializer@json_abi_v3_11_3@nlohmann@@V?$vector@EV?$allocator@E@std@@@2@X@json_abi_v3_11_3@nlohmann@@V?$allocator@V?$basic_json@Vmap@std@@Vvector@2@V?$basic_string@DU?$char_traits@D@std@@V?$allocator@D@2@@2@_N_J_KNVallocator@2@Uadl_serializer@json_abi_v3_11_3@nlohmann@@V?$vector@EV?$allocator@E@std@@@2@X@json_abi_v3_11_3@nlohmann@@@std@@@std@@V<lambda_38212ff42c5248cf4b715acba70bdfb3>@@@std@@QEAA@XZ 000000018001c7f0 f i KenshiMP.Common:config.obj
 0001:0001b7f0       ??1?$unique_ptr@V?$vector@V?$basic_json@Vmap@std@@Vvector@2@V?$basic_string@DU?$char_traits@D@std@@V?$allocator@D@2@@2@_N_J_KNVallocator@2@Uadl_serializer@json_abi_v3_11_3@nlohmann@@V?$vector@EV?$allocator@E@std@@@2@X@json_abi_v3_11_3@nlohmann@@V?$allocator@V?$basic_json@Vmap@std@@Vvector@2@V?$basic_string@DU?$char_traits@D@std@@V?$allocator@D@2@@2@_N_J_KNVallocator@2@Uadl_serializer@json_abi_v3_11_3@nlohmann@@V?$vector@EV?$allocator@E@std@@@2@X@json_abi_v3_11_3@nlohmann@@@std@@@std@@V<lambda_8cbeb5f80d78f104a8487b485468877b>@@@std@@QEAA@XZ 000000018001c7f0 f i KenshiMP.Common:config.obj
 0001:0001b810       ??1?$list@IV?$allocator@I@std@@@std@@QEAA@XZ 000000018001c810 f i packet_handler.obj
 0001:0001b810       ??1?$list@PEAXV?$allocator@PEAX@std@@@std@@QEAA@XZ 000000018001c810 f i ai_hooks.obj
 0001:0001b810       ??1?$list@U?$pair@$$CBIH@std@@V?$allocator@U?$pair@$$CBIH@std@@@2@@std@@QEAA@XZ 000000018001c810 f i entity_hooks.obj
 0001:0001b810       ??1?$list@_KV?$allocator@_K@std@@@std@@QEAA@XZ 000000018001c810 f i KenshiMP.Scanner:string_analyzer.obj
 0001:0001b870       ??4?$basic_string@DU?$char_traits@D@std@@V?$allocator@D@2@@std@@QEAAAEAV01@$$QEAV01@@Z 000000018001c870 f i entity_hooks.obj
 0001:0001b910       ?GetCapturedFaction@entity_hooks@kmp@@YA_KXZ 000000018001c910 f   entity_hooks.obj
 0001:0001b920       ?GetInPlaceSpawnCount@entity_hooks@kmp@@YAHXZ 000000018001c920 f   entity_hooks.obj
 0001:0001b930       ?GetLoadingCharacters@entity_hooks@kmp@@YAAEBV?$vector@UCachedCharacter@entity_hooks@kmp@@V?$allocator@UCachedCharacter@entity_hooks@kmp@@@std@@@std@@XZ 000000018001c930 f   entity_hooks.obj
 0001:0001d3b0       ?Install@entity_hooks@kmp@@YA_NXZ 000000018001e3b0 f   entity_hooks.obj
 0001:0001d7e0       ?ResumeForNetwork@entity_hooks@kmp@@YAXXZ 000000018001e7e0 f   entity_hooks.obj
 0001:0001dd90       ?SetDirectSpawnBypass@entity_hooks@kmp@@YAX_N@Z 000000018001ed90 f   entity_hooks.obj
 0001:0001e090       ?_Forced_rehash@?$_Hash@V?$_Umap_traits@IHV?$_Uhash_compare@IU?$hash@I@std@@U?$equal_to@I@2@@std@@V?$allocator@U?$pair@$$CBIH@std@@@2@$0A@@std@@@std@@IEAAX_K@Z 000000018001f090 f i entity_hooks.obj
 0001:0001e250       ?_Unchecked_erase@?$_Hash@V?$_Umap_traits@IHV?$_Uhash_compare@IU?$hash@I@std@@U?$equal_to@I@2@@std@@V?$allocator@U?$pair@$$CBIH@std@@@2@$0A@@std@@@std@@AEAAPEAU?$_List_node@U?$pair@$$CBIH@std@@PEAX@2@PEAU32@QEAU32@@Z 000000018001f250 f i entity_hooks.obj
 0001:0001e410       ?clear@?$_Hash@V?$_Umap_traits@IHV?$_Uhash_compare@IU?$hash@I@std@@U?$equal_to@I@2@@std@@V?$allocator@U?$pair@$$CBIH@std@@@2@$0A@@std@@@std@@QEAAXXZ 000000018001f410 f i entity_hooks.obj
 0001:0001e4c0       ??$log_@AEAH_KAEAMAEAMAEAMAEAH@logger@spdlog@@IEAAXUsource_loc@1@W4level_enum@level@1@V?$basic_string_view@D@v11@fmt@@AEAH$$QEA_KAEAM553@Z 000000018001f4c0 f i movement_hooks.obj
 0001:0001e750       ??$log_@AEA_KAEAH@logger@spdlog@@IEAAXUsource_loc@1@W4level_enum@level@1@V?$basic_string_view@D@v11@fmt@@AEA_KAEAH@Z 000000018001f750 f i game_character.obj
 0001:0001e750       ??$log_@_KAEAH@logger@spdlog@@IEAAXUsource_loc@1@W4level_enum@level@1@V?$basic_string_view@D@v11@fmt@@$$QEA_KAEAH@Z 000000018001f750 f i movement_hooks.obj
 0001:0001ee90       ?Install@movement_hooks@kmp@@YA_NXZ 000000018001fe90 f   movement_hooks.obj
 0001:0001f0c0       ?SafeCall_Void_PtrFFFI@kmp@@YA_NPEAX0MMMHPEAUHookHealth@1@@Z 00000001800200c0 f i movement_hooks.obj
 0001:0001f120       ??$log_@AEAIAEAI@logger@spdlog@@IEAAXUsource_loc@1@W4level_enum@level@1@V?$basic_string_view@D@v11@fmt@@AEAI3@Z 0000000180020120 f i combat_hooks.obj
 0001:0001f310       ??$Write@H@Memory@kmp@@SA_N_KAEBH@Z 0000000180020310 f i game_inventory.obj
 0001:0001f310       ??$Write@M@Memory@kmp@@SA_N_KAEBM@Z 0000000180020310 f i time_hooks.obj
 0001:0001f3a0       ??$log_@AEA_N@logger@spdlog@@IEAAXUsource_loc@1@W4level_enum@level@1@V?$basic_string_view@D@v11@fmt@@AEA_N@Z 00000001800203a0 f i native_menu.obj
 0001:0001f3a0       ??$log_@_N@logger@spdlog@@IEAAXUsource_loc@1@W4level_enum@level@1@V?$basic_string_view@D@v11@fmt@@$$QEA_N@Z 00000001800203a0 f i time_hooks.obj
 0001:0001f570       ?GetGameSpeed@time_hooks@kmp@@YAMXZ 0000000180020570 f   time_hooks.obj
 0001:0001f5b0       ?GetTimeOfDay@time_hooks@kmp@@YAMXZ 00000001800205b0 f   time_hooks.obj
 0001:0001f5f0       ?HasTimeManager@time_hooks@kmp@@YA_NXZ 00000001800205f0 f   time_hooks.obj
 0001:0001f7e0       ?Install@time_hooks@kmp@@YA_NXZ 00000001800207e0 f   time_hooks.obj
 0001:0001fa90       ?SetServerTime@time_hooks@kmp@@YAXMM@Z 0000000180020a90 f   time_hooks.obj
 0001:0001faf0       ?WriteTimeOfDay@time_hooks@kmp@@YA_NM@Z 0000000180020af0 f   time_hooks.obj
 0001:0001fb20       ??$log_@AEAHAEA_KAEAH@logger@spdlog@@IEAAXUsource_loc@1@W4level_enum@level@1@V?$basic_string_view@D@v11@fmt@@AEAHAEA_K3@Z 0000000180020b20 f i game_tick_hooks.obj
 0001:0001fd30       ??$log_@AEAIAEAIAEAMAEAMAEAM@logger@spdlog@@IEAAXUsource_loc@1@W4level_enum@level@1@V?$basic_string_view@D@v11@fmt@@AEAI3AEAM44@Z 0000000180020d30 f i game_tick_hooks.obj
 0001:0001ffa0       ?HasPendingSpawns@SpawnManager@kmp@@QEBA_NXZ 0000000180020fa0 f i game_tick_hooks.obj
 0001:00020c70       ?Install@game_tick_hooks@kmp@@YA_NXZ 0000000180021c70 f   game_tick_hooks.obj
 0001:000211e0       ??$log_@AEAHAEAI@logger@spdlog@@IEAAXUsource_loc@1@W4level_enum@level@1@V?$basic_string_view@D@v11@fmt@@AEAHAEAI@Z 00000001800221e0 f i inventory_hooks.obj
 0001:000213d0       ?SetLoading@inventory_hooks@kmp@@YAX_N@Z 00000001800223d0 f   inventory_hooks.obj
 0001:000213e0       ??$_Try_emplace@AEBQEAX$$V@?$_Hash@V?$_Umap_traits@PEAXIV?$_Uhash_compare@PEAXU?$hash@PEAX@std@@U?$equal_to@PEAX@2@@std@@V?$allocator@U?$pair@QEAXI@std@@@2@$0A@@std@@@std@@IEAA?AU?$pair@PEAU?$_List_node@U?$pair@QEAXI@std@@PEAX@std@@_N@1@AEBQEAX@Z 00000001800223e0 f i squad_hooks.obj
 0001:000216b0       ??$log_@_KAEA_K_KPEBD@logger@spdlog@@IEAAXUsource_loc@1@W4level_enum@level@1@V?$basic_string_view@D@v11@fmt@@$$QEA_KAEA_K3$$QEAPEBD@Z 00000001800226b0 f i squad_hooks.obj
 0001:000218f0       ??$warn@AEAI@spdlog@@YAXU?$fstring@AEAI@v11@fmt@@AEAI@Z 00000001800228f0 f i squad_hooks.obj
 0001:00021990       ??1?$_Alloc_construct_ptr@V?$allocator@U?$_List_node@U?$pair@$$CBDV?$unique_ptr@Vcustom_flag_formatter@spdlog@@U?$default_delete@Vcustom_flag_formatter@spdlog@@@std@@@std@@@std@@PEAX@std@@@std@@@std@@QEAA@XZ 0000000180022990 f i spdlog:spdlog.obj
 0001:00021990       ??1?$_Alloc_construct_ptr@V?$allocator@U?$_List_node@U?$pair@$$CB_K_K@std@@PEAX@std@@@std@@@std@@QEAA@XZ 0000000180022990 f i KenshiMP.Scanner:string_analyzer.obj
 0001:00021990       ??1?$_Alloc_construct_ptr@V?$allocator@U?$_List_node@U?$pair@QEAXI@std@@PEAX@std@@@std@@@std@@QEAA@XZ 0000000180022990 f i squad_hooks.obj
 0001:00021990       ??1?$_List_node_emplace_op2@V?$allocator@U?$_List_node@U?$pair@$$CB_K_K@std@@PEAX@std@@@std@@@std@@QEAA@XZ 0000000180022990 f i KenshiMP.Scanner:string_analyzer.obj
 0001:00021990       ??1?$_List_node_emplace_op2@V?$allocator@U?$_List_node@U?$pair@QEAXI@std@@PEAX@std@@@std@@@std@@QEAA@XZ 0000000180022990 f i squad_hooks.obj
 0001:00021990       ??1?$unique_ptr@V?$basic_string@DU?$char_traits@D@std@@V?$allocator@D@2@@std@@V<lambda_b0f3e07ce0c6aa68c7f02af622b5dfd9>@@@std@@QEAA@XZ 0000000180022990 f i KenshiMP.Common:config.obj
 0001:00021990       ??1?$unique_ptr@V?$basic_string@DU?$char_traits@D@std@@V?$allocator@D@2@@std@@V<lambda_b80b0368d4e138138bc13f565657e887>@@@std@@QEAA@XZ 0000000180022990 f i KenshiMP.Common:config.obj
 0001:000219b0       ?AddCharacterToLocalSquad@squad_hooks@kmp@@YA_NPEAX@Z 00000001800229b0 f   squad_hooks.obj
 0001:00022300       ?Install@squad_hooks@kmp@@YA_NXZ 0000000180023300 f   squad_hooks.obj
 0001:000226d0       ?OnSquadNetIdAssigned@squad_hooks@kmp@@YAXI@Z 00000001800236d0 f   squad_hooks.obj
 0001:00022990       ?SetLoading@squad_hooks@kmp@@YAX_N@Z 0000000180023990 f   squad_hooks.obj
 0001:000229a0       ?_Forced_rehash@?$_Hash@V?$_Umap_traits@PEAXIV?$_Uhash_compare@PEAXU?$hash@PEAX@std@@U?$equal_to@PEAX@2@@std@@V?$allocator@U?$pair@QEAXI@std@@@2@$0A@@std@@@std@@IEAAX_K@Z 00000001800239a0 f i squad_hooks.obj
 0001:00022b90       ?_Tidy@?$deque@PEAXV?$allocator@PEAX@std@@@std@@AEAAXXZ 0000000180023b90 f i squad_hooks.obj
 0001:00022c60       ?GetOriginal@faction_hooks@kmp@@YAP6AXPEAX0M@ZXZ 0000000180023c60 f   faction_hooks.obj
 0001:00022c70       ?SetLoading@faction_hooks@kmp@@YAX_N@Z 0000000180023c70 f   faction_hooks.obj
 0001:00022c80       ?SetServerSourced@faction_hooks@kmp@@YAX_N@Z 0000000180023c80 f   faction_hooks.obj
 0001:00022c90       ??$Read@UQuat@kmp@@@Memory@kmp@@SA_N_KAEAUQuat@1@@Z 0000000180023c90 f i building_hooks.obj
 0001:00022ca0       ?SetLoading@building_hooks@kmp@@YAX_N@Z 0000000180023ca0 f   building_hooks.obj
 0001:00022cb0       ??$debug@AEAI@spdlog@@YAXU?$fstring@AEAI@v11@fmt@@AEAI@Z 0000000180023cb0 f i ai_hooks.obj
 0001:00022d50       ??$emplace@AEBQEAX@?$_Hash@V?$_Uset_traits@PEAXV?$_Uhash_compare@PEAXU?$hash@PEAX@std@@U?$equal_to@PEAX@2@@std@@V?$allocator@PEAX@2@$0A@@std@@@std@@QEAA?AU?$pair@V?$_List_const_iterator@V?$_List_val@U?$_List_simple_types@PEAX@std@@@std@@@std@@_N@1@AEBQEAX@Z 0000000180023d50 f i ai_hooks.obj
 0001:00022d50       ??$emplace@AEB_K@?$_Hash@V?$_Uset_traits@_KV?$_Uhash_compare@_KU?$hash@_K@std@@U?$equal_to@_K@2@@std@@V?$allocator@_K@2@$0A@@std@@@std@@QEAA?AU?$pair@V?$_List_const_iterator@V?$_List_val@U?$_List_simple_types@_K@std@@@std@@@std@@_N@1@AEB_K@Z 0000000180023d50 f i KenshiMP.Scanner:string_analyzer.obj
 0001:00023450       ?Install@ai_hooks@kmp@@YA_NXZ 0000000180024450 f   ai_hooks.obj
 0001:000238b0       ?IsRemoteControlled@ai_hooks@kmp@@YA_NPEAX@Z 00000001800248b0 f   ai_hooks.obj
 0001:000239e0       ?MarkRemoteControlled@ai_hooks@kmp@@YAXPEAX@Z 00000001800249e0 f   ai_hooks.obj
 0001:00023b00       ?_Forced_rehash@?$_Hash@V?$_Uset_traits@PEAXV?$_Uhash_compare@PEAXU?$hash@PEAX@std@@U?$equal_to@PEAX@2@@std@@V?$allocator@PEAX@2@$0A@@std@@@std@@IEAAX_K@Z 0000000180024b00 f i ai_hooks.obj
 0001:00023b00       ?_Forced_rehash@?$_Hash@V?$_Uset_traits@_KV?$_Uhash_compare@_KU?$hash@_K@std@@U?$equal_to@_K@2@@std@@V?$allocator@_K@2@$0A@@std@@@std@@IEAAX_K@Z 0000000180024b00 f i KenshiMP.Scanner:string_analyzer.obj
 0001:00023cf0       ??$Read@D@Memory@kmp@@SA_N_KAEAD@Z 0000000180024cf0 f i game_character.obj
 0001:00023cf0       ??$Read@E@Memory@kmp@@SA_N_KAEAE@Z 0000000180024cf0 f i game_character.obj
 0001:00023d00       ??$Read@U<unnamed-type-v>@?1??ReadVec3@Memory@kmp@@SA_N_KAEAM11@Z@@Memory@kmp@@SA_N_KAEAU<unnamed-type-v>@?1??ReadVec3@01@SA_N0AEAM11@Z@@Z 0000000180024d00 f i game_character.obj
 0001:00023d20       ??$Write@D@Memory@kmp@@SA_N_KAEBD@Z 0000000180024d20 f i game_character.obj
 0001:00023d20       ??$Write@E@Memory@kmp@@SA_N_KAEBE@Z 0000000180024d20 f i game_character.obj
 0001:00023d20       ??$Write@_N@Memory@kmp@@SA_N_KAEB_N@Z 0000000180024d20 f i packet_handler.obj
 0001:00023db0       ??$Write@_K@Memory@kmp@@SA_N_KAEB_K@Z 0000000180024db0 f i game_character.obj
 0001:00023e40       ??$_Emplace_reallocate@AEB_K@?$vector@_KV?$allocator@_K@std@@@std@@AEAAPEA_KQEA_KAEB_K@Z 0000000180024e40 f i game_character.obj
 0001:00023e40       ??$_Emplace_reallocate@PEBUGameString@kmp@@@?$vector@PEBUGameString@kmp@@V?$allocator@PEBUGameString@kmp@@@std@@@std@@AEAAPEAPEBUGameString@kmp@@QEAPEBU23@$$QEAPEBU23@@Z 0000000180024e40 f i KenshiMP.Scanner:string_analyzer.obj
 0001:00023fc0       ??$log_@AEA_NAEA_KAEAH@logger@spdlog@@IEAAXUsource_loc@1@W4level_enum@level@1@V?$basic_string_view@D@v11@fmt@@AEA_NAEA_KAEAH@Z 0000000180024fc0 f i game_character.obj
 0001:000241d0       ??$warn@AEA_K@spdlog@@YAXU?$fstring@AEA_K@v11@fmt@@AEA_K@Z 00000001800251d0 f i game_character.obj
 0001:00024270       ??0CharacterIterator@game@kmp@@QEAA@XZ 0000000180025270 f   game_character.obj
 0001:00024290       ?GetAnimState@CharacterAccessor@game@kmp@@QEBAEXZ 0000000180025290 f   game_character.obj
 0001:00024300       ?GetFactionPtr@CharacterAccessor@game@kmp@@QEBA_KXZ 0000000180025300 f   game_character.obj
 0001:00024370       ?GetInventoryPtr@CharacterAccessor@game@kmp@@QEBA_KXZ 0000000180025370 f   game_character.obj
 0001:000243e0       ?GetMoveSpeed@CharacterAccessor@game@kmp@@QEBAMXZ 00000001800253e0 f   game_character.obj
 0001:00024450       ?GetName@CharacterAccessor@game@kmp@@QEBA?AV?$basic_string@DU?$char_traits@D@std@@V?$allocator@D@2@@std@@XZ 0000000180025450 f   game_character.obj
 0001:00024730       ?GetOffsets@game@kmp@@YAAEAUGameOffsets@12@XZ 0000000180025730 f   game_character.obj
 0001:00024770       ?GetPosition@CharacterAccessor@game@kmp@@QEBA?AUVec3@3@XZ 0000000180025770 f   game_character.obj
 0001:00024810       ?GetRotation@CharacterAccessor@game@kmp@@QEBA?AUQuat@3@XZ 0000000180025810 f   game_character.obj
 0001:00024880       ?GetSquadPtr@CharacterAccessor@game@kmp@@QEBA_KXZ 0000000180025880 f   game_character.obj
 0001:00024b20       ?GetStatsPtr@CharacterAccessor@game@kmp@@QEBA_KXZ 0000000180025b20 f   game_character.obj
 0001:00024b70       ?HasNext@CharacterIterator@game@kmp@@QEBA_NXZ 0000000180025b70 f   game_character.obj
 0001:00024b80       ?InitOffsetsFromScanner@game@kmp@@YAXXZ 0000000180025b80 f   game_character.obj
 0001:00024cd0       ?Next@CharacterIterator@game@kmp@@QEAA?AVCharacterAccessor@23@XZ 0000000180025cd0 f   game_character.obj
 0001:00025080       ?ProbePlayerControlledOffset@game@kmp@@YAX_K0@Z 0000000180026080 f   game_character.obj
 0001:000252c0       ?ProcessDeferredAnimClassProbes@game@kmp@@YA_NXZ 00000001800262c0 f   game_character.obj
 0001:00025640       ?Reset@CharacterIterator@game@kmp@@QEAAXXZ 0000000180026640 f   game_character.obj
 0001:00025b00       ?ScheduleDeferredAnimClassProbe@game@kmp@@YAX_K@Z 0000000180026b00 f   game_character.obj
 0001:00025c80       ?SetGameSetPositionFn@game@kmp@@YAXPEAX@Z 0000000180026c80 f   game_character.obj
 0001:00025c90       ?SetResolvedGameWorld@game@kmp@@YAX_K@Z 0000000180026c90 f   game_character.obj
 0001:00025d30       ?SetResolvedPlayerBase@game@kmp@@YAX_K@Z 0000000180026d30 f   game_character.obj
 0001:00025d40       ?WriteFaction@CharacterAccessor@game@kmp@@QEAA_N_K@Z 0000000180026d40 f   game_character.obj
 0001:00025db0       ?WriteName@CharacterAccessor@game@kmp@@QEAA_NAEBV?$basic_string@DU?$char_traits@D@std@@V?$allocator@D@2@@std@@@Z 0000000180026db0 f   game_character.obj
 0001:00026010       ?WritePlayerControlled@game@kmp@@YA_N_K_N@Z 0000000180027010 f   game_character.obj
 0001:00026120       ?WritePosition@CharacterAccessor@game@kmp@@QEAA_NAEBUVec3@3@@Z 0000000180027120 f   game_character.obj
 0001:00026590       ??$log_@AEAHAEAHAEAHAEA_K@logger@spdlog@@IEAAXUsource_loc@1@W4level_enum@level@1@V?$basic_string_view@D@v11@fmt@@AEAH33AEA_K@Z 0000000180027590 f i game_squad.obj
 0001:000267c0       ?AddItem@InventoryAccessor@game@kmp@@QEAA_NIH@Z 00000001800277c0 f   game_inventory.obj
 0001:00026930       ?GetItemCount@InventoryAccessor@game@kmp@@QEBAHXZ 0000000180027930 f   game_inventory.obj
 0001:00026990       ?RemoveItem@InventoryAccessor@game@kmp@@QEAA_NIH@Z 0000000180027990 f   game_inventory.obj
 0001:00026b00       ?SetEquipment@InventoryAccessor@game@kmp@@QEAA_NW4EquipSlot@3@I@Z 0000000180027b00 f   game_inventory.obj
 0001:00026e10       ??$_Assign_counted_range@PEAE@?$vector@EV?$allocator@E@std@@@std@@AEAAXPEAE_K@Z 0000000180027e10 f i KenshiMP.Scanner:orchestrator.obj
 0001:00026e10       ??$_Assign_counted_range@PEBE@?$vector@EV?$allocator@E@std@@@std@@AEAAXPEBE_K@Z 0000000180027e10 f i spawn_manager.obj
 0001:00026f70       ??$_Try_emplace@AEBV?$basic_string@DU?$char_traits@D@std@@V?$allocator@D@2@@std@@$$V@?$_Hash@V?$_Umap_traits@V?$basic_string@DU?$char_traits@D@std@@V?$allocator@D@2@@std@@PEAXV?$_Uhash_compare@V?$basic_string@DU?$char_traits@D@std@@V?$allocator@D@2@@std@@U?$hash@V?$basic_string@DU?$char_traits@D@std@@V?$allocator@D@2@@std@@@2@U?$equal_to@V?$basic_string@DU?$char_traits@D@std@@V?$allocator@D@2@@std@@@2@@2@V?$allocator@U?$pair@$$CBV?$basic_string@DU?$char_traits@D@std@@V?$allocator@D@2@@std@@PEAX@std@@@2@$0A@@std@@@std@@IEAA?AU?$pair@PEAU?$_List_node@U?$pair@$$CBV?$basic_string@DU?$char_traits@D@std@@V?$allocator@D@2@@std@@PEAX@std@@PEAX@std@@_N@1@AEBV?$basic_string@DU?$char_traits@D@std@@V?$allocator@D@2@@1@@Z 0000000180027f70 f i spawn_manager.obj
 0001:00026f70       ??$_Try_emplace@AEBV?$basic_string@DU?$char_traits@D@std@@V?$allocator@D@2@@std@@$$V@?$_Hash@V?$_Umap_traits@V?$basic_string@DU?$char_traits@D@std@@V?$allocator@D@2@@std@@_KV?$_Uhash_compare@V?$basic_string@DU?$char_traits@D@std@@V?$allocator@D@2@@std@@U?$hash@V?$basic_string@DU?$char_traits@D@std@@V?$allocator@D@2@@std@@@2@U?$equal_to@V?$basic_string@DU?$char_traits@D@std@@V?$allocator@D@2@@std@@@2@@2@V?$allocator@U?$pair@$$CBV?$basic_string@DU?$char_traits@D@std@@V?$allocator@D@2@@std@@_K@std@@@2@$0A@@std@@@std@@IEAA?AU?$pair@PEAU?$_List_node@U?$pair@$$CBV?$basic_string@DU?$char_traits@D@std@@V?$allocator@D@2@@std@@_K@std@@PEAX@std@@_N@1@AEBV?$basic_string@DU?$char_traits@D@std@@V?$allocator@D@2@@1@@Z 0000000180027f70 f i KenshiMP.Scanner:orchestrator.obj
 0001:00027240       ??$log_@AEAH_KAEAN@logger@spdlog@@IEAAXUsource_loc@1@W4level_enum@level@1@V?$basic_string_view@D@v11@fmt@@AEAH$$QEA_KAEAN@Z 0000000180028240 f i spawn_manager.obj
 0001:00027460       ??$log_@AEAV?$basic_string@DU?$char_traits@D@std@@V?$allocator@D@2@@std@@AEAHAEA_KAEA_K@logger@spdlog@@IEAAXUsource_loc@1@W4level_enum@level@1@V?$basic_string_view@D@v11@fmt@@AEAV?$basic_string@DU?$char_traits@D@std@@V?$allocator@D@2@@std@@AEAHAEA_K5@Z 0000000180028460 f i spawn_manager.obj
 0001:000276b0       ??$log_@AEAV?$basic_string@DU?$char_traits@D@std@@V?$allocator@D@2@@std@@AEAHAEA_KAEA_K_K@logger@spdlog@@IEAAXUsource_loc@1@W4level_enum@level@1@V?$basic_string_view@D@v11@fmt@@AEAV?$basic_string@DU?$char_traits@D@std@@V?$allocator@D@2@@std@@AEAHAEA_K5$$QEA_K@Z 00000001800286b0 f i spawn_manager.obj
 0001:00027920       ??$log_@AEAV?$basic_string@DU?$char_traits@D@std@@V?$allocator@D@2@@std@@AEA_K_K_K@logger@spdlog@@IEAAXUsource_loc@1@W4level_enum@level@1@V?$basic_string_view@D@v11@fmt@@AEAV?$basic_string@DU?$char_traits@D@std@@V?$allocator@D@2@@std@@AEA_K$$QEA_K5@Z 0000000180028920 f i spawn_manager.obj
 0001:00027b70       ??$log_@AEA_KAEA_KAEA_K@logger@spdlog@@IEAAXUsource_loc@1@W4level_enum@level@1@V?$basic_string_view@D@v11@fmt@@AEA_K33@Z 0000000180028b70 f i spawn_manager.obj
 0001:00027b70       ??$log_@AEA_K_KAEA_K@logger@spdlog@@IEAAXUsource_loc@1@W4level_enum@level@1@V?$basic_string_view@D@v11@fmt@@AEA_K$$QEA_K3@Z 0000000180028b70 f i KenshiMP.Scanner:scanner_engine.obj
 0001:00027d80       ??$log_@AEA_N_N_N@logger@spdlog@@IEAAXUsource_loc@1@W4level_enum@level@1@V?$basic_string_view@D@v11@fmt@@AEA_N$$QEA_N4@Z 0000000180028d80 f i spawn_manager.obj
 0001:00027f90       ??$log_@AEAIAEAV?$basic_string@DU?$char_traits@D@std@@V?$allocator@D@2@@std@@@logger@spdlog@@IEAAXUsource_loc@1@W4level_enum@level@1@V?$basic_string_view@D@v11@fmt@@AEAIAEAV?$basic_string@DU?$char_traits@D@std@@V?$allocator@D@2@@std@@@Z 0000000180028f90 f i player_controller.obj
 0001:00027f90       ??$log_@AEBIAEBV?$basic_string@DU?$char_traits@D@std@@V?$allocator@D@2@@std@@@logger@spdlog@@IEAAXUsource_loc@1@W4level_enum@level@1@V?$basic_string_view@D@v11@fmt@@AEBIAEBV?$basic_string@DU?$char_traits@D@std@@V?$allocator@D@2@@std@@@Z 0000000180028f90 f i spawn_manager.obj
 0001:000281a0       ??$log_@AEAV?$basic_string@DU?$char_traits@D@std@@V?$allocator@D@2@@std@@@logger@spdlog@@IEAAXUsource_loc@1@W4level_enum@level@1@V?$basic_string_view@D@v11@fmt@@AEAV?$basic_string@DU?$char_traits@D@std@@V?$allocator@D@2@@std@@@Z 00000001800291a0 f i packet_handler.obj
 0001:000281a0       ??$log_@AEBV?$basic_string@DU?$char_traits@D@std@@V?$allocator@D@2@@std@@@logger@spdlog@@IEAAXUsource_loc@1@W4level_enum@level@1@V?$basic_string_view@D@v11@fmt@@AEBV?$basic_string@DU?$char_traits@D@std@@V?$allocator@D@2@@std@@@Z 00000001800291a0 f i spawn_manager.obj
 0001:00028390       ??$log_@AEAV?$basic_string@DU?$char_traits@D@std@@V?$allocator@D@2@@std@@AEA_K@logger@spdlog@@IEAAXUsource_loc@1@W4level_enum@level@1@V?$basic_string_view@D@v11@fmt@@AEAV?$basic_string@DU?$char_traits@D@std@@V?$allocator@D@2@@std@@AEA_K@Z 0000000180029390 f i KenshiMP.Scanner:orchestrator.obj
 0001:00028390       ??$log_@AEAV?$basic_string@DU?$char_traits@D@std@@V?$allocator@D@2@@std@@AEB_K@logger@spdlog@@IEAAXUsource_loc@1@W4level_enum@level@1@V?$basic_string_view@D@v11@fmt@@AEAV?$basic_string@DU?$char_traits@D@std@@V?$allocator@D@2@@std@@AEB_K@Z 0000000180029390 f i KenshiMP.Scanner:orchestrator.obj
 0001:00028390       ??$log_@AEBV?$basic_string@DU?$char_traits@D@std@@V?$allocator@D@2@@std@@AEA_K@logger@spdlog@@IEAAXUsource_loc@1@W4level_enum@level@1@V?$basic_string_view@D@v11@fmt@@AEBV?$basic_string@DU?$char_traits@D@std@@V?$allocator@D@2@@std@@AEA_K@Z 0000000180029390 f i spawn_manager.obj
 0001:000285a0       ??$log_@AEAPEBDAEA_K@logger@spdlog@@IEAAXUsource_loc@1@W4level_enum@level@1@V?$basic_string_view@D@v11@fmt@@AEAPEBDAEA_K@Z 00000001800295a0 f i KenshiMP.Scanner:patterns.obj
 0001:000285a0       ??$log_@AEAPEBD_K@logger@spdlog@@IEAAXUsource_loc@1@W4level_enum@level@1@V?$basic_string_view@D@v11@fmt@@AEAPEBD$$QEA_K@Z 00000001800295a0 f i mygui_bridge.obj
 0001:000285a0       ??$log_@PEBDAEA_K@logger@spdlog@@IEAAXUsource_loc@1@W4level_enum@level@1@V?$basic_string_view@D@v11@fmt@@$$QEAPEBDAEA_K@Z 00000001800295a0 f i spawn_manager.obj
 0001:000285a0       ??$log_@PEBDAEB_K@logger@spdlog@@IEAAXUsource_loc@1@W4level_enum@level@1@V?$basic_string_view@D@v11@fmt@@$$QEAPEBDAEB_K@Z 00000001800295a0 f i spawn_manager.obj
 0001:000285a0       ??$log_@PEBD_K@logger@spdlog@@IEAAXUsource_loc@1@W4level_enum@level@1@V?$basic_string_view@D@v11@fmt@@$$QEAPEBD$$QEA_K@Z 00000001800295a0 f i spawn_manager.obj
 0001:00028790       ??$log_@_KAEA_KAEAH@logger@spdlog@@IEAAXUsource_loc@1@W4level_enum@level@1@V?$basic_string_view@D@v11@fmt@@$$QEA_KAEA_KAEAH@Z 0000000180029790 f i spawn_manager.obj
 0001:00028790       ??$log_@_K_KH@logger@spdlog@@IEAAXUsource_loc@1@W4level_enum@level@1@V?$basic_string_view@D@v11@fmt@@$$QEA_K3$$QEAH@Z 0000000180029790 f i mygui_bridge.obj
 0001:000289a0       ?GetTemplateCount@SpawnManager@kmp@@QEBA_KXZ 00000001800299a0 f   spawn_manager.obj
 0001:00028a00       ?OnGameCharacterCreated@SpawnManager@kmp@@QEAAXPEAX00@Z 0000000180029a00 f   spawn_manager.obj
 0001:000291f0       ?QueueSpawn@SpawnManager@kmp@@QEAAXAEBUSpawnRequest@2@@Z 000000018002a1f0 f   spawn_manager.obj
 0001:00029310       ?ReadKenshiString@SpawnManager@kmp@@SA?AV?$basic_string@DU?$char_traits@D@std@@V?$allocator@D@2@@std@@_K@Z 000000018002a310 f   spawn_manager.obj
 0001:000294d0       ?ScanGameDataHeap@SpawnManager@kmp@@QEAAXXZ 000000018002a4d0 f   spawn_manager.obj
 0001:0002a110       ?SetPreCallData@SpawnManager@kmp@@QEAAXPEBE_K1@Z 000000018002b110 f   spawn_manager.obj
 0001:0002a260       ?SetSavedRequestStruct@SpawnManager@kmp@@QEAAXPEBE_K@Z 000000018002b260 f   spawn_manager.obj
 0001:0002a380       ?SpawnCharacterDirect@SpawnManager@kmp@@QEAAPEAXPEBUVec3@2@@Z 000000018002b380 f   spawn_manager.obj
 0001:0002a7a0       ?VerifyReadiness@SpawnManager@kmp@@QEBA_NXZ 000000018002b7a0 f   spawn_manager.obj
 0001:0002b1c0       ?_Forced_rehash@?$_Hash@V?$_Umap_traits@V?$basic_string@DU?$char_traits@D@std@@V?$allocator@D@2@@std@@PEAXV?$_Uhash_compare@V?$basic_string@DU?$char_traits@D@std@@V?$allocator@D@2@@std@@U?$hash@V?$basic_string@DU?$char_traits@D@std@@V?$allocator@D@2@@std@@@2@U?$equal_to@V?$basic_string@DU?$char_traits@D@std@@V?$allocator@D@2@@std@@@2@@2@V?$allocator@U?$pair@$$CBV?$basic_string@DU?$char_traits@D@std@@V?$allocator@D@2@@std@@PEAX@std@@@2@$0A@@std@@@std@@IEAAX_K@Z 000000018002c1c0 f i spawn_manager.obj
 0001:0002b1c0       ?_Forced_rehash@?$_Hash@V?$_Umap_traits@V?$basic_string@DU?$char_traits@D@std@@V?$allocator@D@2@@std@@_KV?$_Uhash_compare@V?$basic_string@DU?$char_traits@D@std@@V?$allocator@D@2@@std@@U?$hash@V?$basic_string@DU?$char_traits@D@std@@V?$allocator@D@2@@std@@@2@U?$equal_to@V?$basic_string@DU?$char_traits@D@std@@V?$allocator@D@2@@std@@@2@@2@V?$allocator@U?$pair@$$CBV?$basic_string@DU?$char_traits@D@std@@V?$allocator@D@2@@std@@_K@std@@@2@$0A@@std@@@std@@IEAAX_K@Z 000000018002c1c0 f i KenshiMP.Scanner:orchestrator.obj
 0001:0002b530       ??$_Emplace_reallocate@AEBI@?$vector@IV?$allocator@I@std@@@std@@AEAAPEAIQEAIAEBI@Z 000000018002c530 f i player_controller.obj
 0001:0002b6b0       ??$_Emplace_reallocate@AEBURemotePlayerState@kmp@@@?$vector@URemotePlayerState@kmp@@V?$allocator@URemotePlayerState@kmp@@@std@@@std@@AEAAPEAURemotePlayerState@kmp@@QEAU23@AEBU23@@Z 000000018002c6b0 f i player_controller.obj
 0001:0002b830       ??$_Try_emplace@AEBI$$V@?$_Hash@V?$_Umap_traits@IURemotePlayerState@kmp@@V?$_Uhash_compare@IU?$hash@I@std@@U?$equal_to@I@2@@std@@V?$allocator@U?$pair@$$CBIURemotePlayerState@kmp@@@std@@@4@$0A@@std@@@std@@IEAA?AU?$pair@PEAU?$_List_node@U?$pair@$$CBIURemotePlayerState@kmp@@@std@@PEAX@std@@_N@1@AEBI@Z 000000018002c830 f i player_controller.obj
 0001:0002baf0       ??$_Uninitialized_move@PEAURemotePlayerState@kmp@@V?$allocator@URemotePlayerState@kmp@@@std@@@std@@YAPEAURemotePlayerState@kmp@@QEAU12@0PEAU12@AEAV?$allocator@URemotePlayerState@kmp@@@0@@Z 000000018002caf0 f i player_controller.obj
 0001:0002bbe0       ??$construct@URemotePlayerState@kmp@@AEBU12@@?$_Default_allocator_traits@V?$allocator@URemotePlayerState@kmp@@@std@@@std@@SAXAEAV?$allocator@URemotePlayerState@kmp@@@1@QEAURemotePlayerState@kmp@@AEBU34@@Z 000000018002cbe0 f i player_controller.obj
 0001:0002bcd0       ??$log_@AEAV?$basic_string@DU?$char_traits@D@std@@V?$allocator@D@2@@std@@AEAI_K@logger@spdlog@@IEAAXUsource_loc@1@W4level_enum@level@1@V?$basic_string_view@D@v11@fmt@@AEAV?$basic_string@DU?$char_traits@D@std@@V?$allocator@D@2@@std@@AEAI$$QEA_K@Z 000000018002ccd0 f i player_controller.obj
 0001:0002bf00       ??$log_@AEBV?$basic_string@DU?$char_traits@D@std@@V?$allocator@D@2@@std@@AEAI@logger@spdlog@@IEAAXUsource_loc@1@W4level_enum@level@1@V?$basic_string_view@D@v11@fmt@@AEBV?$basic_string@DU?$char_traits@D@std@@V?$allocator@D@2@@std@@AEAI@Z 000000018002cf00 f i player_controller.obj
 0001:0002c110       ??1?$_Alloc_construct_ptr@V?$allocator@U?$_List_node@U?$pair@$$CBIURemotePlayerState@kmp@@@std@@PEAX@std@@@std@@@std@@QEAA@XZ 000000018002d110 f i player_controller.obj
 0001:0002c130       ??1?$_List_node_emplace_op2@V?$allocator@U?$_List_node@U?$pair@$$CBIURemotePlayerState@kmp@@@std@@PEAX@std@@@std@@@std@@QEAA@XZ 000000018002d130 f i player_controller.obj
 0001:0002c180       ??1?$vector@URemotePlayerState@kmp@@V?$allocator@URemotePlayerState@kmp@@@std@@@std@@QEAA@XZ 000000018002d180 f i player_controller.obj
 0001:0002c250       ??1_Reallocation_guard@?$vector@URemotePlayerState@kmp@@V?$allocator@URemotePlayerState@kmp@@@std@@@std@@QEAA@XZ 000000018002d250 f i player_controller.obj
 0001:0002c2f0       ?GetAllRemotePlayers@PlayerController@kmp@@QEBA?AV?$vector@URemotePlayerState@kmp@@V?$allocator@URemotePlayerState@kmp@@@std@@@std@@XZ 000000018002d2f0 f   player_controller.obj
 0001:0002c570       ?GetPrimaryCharacter@PlayerController@kmp@@QEBAPEAXXZ 000000018002d570 f   player_controller.obj
 0001:0002c650       ?GetRemotePlayer@PlayerController@kmp@@QEBAPEBURemotePlayerState@2@I@Z 000000018002d650 f   player_controller.obj
 0001:0002c750       ?InitializeLocalPlayer@PlayerController@kmp@@QEAAXIAEBV?$basic_string@DU?$char_traits@D@std@@V?$allocator@D@2@@std@@@Z 000000018002d750 f   player_controller.obj
 0001:0002c9b0       ?OnGameWorldLoaded@PlayerController@kmp@@QEAAXXZ 000000018002d9b0 f   player_controller.obj
 0001:0002cc00       ?OnRemoteCharacterSpawned@PlayerController@kmp@@QEAA_NIPEAXI@Z 000000018002dc00 f   player_controller.obj
 0001:0002d480       ?RegisterRemotePlayer@PlayerController@kmp@@QEAAXIAEBV?$basic_string@DU?$char_traits@D@std@@V?$allocator@D@2@@std@@@Z 000000018002e480 f   player_controller.obj
 0001:0002d610       ?RemoveRemotePlayer@PlayerController@kmp@@QEAAXI@Z 000000018002e610 f   player_controller.obj
 0001:0002d8a0       ?Reset@PlayerController@kmp@@QEAAXXZ 000000018002e8a0 f   player_controller.obj
 0001:0002da30       ?_Change_array@?$vector@URemotePlayerState@kmp@@V?$allocator@URemotePlayerState@kmp@@@std@@@std@@AEAAXQEAURemotePlayerState@kmp@@_K1@Z 000000018002ea30 f i player_controller.obj
 0001:0002db30       ?_Forced_rehash@?$_Hash@V?$_Umap_traits@IUEntityInfo@kmp@@V?$_Uhash_compare@IU?$hash@I@std@@U?$equal_to@I@2@@std@@V?$allocator@U?$pair@$$CBIUEntityInfo@kmp@@@std@@@4@$0A@@std@@@std@@IEAAX_K@Z 000000018002eb30 f i entity_registry.obj
 0001:0002db30       ?_Forced_rehash@?$_Hash@V?$_Umap_traits@IUEntityInterpState@Interpolation@kmp@@V?$_Uhash_compare@IU?$hash@I@std@@U?$equal_to@I@2@@std@@V?$allocator@U?$pair@$$CBIUEntityInterpState@Interpolation@kmp@@@std@@@5@$0A@@std@@@std@@IEAAX_K@Z 000000018002eb30 f i interpolation.obj
 0001:0002db30       ?_Forced_rehash@?$_Hash@V?$_Umap_traits@IURemotePlayerState@kmp@@V?$_Uhash_compare@IU?$hash@I@std@@U?$equal_to@I@2@@std@@V?$allocator@U?$pair@$$CBIURemotePlayerState@kmp@@@std@@@4@$0A@@std@@@std@@IEAAX_K@Z 000000018002eb30 f i player_controller.obj
 0001:0002ddc0       ?_Unchecked_erase@?$_Hash@V?$_Umap_traits@IURemotePlayerState@kmp@@V?$_Uhash_compare@IU?$hash@I@std@@U?$equal_to@I@2@@std@@V?$allocator@U?$pair@$$CBIURemotePlayerState@kmp@@@std@@@4@$0A@@std@@@std@@AEAAPEAU?$_List_node@U?$pair@$$CBIURemotePlayerState@kmp@@@std@@PEAX@2@PEAU32@QEAU32@@Z 000000018002edc0 f i player_controller.obj
 0001:0002e000       ?clear@?$_Hash@V?$_Umap_traits@IURemotePlayerState@kmp@@V?$_Uhash_compare@IU?$hash@I@std@@U?$equal_to@I@2@@std@@V?$allocator@U?$pair@$$CBIURemotePlayerState@kmp@@@std@@@4@$0A@@std@@@std@@QEAAXXZ 000000018002f000 f i player_controller.obj
 0001:0002e0d0       ??$error@AEBV?$basic_string@DU?$char_traits@D@std@@V?$allocator@D@2@@std@@AEAG@spdlog@@YAXU?$fstring@AEBV?$basic_string@DU?$char_traits@D@std@@V?$allocator@D@2@@std@@AEAG@v11@fmt@@AEBV?$basic_string@DU?$char_traits@D@std@@V?$allocator@D@2@@std@@AEAG@Z 000000018002f0d0 f i client.obj
 0001:0002e180       ??$info@$$BY0CK@D@spdlog@@YAXAEAY0CK@$$CBD@Z 000000018002f180 f i client.obj
 0001:0002e1b0       ??$info@AEAV?$basic_string@DU?$char_traits@D@std@@V?$allocator@D@2@@std@@AEAG@spdlog@@YAXU?$fstring@AEAV?$basic_string@DU?$char_traits@D@std@@V?$allocator@D@2@@std@@AEAG@v11@fmt@@AEAV?$basic_string@DU?$char_traits@D@std@@V?$allocator@D@2@@std@@AEAG@Z 000000018002f1b0 f i client.obj
 0001:0002e1b0       ??$info@AEBV?$basic_string@DU?$char_traits@D@std@@V?$allocator@D@2@@std@@AEAG@spdlog@@YAXU?$fstring@AEBV?$basic_string@DU?$char_traits@D@std@@V?$allocator@D@2@@std@@AEAG@v11@fmt@@AEBV?$basic_string@DU?$char_traits@D@std@@V?$allocator@D@2@@std@@AEAG@Z 000000018002f1b0 f i client.obj
 0001:0002e260       ??$log_@AEAV?$basic_string@DU?$char_traits@D@std@@V?$allocator@D@2@@std@@AEAG@logger@spdlog@@IEAAXUsource_loc@1@W4level_enum@level@1@V?$basic_string_view@D@v11@fmt@@AEAV?$basic_string@DU?$char_traits@D@std@@V?$allocator@D@2@@std@@AEAG@Z 000000018002f260 f i client.obj
 0001:0002e260       ??$log_@AEBV?$basic_string@DU?$char_traits@D@std@@V?$allocator@D@2@@std@@AEAG@logger@spdlog@@IEAAXUsource_loc@1@W4level_enum@level@1@V?$basic_string_view@D@v11@fmt@@AEBV?$basic_string@DU?$char_traits@D@std@@V?$allocator@D@2@@std@@AEAG@Z 000000018002f260 f i client.obj
 0001:0002e470       ?ConnectAsync@NetworkClient@kmp@@QEAA_NAEBV?$basic_string@DU?$char_traits@D@std@@V?$allocator@D@2@@std@@G@Z 000000018002f470 f   client.obj
 0001:0002e580       ?Disconnect@NetworkClient@kmp@@QEAAXXZ 000000018002f580 f   client.obj
 0001:0002e630       ?GetPing@NetworkClient@kmp@@QEBAIXZ 000000018002f630 f   client.obj
 0001:0002e650       ?Initialize@NetworkClient@kmp@@QEAA_NXZ 000000018002f650 f   client.obj
 0001:0002e8f0       ?Send@NetworkClient@kmp@@AEAAXPEBE_KHI@Z 000000018002f8f0 f   client.obj
 0001:0002e9b0       ?SendReliable@NetworkClient@kmp@@QEAAXPEBE_K@Z 000000018002f9b0 f   client.obj
 0001:0002e9d0       ?SendUnreliable@NetworkClient@kmp@@QEAAXPEBE_K@Z 000000018002f9d0 f   client.obj
 0001:0002e9f0       ?Update@NetworkClient@kmp@@QEAAXXZ 000000018002f9f0 f   client.obj
 0001:0002ec10       ??$emplace@AEBI@?$_Hash@V?$_Uset_traits@IV?$_Uhash_compare@IU?$hash@I@std@@U?$equal_to@I@2@@std@@V?$allocator@I@2@$0A@@std@@@std@@QEAA?AU?$pair@V?$_List_const_iterator@V?$_List_val@U?$_List_simple_types@I@std@@@std@@@std@@_N@1@AEBI@Z 000000018002fc10 f i packet_handler.obj
 0001:0002eea0       ??$info@AEAI@spdlog@@YAXU?$fstring@AEAI@v11@fmt@@AEAI@Z 000000018002fea0 f i packet_handler.obj
 0001:0002ef40       ??$info@AEAIAEAI@spdlog@@YAXU?$fstring@AEAIAEAI@v11@fmt@@AEAI1@Z 000000018002ff40 f i packet_handler.obj
 0001:0002eff0       ??$info@AEAIAEAIAEAM@spdlog@@YAXU?$fstring@AEAIAEAIAEAM@v11@fmt@@AEAI1AEAM@Z 000000018002fff0 f i packet_handler.obj
 0001:0002f0b0       ??$log_@AEAE@logger@spdlog@@IEAAXUsource_loc@1@W4level_enum@level@1@V?$basic_string_view@D@v11@fmt@@AEAE@Z 00000001800300b0 f i packet_handler.obj
 0001:0002f0b0       ??$log_@E@logger@spdlog@@IEAAXUsource_loc@1@W4level_enum@level@1@V?$basic_string_view@D@v11@fmt@@$$QEAE@Z 00000001800300b0 f i packet_handler.obj
 0001:0002f280       ??$log_@AEAEAEAY0IA@D@logger@spdlog@@IEAAXUsource_loc@1@W4level_enum@level@1@V?$basic_string_view@D@v11@fmt@@AEAEAEAY0IA@D@Z 0000000180030280 f i packet_handler.obj
 0001:0002f470       ??$log_@AEAEAEA_K@logger@spdlog@@IEAAXUsource_loc@1@W4level_enum@level@1@V?$basic_string_view@D@v11@fmt@@AEAEAEA_K@Z 0000000180030470 f i packet_handler.obj
 0001:0002f660       ??$log_@AEAIAEAE@logger@spdlog@@IEAAXUsource_loc@1@W4level_enum@level@1@V?$basic_string_view@D@v11@fmt@@AEAIAEAE@Z 0000000180030660 f i packet_handler.obj
 0001:0002f850       ??$log_@AEAIAEAEAEAE@logger@spdlog@@IEAAXUsource_loc@1@W4level_enum@level@1@V?$basic_string_view@D@v11@fmt@@AEAIAEAE4@Z 0000000180030850 f i packet_handler.obj
 0001:0002fa60       ??$log_@AEAIAEAEAEAI@logger@spdlog@@IEAAXUsource_loc@1@W4level_enum@level@1@V?$basic_string_view@D@v11@fmt@@AEAIAEAE3@Z 0000000180030a60 f i packet_handler.obj
 0001:0002fc70       ??$log_@AEAIAEAEAEAIAEAH@logger@spdlog@@IEAAXUsource_loc@1@W4level_enum@level@1@V?$basic_string_view@D@v11@fmt@@AEAIAEAE3AEAH@Z 0000000180030c70 f i packet_handler.obj
 0001:0002fea0       ??$log_@AEAIAEAEAEAIAEAV?$basic_string@DU?$char_traits@D@std@@V?$allocator@D@2@@std@@AEAMAEAMAEAM@logger@spdlog@@IEAAXUsource_loc@1@W4level_enum@level@1@V?$basic_string_view@D@v11@fmt@@AEAIAEAE3AEAV?$basic_string@DU?$char_traits@D@std@@V?$allocator@D@2@@std@@AEAM66@Z 0000000180030ea0 f i packet_handler.obj
 0001:00030160       ??$log_@AEAIAEAEAEAM@logger@spdlog@@IEAAXUsource_loc@1@W4level_enum@level@1@V?$basic_string_view@D@v11@fmt@@AEAIAEAEAEAM@Z 0000000180031160 f i packet_handler.obj
 0001:00030380       ??$log_@AEAIAEAIAEAE@logger@spdlog@@IEAAXUsource_loc@1@W4level_enum@level@1@V?$basic_string_view@D@v11@fmt@@AEAI3AEAE@Z 0000000180031380 f i packet_handler.obj
 0001:00030590       ??$log_@AEAIAEAIAEAEAEAM@logger@spdlog@@IEAAXUsource_loc@1@W4level_enum@level@1@V?$basic_string_view@D@v11@fmt@@AEAI3AEAEAEAM@Z 0000000180031590 f i packet_handler.obj
 0001:000307d0       ??$log_@AEAIAEAIAEAEAEAMAEAMAEAMAEAM@logger@spdlog@@IEAAXUsource_loc@1@W4level_enum@level@1@V?$basic_string_view@D@v11@fmt@@AEAI3AEAEAEAM555@Z 00000001800317d0 f i packet_handler.obj
 0001:00030a60       ??$log_@AEAIAEAIAEAHAEAE@logger@spdlog@@IEAAXUsource_loc@1@W4level_enum@level@1@V?$basic_string_view@D@v11@fmt@@AEAI3AEAHAEAE@Z 0000000180031a60 f i packet_handler.obj
 0001:00030c90       ??$log_@AEAIAEAIAEAM@logger@spdlog@@IEAAXUsource_loc@1@W4level_enum@level@1@V?$basic_string_view@D@v11@fmt@@AEAI3AEAM@Z 0000000180031c90 f i packet_handler.obj
 0001:00030eb0       ??$log_@AEAIAEAM@logger@spdlog@@IEAAXUsource_loc@1@W4level_enum@level@1@V?$basic_string_view@D@v11@fmt@@AEAIAEAM@Z 0000000180031eb0 f i packet_handler.obj
 0001:000310a0       ??$log_@AEAIAEAMAEAE@logger@spdlog@@IEAAXUsource_loc@1@W4level_enum@level@1@V?$basic_string_view@D@v11@fmt@@AEAIAEAMAEAE@Z 00000001800320a0 f i packet_handler.obj
 0001:000312c0       ??$log_@AEAIAEAMAEAMAEAM@logger@spdlog@@IEAAXUsource_loc@1@W4level_enum@level@1@V?$basic_string_view@D@v11@fmt@@AEAIAEAM44@Z 00000001800322c0 f i packet_handler.obj
 0001:00031500       ??$log_@AEAIAEAPEBD@logger@spdlog@@IEAAXUsource_loc@1@W4level_enum@level@1@V?$basic_string_view@D@v11@fmt@@AEAIAEAPEBD@Z 0000000180032500 f i packet_handler.obj
 0001:000316f0       ??$log_@AEAMAEAMAEAMAEAI@logger@spdlog@@IEAAXUsource_loc@1@W4level_enum@level@1@V?$basic_string_view@D@v11@fmt@@AEAM33AEAI@Z 00000001800326f0 f i packet_handler.obj
 0001:00031930       ??$log_@AEAV?$basic_string@DU?$char_traits@D@std@@V?$allocator@D@2@@std@@AEAIAEAI@logger@spdlog@@IEAAXUsource_loc@1@W4level_enum@level@1@V?$basic_string_view@D@v11@fmt@@AEAV?$basic_string@DU?$char_traits@D@std@@V?$allocator@D@2@@std@@AEAI4@Z 0000000180032930 f i packet_handler.obj
 0001:00031b60       ??$log_@AEAY0CA@DAEAI@logger@spdlog@@IEAAXUsource_loc@1@W4level_enum@level@1@V?$basic_string_view@D@v11@fmt@@AEAY0CA@DAEAI@Z 0000000180032b60 f i packet_handler.obj
 0001:00031d50       ?Decompress@Quat@kmp@@SA?AU12@I@Z 0000000180032d50 f i packet_handler.obj
 0001:00031eb0       ?HandleAdminResponse@PacketHandler@kmp@@CAXAEAVPacketReader@2@@Z 0000000180032eb0 f i packet_handler.obj
 0001:00032370       ?HandleBuildDestroyed@PacketHandler@kmp@@CAXAEAVPacketReader@2@@Z 0000000180033370 f i packet_handler.obj
 0001:000325e0       ?HandleBuildProgressUpdate@PacketHandler@kmp@@CAXAEAVPacketReader@2@@Z 00000001800335e0 f i packet_handler.obj
 0001:00032a00       ?HandleChatMessage@PacketHandler@kmp@@CAXAEAVPacketReader@2@@Z 0000000180033a00 f i packet_handler.obj
 0001:00032f70       ?HandleCombatHit@PacketHandler@kmp@@CAXAEAVPacketReader@2@@Z 0000000180033f70 f i packet_handler.obj
 0001:00033170       ?HandleCombatKO@PacketHandler@kmp@@CAXAEAVPacketReader@2@@Z 0000000180034170 f i packet_handler.obj
 0001:00033330       ?HandleDoorState@PacketHandler@kmp@@CAXAEAVPacketReader@2@@Z 0000000180034330 f i packet_handler.obj
 0001:000335a0       ?HandleEntitySpawn@PacketHandler@kmp@@CAXAEAVPacketReader@2@@Z 00000001800345a0 f i packet_handler.obj
 0001:00034a70       ?HandleFactionRelation@PacketHandler@kmp@@CAXAEAVPacketReader@2@@Z 0000000180035a70 f i packet_handler.obj
 0001:00034f00       ?HandleHandshakeAck@PacketHandler@kmp@@CAXAEAVPacketReader@2@@Z 0000000180035f00 f i packet_handler.obj
 0001:00035d00       ?HandleHandshakeReject@PacketHandler@kmp@@CAXAEAVPacketReader@2@@Z 0000000180036d00 f i packet_handler.obj
 0001:00036170       ?HandlePacket@PacketHandler@kmp@@SAXPEBE_KH@Z 0000000180037170 f i packet_handler.obj
 0001:00037090       ?HandlePlayerJoined@PacketHandler@kmp@@CAXAEAVPacketReader@2@@Z 0000000180038090 f i packet_handler.obj
 0001:00037770       ?HandlePlayerLeft@PacketHandler@kmp@@CAXAEAVPacketReader@2@@Z 0000000180038770 f i packet_handler.obj
 0001:00038200       ?HandlePositionUpdate@PacketHandler@kmp@@CAXAEAVPacketReader@2@@Z 0000000180039200 f i packet_handler.obj
 0001:00038500       ?HandleSquadCreated@PacketHandler@kmp@@CAXAEAVPacketReader@2@@Z 0000000180039500 f i packet_handler.obj
 0001:00038800       ?HandleSquadMemberUpdate@PacketHandler@kmp@@CAXAEAVPacketReader@2@@Z 0000000180039800 f i packet_handler.obj
 0001:000389c0       ?HandleStatUpdate@PacketHandler@kmp@@CAXAEAVPacketReader@2@@Z 00000001800399c0 f i packet_handler.obj
 0001:00038c60       ?HandleTimeSync@PacketHandler@kmp@@CAXAEAVPacketReader@2@@Z 0000000180039c60 f i packet_handler.obj
 0001:00038d60       ?HandleTradeResult@PacketHandler@kmp@@CAXAEAVPacketReader@2@@Z 0000000180039d60 f i packet_handler.obj
 0001:00038fc0       ?HandleWorldSnapshot@PacketHandler@kmp@@CAXAEAVPacketReader@2@@Z 0000000180039fc0 f i packet_handler.obj
 0001:00039a70       ?InitPacketHandler@kmp@@YAXXZ 000000018003aa70 f   packet_handler.obj
 0001:00039b40       ?ReadRaw@PacketReader@kmp@@QEAA_NPEAX_K@Z 000000018003ab40 f i packet_handler.obj
 0001:00039b90       ?SetConnected@Core@kmp@@QEAAX_N@Z 000000018003ab90 f i packet_handler.obj
 0001:00039d50       ?_Copy@?$_Func_impl_no_alloc@V<lambda_6d8c802afd33767f062c3cf8ec64c377>@@XPEBE_KH@std@@EEBAPEAV?$_Func_base@XPEBE_KH@2@PEAX@Z 000000018003ad50 f i packet_handler.obj
 0001:00039d50       ?_Move@?$_Func_impl_no_alloc@V<lambda_6d8c802afd33767f062c3cf8ec64c377>@@XPEBE_KH@std@@EEAAPEAV?$_Func_base@XPEBE_KH@2@PEAX@Z 000000018003ad50 f i packet_handler.obj
 0001:00039d60       ?_Do_call@?$_Func_impl_no_alloc@V<lambda_6d8c802afd33767f062c3cf8ec64c377>@@XPEBE_KH@std@@EEAAX$$QEAPEBE$$QEA_K$$QEAH@Z 000000018003ad60 f i packet_handler.obj
 0001:00039d80       ?_Forced_rehash@?$_Hash@V?$_Uset_traits@IV?$_Uhash_compare@IU?$hash@I@std@@U?$equal_to@I@2@@std@@V?$allocator@I@2@$0A@@std@@@std@@IEAAX_K@Z 000000018003ad80 f i packet_handler.obj
 0001:00039f40       ?_Target_type@?$_Func_impl_no_alloc@V<lambda_6d8c802afd33767f062c3cf8ec64c377>@@XPEBE_KH@std@@EEBAAEBVtype_info@@XZ 000000018003af40 f i packet_handler.obj
 0001:00039f50       ?append@?$basic_string@DU?$char_traits@D@std@@V?$allocator@D@2@@std@@QEAAAEAV12@_KD@Z 000000018003af50 f i packet_handler.obj
 0001:0003a0d0       ??$_Emplace_reallocate@AEBUPendingQuery@ServerQueryClient@kmp@@@?$vector@UPendingQuery@ServerQueryClient@kmp@@V?$allocator@UPendingQuery@ServerQueryClient@kmp@@@std@@@std@@AEAAPEAUPendingQuery@ServerQueryClient@kmp@@QEAU234@AEBU234@@Z 000000018003b0d0 f i server_query.obj
 0001:0003a320       ??$_Emplace_reallocate@AEBUServerQueryResult@kmp@@@?$vector@UServerQueryResult@kmp@@V?$allocator@UServerQueryResult@kmp@@@std@@@std@@AEAAPEAUServerQueryResult@kmp@@QEAU23@AEBU23@@Z 000000018003b320 f i server_query.obj
 0001:0003a590       ??$_Uninitialized_move@PEAUPendingQuery@ServerQueryClient@kmp@@V?$allocator@UPendingQuery@ServerQueryClient@kmp@@@std@@@std@@YAPEAUPendingQuery@ServerQueryClient@kmp@@QEAU123@0PEAU123@AEAV?$allocator@UPendingQuery@ServerQueryClient@kmp@@@0@@Z 000000018003b590 f i server_query.obj
 0001:0003a630       ??$_Uninitialized_move@PEAUServerQueryResult@kmp@@V?$allocator@UServerQueryResult@kmp@@@std@@@std@@YAPEAUServerQueryResult@kmp@@QEAU12@0PEAU12@AEAV?$allocator@UServerQueryResult@kmp@@@0@@Z 000000018003b630 f i server_query.obj
 0001:0003a730       ??$log_@AEAG@logger@spdlog@@IEAAXUsource_loc@1@W4level_enum@level@1@V?$basic_string_view@D@v11@fmt@@AEAG@Z 000000018003b730 f i server_query.obj
 0001:0003a900       ??$log_@AEAV?$basic_string@DU?$char_traits@D@std@@V?$allocator@D@2@@std@@AEAGAEAV12@AEAEAEAEAEAI@logger@spdlog@@IEAAXUsource_loc@1@W4level_enum@level@1@V?$basic_string_view@D@v11@fmt@@AEAV?$basic_string@DU?$char_traits@D@std@@V?$allocator@D@2@@std@@AEAG3AEAE5AEAI@Z 000000018003b900 f i server_query.obj
 0001:0003aba0       ??1?$_Tidy_guard@V?$vector@UServerQueryResult@kmp@@V?$allocator@UServerQueryResult@kmp@@@std@@@std@@@std@@QEAA@XZ 000000018003bba0 f i server_query.obj
 0001:0003abb0       ??1?$_Uninitialized_backout_al@V?$allocator@UServerQueryResult@kmp@@@std@@@std@@QEAA@XZ 000000018003bbb0 f i server_query.obj
 0001:0003abf0       ??1_Reallocation_guard@?$vector@UPendingQuery@ServerQueryClient@kmp@@V?$allocator@UPendingQuery@ServerQueryClient@kmp@@@std@@@std@@QEAA@XZ 000000018003bbf0 f i server_query.obj
 0001:0003ac90       ??1_Reallocation_guard@?$vector@UServerQueryResult@kmp@@V?$allocator@UServerQueryResult@kmp@@@std@@@std@@QEAA@XZ 000000018003bc90 f i server_query.obj
 0001:0003ad30       ?Clear@ServerQueryClient@kmp@@QEAAXXZ 000000018003bd30 f   server_query.obj
 0001:0003ae30       ?GetResults@ServerQueryClient@kmp@@QEAA?AV?$vector@UServerQueryResult@kmp@@V?$allocator@UServerQueryResult@kmp@@@std@@@std@@XZ 000000018003be30 f   server_query.obj
 0001:0003b040       ?Initialize@ServerQueryClient@kmp@@QEAA_NXZ 000000018003c040 f   server_query.obj
 0001:0003b220       ?QueryMasterServer@ServerQueryClient@kmp@@QEAAXAEBV?$basic_string@DU?$char_traits@D@std@@V?$allocator@D@2@@std@@G@Z 000000018003c220 f   server_query.obj
 0001:0003b4d0       ?QueryServer@ServerQueryClient@kmp@@QEAAXAEBV?$basic_string@DU?$char_traits@D@std@@V?$allocator@D@2@@std@@G@Z 000000018003c4d0 f   server_query.obj
 0001:0003bb20       ?Shutdown@ServerQueryClient@kmp@@QEAAXXZ 000000018003cb20 f   server_query.obj
 0001:0003bbb0       ?Update@ServerQueryClient@kmp@@QEAAXXZ 000000018003cbb0 f   server_query.obj
 0001:0003cc00       ?erase@?$vector@UPendingQuery@ServerQueryClient@kmp@@V?$allocator@UPendingQuery@ServerQueryClient@kmp@@@std@@@std@@QEAA?AV?$_Vector_iterator@V?$_Vector_val@U?$_Simple_types@UPendingQuery@ServerQueryClient@kmp@@@std@@@std@@@2@V?$_Vector_const_iterator@V?$_Vector_val@U?$_Simple_types@UPendingQuery@ServerQueryClient@kmp@@@std@@@std@@@2@@Z 000000018003dc00 f i server_query.obj
 0001:0003ccb0       ??$_Try_emplace@AEBI$$V@?$_Hash@V?$_Umap_traits@IUEntityInfo@kmp@@V?$_Uhash_compare@IU?$hash@I@std@@U?$equal_to@I@2@@std@@V?$allocator@U?$pair@$$CBIUEntityInfo@kmp@@@std@@@4@$0A@@std@@@std@@IEAA?AU?$pair@PEAU?$_List_node@U?$pair@$$CBIUEntityInfo@kmp@@@std@@PEAX@std@@_N@1@AEBI@Z 000000018003dcb0 f i entity_registry.obj
 0001:0003cf50       ??$erase@V?$_List_iterator@V?$_List_val@U?$_List_simple_types@U?$pair@$$CBIUEntityInfo@kmp@@@std@@@std@@@std@@@std@@$0A@@?$_Hash@V?$_Umap_traits@IUEntityInfo@kmp@@V?$_Uhash_compare@IU?$hash@I@std@@U?$equal_to@I@2@@std@@V?$allocator@U?$pair@$$CBIUEntityInfo@kmp@@@std@@@4@$0A@@std@@@std@@QEAA?AV?$_List_iterator@V?$_List_val@U?$_List_simple_types@U?$pair@$$CBIUEntityInfo@kmp@@@std@@@std@@@std@@@1@V21@@Z 000000018003df50 f i entity_registry.obj
 0001:0003d020       ??1?$_Alloc_construct_ptr@V?$allocator@U?$_List_node@U?$pair@$$CBIUEntityInfo@kmp@@@std@@PEAX@std@@@std@@@std@@QEAA@XZ 000000018003e020 f i entity_registry.obj
 0001:0003d020       ??1?$_List_node_emplace_op2@V?$allocator@U?$_List_node@U?$pair@$$CBIUEntityInfo@kmp@@@std@@PEAX@std@@@std@@@std@@QEAA@XZ 000000018003e020 f i entity_registry.obj
 0001:0003d040       ??1?$shared_lock@Vshared_mutex@std@@@std@@QEAA@XZ 000000018003e040 f i entity_registry.obj
 0001:0003d050       ??1?$unique_lock@Vshared_mutex@std@@@std@@QEAA@XZ 000000018003e050 f i entity_registry.obj
 0001:0003d060       ?ClearRemoteEntities@EntityRegistry@kmp@@QEAA_KXZ 000000018003e060 f   entity_registry.obj
 0001:0003d580       ?FindLocalEntityNear@EntityRegistry@kmp@@QEBAIAEBUVec3@2@IM@Z 000000018003e580 f   entity_registry.obj
 0001:0003d660       ?GetEntityCount@EntityRegistry@kmp@@QEBA_KXZ 000000018003e660 f   entity_registry.obj
 0001:0003d690       ?GetGameObject@EntityRegistry@kmp@@QEBAPEAXI@Z 000000018003e690 f   entity_registry.obj
 0001:0003d760       ?GetInfo@EntityRegistry@kmp@@QEBAPEBUEntityInfo@2@I@Z 000000018003e760 f   entity_registry.obj
 0001:0003d820       ?GetNetId@EntityRegistry@kmp@@QEBAIPEAX@Z 000000018003e820 f   entity_registry.obj
 0001:0003d920       ?GetPlayerEntities@EntityRegistry@kmp@@QEBA?AV?$vector@IV?$allocator@I@std@@@std@@I@Z 000000018003e920 f   entity_registry.obj
 0001:0003d9d0       ?GetRemoteCount@EntityRegistry@kmp@@QEBA_KXZ 000000018003e9d0 f   entity_registry.obj
 0001:0003da20       ?GetRemoteEntities@EntityRegistry@kmp@@QEBA?AV?$vector@IV?$allocator@I@std@@@std@@XZ 000000018003ea20 f   entity_registry.obj
 0001:0003dad0       ?GetSpawnedRemoteCount@EntityRegistry@kmp@@QEBA_KXZ 000000018003ead0 f   entity_registry.obj
 0001:0003db30       ?Register@EntityRegistry@kmp@@QEAAIPEAXW4EntityType@2@I@Z 000000018003eb30 f   entity_registry.obj
 0001:0003dd90       ?RegisterRemote@EntityRegistry@kmp@@QEAAIIW4EntityType@2@IAEBUVec3@2@@Z 000000018003ed90 f   entity_registry.obj
 0001:0003df70       ?RemapEntityId@EntityRegistry@kmp@@QEAA_NII@Z 000000018003ef70 f   entity_registry.obj
 0001:0003e2e0       ?SetGameObject@EntityRegistry@kmp@@QEAAXIPEAX@Z 000000018003f2e0 f   entity_registry.obj
 0001:0003e400       ?Unregister@EntityRegistry@kmp@@QEAAXI@Z 000000018003f400 f   entity_registry.obj
 0001:0003e4e0       ?UpdatePosition@EntityRegistry@kmp@@QEAAXIAEBUVec3@2@@Z 000000018003f4e0 f   entity_registry.obj
 0001:0003e5e0       ?UpdateRotation@EntityRegistry@kmp@@QEAAXIAEBUQuat@2@@Z 000000018003f5e0 f   entity_registry.obj
 0001:0003e6a0       ?erase@?$_Hash@V?$_Umap_traits@PEAXIV?$_Uhash_compare@PEAXU?$hash@PEAX@std@@U?$equal_to@PEAX@2@@std@@V?$allocator@U?$pair@QEAXI@std@@@2@$0A@@std@@@std@@QEAA_KAEBQEAX@Z 000000018003f6a0 f i entity_registry.obj
 0001:0003e7c0       ??$_Try_emplace@AEBI$$V@?$_Hash@V?$_Umap_traits@IUEntityInterpState@Interpolation@kmp@@V?$_Uhash_compare@IU?$hash@I@std@@U?$equal_to@I@2@@std@@V?$allocator@U?$pair@$$CBIUEntityInterpState@Interpolation@kmp@@@std@@@5@$0A@@std@@@std@@IEAA?AU?$pair@PEAU?$_List_node@U?$pair@$$CBIUEntityInterpState@Interpolation@kmp@@@std@@PEAX@std@@_N@1@AEBI@Z 000000018003f7c0 f i interpolation.obj
 0001:0003ea60       ??0EntityInterpState@Interpolation@kmp@@QEAA@XZ 000000018003fa60 f i interpolation.obj
 0001:0003ec20       ??1?$_Alloc_construct_ptr@V?$allocator@U?$_List_node@U?$pair@$$CBIUEntityInterpState@Interpolation@kmp@@@std@@PEAX@std@@@std@@@std@@QEAA@XZ 000000018003fc20 f i interpolation.obj
 0001:0003ec20       ??1?$_List_node_emplace_op2@V?$allocator@U?$_List_node@U?$pair@$$CBIUEntityInterpState@Interpolation@kmp@@@std@@PEAX@std@@@std@@@std@@QEAA@XZ 000000018003fc20 f i interpolation.obj
 0001:0003ec40       ?AddSnapshot@Interpolation@kmp@@QEAAXIMAEBUVec3@2@AEBUQuat@2@EE@Z 000000018003fc40 f   interpolation.obj
 0001:0003f000       ?Clear@Interpolation@kmp@@QEAAXXZ 0000000180040000 f   interpolation.obj
 0001:0003f060       ?GetInterpolated@Interpolation@kmp@@QEBA_NIMAEAUVec3@2@AEAUQuat@2@AEAE2@Z 0000000180040060 f   interpolation.obj
 0001:0003f240       ?InterpolateEntity@Interpolation@kmp@@AEBA_NAEBUEntityInterpState@12@MAEAUVec3@2@AEAUQuat@2@PEAE3@Z 0000000180040240 f   interpolation.obj
 0001:0003f940       ?RemoveEntity@Interpolation@kmp@@QEAAXI@Z 0000000180040940 f   interpolation.obj
 0001:0003fa70       ?Update@Interpolation@kmp@@QEAAXM@Z 0000000180040a70 f   interpolation.obj
 0001:0003fb30       ?_Unchecked_erase@?$_Hash@V?$_Umap_traits@IUEntityInterpState@Interpolation@kmp@@V?$_Uhash_compare@IU?$hash@I@std@@U?$equal_to@I@2@@std@@V?$allocator@U?$pair@$$CBIUEntityInterpState@Interpolation@kmp@@@std@@@5@$0A@@std@@@std@@AEAAPEAU?$_List_node@U?$pair@$$CBIUEntityInterpState@Interpolation@kmp@@@std@@PEAX@2@PEAU32@QEAU32@@Z 0000000180040b30 f i interpolation.obj
 0001:0003fcf0       ?clear@?$_Hash@V?$_Umap_traits@IUEntityInterpState@Interpolation@kmp@@V?$_Uhash_compare@IU?$hash@I@std@@U?$equal_to@I@2@@std@@V?$allocator@U?$pair@$$CBIUEntityInterpState@Interpolation@kmp@@@std@@@5@$0A@@std@@@std@@QEAAXXZ 0000000180040cf0 f i interpolation.obj
 0001:0003fda0       ??$_Emplace_reallocate@P8TaskOrchestrator@kmp@@EAAXXZPEAV12@@?$vector@Vthread@std@@V?$allocator@Vthread@std@@@2@@std@@AEAAPEAVthread@1@QEAV21@$$QEAP8TaskOrchestrator@kmp@@EAAXXZ$$QEAPEAV34@@Z 0000000180040da0 f i task_orchestrator.obj
 0001:0003ff90       ??1_Reallocation_guard@?$vector@Vthread@std@@V?$allocator@Vthread@std@@@2@@std@@QEAA@XZ 0000000180040f90 f i task_orchestrator.obj
 0001:00040020       ?PostFrameWork@TaskOrchestrator@kmp@@QEAAXV?$function@$$A6AXXZ@std@@@Z 0000000180041020 f   task_orchestrator.obj
 0001:00040160       ?Start@TaskOrchestrator@kmp@@QEAAXH@Z 0000000180041160 f   task_orchestrator.obj
 0001:00040360       ?Stop@TaskOrchestrator@kmp@@QEAAXXZ 0000000180041360 f   task_orchestrator.obj
 0001:00040610       ?WaitForFrameWork@TaskOrchestrator@kmp@@QEAAXXZ 0000000180041610 f   task_orchestrator.obj
 0001:000406b0       ?WorkerLoop@TaskOrchestrator@kmp@@AEAAXXZ 00000001800416b0 f   task_orchestrator.obj
 0001:00040910       ?_Change_array@?$vector@Vthread@std@@V?$allocator@Vthread@std@@@2@@std@@AEAAXQEAVthread@2@_K1@Z 0000000180041910 f i task_orchestrator.obj
 0001:000409e0       ?_Growmap@?$deque@ULogEntry@NativeHud@kmp@@V?$allocator@ULogEntry@NativeHud@kmp@@@std@@@std@@AEAAX_K@Z 00000001800419e0 f i native_hud.obj
 0001:000409e0       ?_Growmap@?$deque@UTask@TaskOrchestrator@kmp@@V?$allocator@UTask@TaskOrchestrator@kmp@@@std@@@std@@AEAAX_K@Z 00000001800419e0 f i task_orchestrator.obj
 0001:00040bb0       ?_Reset_move@?$_Func_class@X$$V@std@@IEAAX$$QEAV12@@Z 0000000180041bb0 f i task_orchestrator.obj
 0001:00040bb0       ?_Reset_move@?$_Func_class@XAEBV?$basic_string@DU?$char_traits@D@std@@V?$allocator@D@2@@std@@@std@@IEAAX$$QEAV12@@Z 0000000180041bb0 f i spdlog:spdlog.obj
 0001:00040c20       ?push@?$queue@UTask@TaskOrchestrator@kmp@@V?$deque@UTask@TaskOrchestrator@kmp@@V?$allocator@UTask@TaskOrchestrator@kmp@@@std@@@std@@@std@@QEAAX$$QEAUTask@TaskOrchestrator@kmp@@@Z 0000000180041c20 f i task_orchestrator.obj
 0001:00040ce0       ??$?5DU?$char_traits@D@std@@V?$allocator@D@1@@std@@YAAEAV?$basic_istream@DU?$char_traits@D@std@@@0@AEAV10@AEAV?$basic_string@DU?$char_traits@D@std@@V?$allocator@D@2@@0@@Z 0000000180041ce0 f i command_registry.obj
 0001:00040ef0       ??$_Emplace_reallocate@AEBV?$basic_string@DU?$char_traits@D@std@@V?$allocator@D@2@@std@@@?$vector@V?$basic_string@DU?$char_traits@D@std@@V?$allocator@D@2@@std@@V?$allocator@V?$basic_string@DU?$char_traits@D@std@@V?$allocator@D@2@@std@@@2@@std@@AEAAPEAV?$basic_string@DU?$char_traits@D@std@@V?$allocator@D@2@@1@QEAV21@AEBV21@@Z 0000000180041ef0 f i command_registry.obj
 0001:000410b0       ??$_Free_non_head@V?$allocator@U?$_List_node@U?$pair@$$CBV?$basic_string@DU?$char_traits@D@std@@V?$allocator@D@2@@std@@UCommandDef@kmp@@@std@@PEAX@std@@@std@@@?$_List_node@U?$pair@$$CBV?$basic_string@DU?$char_traits@D@std@@V?$allocator@D@2@@std@@UCommandDef@kmp@@@std@@PEAX@std@@SAXAEAV?$allocator@U?$_List_node@U?$pair@$$CBV?$basic_string@DU?$char_traits@D@std@@V?$allocator@D@2@@std@@UCommandDef@kmp@@@std@@PEAX@std@@@1@PEAU01@@Z 00000001800420b0 f i command_registry.obj
 0001:00041150       ??$_Try_emplace@AEBV?$basic_string@DU?$char_traits@D@std@@V?$allocator@D@2@@std@@$$V@?$_Hash@V?$_Umap_traits@V?$basic_string@DU?$char_traits@D@std@@V?$allocator@D@2@@std@@UCommandDef@kmp@@V?$_Uhash_compare@V?$basic_string@DU?$char_traits@D@std@@V?$allocator@D@2@@std@@U?$hash@V?$basic_string@DU?$char_traits@D@std@@V?$allocator@D@2@@std@@@2@U?$equal_to@V?$basic_string@DU?$char_traits@D@std@@V?$allocator@D@2@@std@@@2@@2@V?$allocator@U?$pair@$$CBV?$basic_string@DU?$char_traits@D@std@@V?$allocator@D@2@@std@@UCommandDef@kmp@@@std@@@2@$0A@@std@@@std@@IEAA?AU?$pair@PEAU?$_List_node@U?$pair@$$CBV?$basic_string@DU?$char_traits@D@std@@V?$allocator@D@2@@std@@UCommandDef@kmp@@@std@@PEAX@std@@_N@1@AEBV?$basic_string@DU?$char_traits@D@std@@V?$allocator@D@2@@1@@Z 0000000180042150 f i command_registry.obj
 0001:00041460       ??$_Uninitialized_move@PEAV?$basic_string@DU?$char_traits@D@std@@V?$allocator@D@2@@std@@V?$allocator@V?$basic_string@DU?$char_traits@D@std@@V?$allocator@D@2@@std@@@2@@std@@YAPEAV?$basic_string@DU?$char_traits@D@std@@V?$allocator@D@2@@0@QEAV10@0PEAV10@AEAV?$allocator@V?$basic_string@DU?$char_traits@D@std@@V?$allocator@D@2@@std@@@0@@Z 0000000180042460 f i command_registry.obj
 0001:000414d0       ??$log_@AEAV?$basic_string@DU?$char_traits@D@std@@V?$allocator@D@2@@std@@PEBD@logger@spdlog@@IEAAXUsource_loc@1@W4level_enum@level@1@V?$basic_string_view@D@v11@fmt@@AEAV?$basic_string@DU?$char_traits@D@std@@V?$allocator@D@2@@std@@$$QEAPEBD@Z 00000001800424d0 f i command_registry.obj
 0001:000414d0       ??$log_@AEBV?$basic_string@DU?$char_traits@D@std@@V?$allocator@D@2@@std@@PEBD@logger@spdlog@@IEAAXUsource_loc@1@W4level_enum@level@1@V?$basic_string_view@D@v11@fmt@@AEBV?$basic_string@DU?$char_traits@D@std@@V?$allocator@D@2@@std@@$$QEAPEBD@Z 00000001800424d0 f i KenshiMP.Scanner:hook_manager.obj
 0001:000416e0       ??$use_facet@V?$ctype@D@std@@@std@@YAAEBV?$ctype@D@0@AEBVlocale@0@@Z 00000001800426e0 f i command_registry.obj
 0001:00041800       ??0?$basic_istringstream@DU?$char_traits@D@std@@V?$allocator@D@2@@std@@QEAA@AEBV?$basic_string@DU?$char_traits@D@std@@V?$allocator@D@2@@1@H@Z 0000000180042800 f i command_registry.obj
 0001:00041960       ??0bad_cast@std@@QEAA@AEBV01@@Z 0000000180042960 f i command_registry.obj
 0001:000419a0       ??0bad_cast@std@@QEAA@XZ   00000001800429a0 f i command_registry.obj
 0001:000419d0       ??1?$_Alloc_construct_ptr@V?$allocator@U?$_List_node@U?$pair@$$CBV?$basic_string@DU?$char_traits@D@std@@V?$allocator@D@2@@std@@UCommandDef@kmp@@@std@@PEAX@std@@@std@@@std@@QEAA@XZ 00000001800429d0 f i command_registry.obj
 0001:000419f0       ??1?$_List_node_emplace_op2@V?$allocator@U?$_List_node@U?$pair@$$CBV?$basic_string@DU?$char_traits@D@std@@V?$allocator@D@2@@std@@UCommandDef@kmp@@@std@@PEAX@std@@@std@@@std@@QEAA@XZ 00000001800429f0 f i command_registry.obj
 0001:00041a90       ??1?$basic_istringstream@DU?$char_traits@D@std@@V?$allocator@D@2@@std@@UEAA@XZ 0000000180042a90 f i command_registry.obj
 0001:00041af0       ??1?$basic_stringbuf@DU?$char_traits@D@std@@V?$allocator@D@2@@std@@UEAA@XZ 0000000180042af0 f i command_registry.obj
 0001:00041bd0       ??1?$list@U?$pair@$$CBV?$basic_string@DU?$char_traits@D@std@@V?$allocator@D@2@@std@@UCommandDef@kmp@@@std@@V?$allocator@U?$pair@$$CBV?$basic_string@DU?$char_traits@D@std@@V?$allocator@D@2@@std@@UCommandDef@kmp@@@std@@@2@@std@@QEAA@XZ 0000000180042bd0 f i command_registry.obj
 0001:00041c00       ??1CommandArgs@kmp@@QEAA@XZ 0000000180042c00 f i command_registry.obj
 0001:00041c30       ??1CommandDef@kmp@@QEAA@XZ 0000000180042c30 f i command_registry.obj
 0001:00041c80       ??1_Reallocation_guard@?$vector@V?$basic_string@DU?$char_traits@D@std@@V?$allocator@D@2@@std@@V?$allocator@V?$basic_string@DU?$char_traits@D@std@@V?$allocator@D@2@@std@@@2@@std@@QEAA@XZ 0000000180042c80 f i command_registry.obj
 0001:00041d20       ??1_Sentry_base@?$basic_istream@DU?$char_traits@D@std@@@std@@QEAA@XZ 0000000180042d20 f i command_registry.obj
 0001:00041d20       ??1_Sentry_base@?$basic_ostream@DU?$char_traits@D@std@@@std@@QEAA@XZ 0000000180042d20 f i KenshiMP.Common:config.obj
 0001:00041d50       ??1locale@std@@QEAA@XZ     0000000180042d50 f i command_registry.obj
 0001:00041d90       ??1sentry@?$basic_istream@DU?$char_traits@D@std@@@std@@QEAA@XZ 0000000180042d90 f i command_registry.obj
 0001:00041dc0       ??_D?$basic_istringstream@DU?$char_traits@D@std@@V?$allocator@D@2@@std@@QEAAXXZ 0000000180042dc0 f i command_registry.obj
 0001:00041e1c       ??_E?$basic_istringstream@DU?$char_traits@D@std@@V?$allocator@D@2@@std@@$4PPPPPPPM@A@EAAPEAXI@Z 0000000180042e1c f i command_registry.obj
 0001:00041e30       ??_E?$basic_istringstream@DU?$char_traits@D@std@@V?$allocator@D@2@@std@@UEAAPEAXI@Z 0000000180042e30 f i command_registry.obj
 0001:00041e30       ??_G?$basic_istringstream@DU?$char_traits@D@std@@V?$allocator@D@2@@std@@UEAAPEAXI@Z 0000000180042e30 f i command_registry.obj
 0001:00041ec0       ??_E?$basic_stringbuf@DU?$char_traits@D@std@@V?$allocator@D@2@@std@@UEAAPEAXI@Z 0000000180042ec0 f i command_registry.obj
 0001:00041ec0       ??_G?$basic_stringbuf@DU?$char_traits@D@std@@V?$allocator@D@2@@std@@UEAAPEAXI@Z 0000000180042ec0 f i command_registry.obj
 0001:00041f00       ?Execute@CommandRegistry@kmp@@QEAA?AV?$basic_string@DU?$char_traits@D@std@@V?$allocator@D@2@@std@@AEBV34@@Z 0000000180042f00 f   command_registry.obj
 0001:00042bb0       ?Get@CommandRegistry@kmp@@SAAEAV12@XZ 0000000180043bb0 f   command_registry.obj
 0001:00042d00       ?GetAll@CommandRegistry@kmp@@QEBA?AV?$vector@PEBUCommandDef@kmp@@V?$allocator@PEBUCommandDef@kmp@@@std@@@std@@XZ 0000000180043d00 f   command_registry.obj
 0001:00042fa0       ?Register@CommandRegistry@kmp@@QEAAXAEBV?$basic_string@DU?$char_traits@D@std@@V?$allocator@D@2@@std@@0V?$function@$$A6A?AV?$basic_string@DU?$char_traits@D@std@@V?$allocator@D@2@@std@@AEBUCommandArgs@kmp@@@Z@4@@Z 0000000180043fa0 f   command_registry.obj
 0001:000432d0       ?_Change_array@?$vector@V?$basic_string@DU?$char_traits@D@std@@V?$allocator@D@2@@std@@V?$allocator@V?$basic_string@DU?$char_traits@D@std@@V?$allocator@D@2@@std@@@2@@std@@AEAAXQEAV?$basic_string@DU?$char_traits@D@std@@V?$allocator@D@2@@2@_K1@Z 00000001800442d0 f i command_registry.obj
 0001:000433a0       ?_Forced_rehash@?$_Hash@V?$_Umap_traits@V?$basic_string@DU?$char_traits@D@std@@V?$allocator@D@2@@std@@UCommandDef@kmp@@V?$_Uhash_compare@V?$basic_string@DU?$char_traits@D@std@@V?$allocator@D@2@@std@@U?$hash@V?$basic_string@DU?$char_traits@D@std@@V?$allocator@D@2@@std@@@2@U?$equal_to@V?$basic_string@DU?$char_traits@D@std@@V?$allocator@D@2@@std@@@2@@2@V?$allocator@U?$pair@$$CBV?$basic_string@DU?$char_traits@D@std@@V?$allocator@D@2@@std@@UCommandDef@kmp@@@std@@@2@$0A@@std@@@std@@IEAAX_K@Z 00000001800443a0 f i command_registry.obj
 0001:000433a0       ?_Forced_rehash@?$_Hash@V?$_Umap_traits@V?$basic_string@DU?$char_traits@D@std@@V?$allocator@D@2@@std@@UHookEntry@HookManager@kmp@@V?$_Uhash_compare@V?$basic_string@DU?$char_traits@D@std@@V?$allocator@D@2@@std@@U?$hash@V?$basic_string@DU?$char_traits@D@std@@V?$allocator@D@2@@std@@@2@U?$equal_to@V?$basic_string@DU?$char_traits@D@std@@V?$allocator@D@2@@std@@@2@@2@V?$allocator@U?$pair@$$CBV?$basic_string@DU?$char_traits@D@std@@V?$allocator@D@2@@std@@UHookEntry@HookManager@kmp@@@std@@@2@$0A@@std@@@std@@IEAAX_K@Z 00000001800443a0 f i KenshiMP.Scanner:hook_manager.obj
 0001:000433a0       ?_Forced_rehash@?$_Hash@V?$_Umap_traits@V?$basic_string@DU?$char_traits@D@std@@V?$allocator@D@2@@std@@V?$shared_ptr@Vlogger@spdlog@@@2@V?$_Uhash_compare@V?$basic_string@DU?$char_traits@D@std@@V?$allocator@D@2@@std@@U?$hash@V?$basic_string@DU?$char_traits@D@std@@V?$allocator@D@2@@std@@@2@U?$equal_to@V?$basic_string@DU?$char_traits@D@std@@V?$allocator@D@2@@std@@@2@@2@V?$allocator@U?$pair@$$CBV?$basic_string@DU?$char_traits@D@std@@V?$allocator@D@2@@std@@V?$shared_ptr@Vlogger@spdlog@@@2@@std@@@2@$0A@@std@@@std@@IEAAX_K@Z 00000001800443a0 f i spdlog:spdlog.obj
 0001:00043660       ?_Throw_bad_cast@std@@YAXXZ 0000000180044660 f i command_registry.obj
 0001:00043680       ?overflow@?$basic_stringbuf@DU?$char_traits@D@std@@V?$allocator@D@2@@std@@MEAAHH@Z 0000000180044680 f i command_registry.obj
 0001:000437e0       ?pbackfail@?$basic_stringbuf@DU?$char_traits@D@std@@V?$allocator@D@2@@std@@MEAAHH@Z 00000001800447e0 f i command_registry.obj
 0001:00043870       ?push_back@?$basic_string@DU?$char_traits@D@std@@V?$allocator@D@2@@std@@QEAAXD@Z 0000000180044870 f i command_registry.obj
 0001:000439d0       ?seekoff@?$basic_stringbuf@DU?$char_traits@D@std@@V?$allocator@D@2@@std@@MEAA?AV?$fpos@U_Mbstatet@@@2@_JHH@Z 00000001800449d0 f i command_registry.obj
 0001:00043b80       ?seekpos@?$basic_stringbuf@DU?$char_traits@D@std@@V?$allocator@D@2@@std@@MEAA?AV?$fpos@U_Mbstatet@@@2@V32@H@Z 0000000180044b80 f i command_registry.obj
 0001:00043cd0       ?underflow@?$basic_stringbuf@DU?$char_traits@D@std@@V?$allocator@D@2@@std@@MEAAHXZ 0000000180044cd0 f i command_registry.obj
 0001:00043da0       ??1?$vector@UHookDiag@kmp@@V?$allocator@UHookDiag@kmp@@@std@@@std@@QEAA@XZ 0000000180044da0 f i builtin_commands.obj
 0001:00048b40       ?RegisterBuiltins@CommandRegistry@kmp@@QEAAXXZ 0000000180049b40 f   builtin_commands.obj
 0001:0004a2d0       snprintf                   000000018004b2d0 f i builtin_commands.obj
 0001:0004a330       ??$?0$0DJ@@?$fstring@AEAY0IA@DAEAG@v11@fmt@@QEAA@AEAY0DJ@$$CBD@Z 000000018004b330 f i overlay.obj
 0001:0004a340       ??$?0$0EP@@?$fstring@AEAH@v11@fmt@@QEAA@AEAY0EP@$$CBD@Z 000000018004b340 f i overlay.obj
 0001:0004a350       ??$_Emplace_reallocate@AEBUPlayerInfo@kmp@@@?$vector@UPlayerInfo@kmp@@V?$allocator@UPlayerInfo@kmp@@@std@@@std@@AEAAPEAUPlayerInfo@kmp@@QEAU23@AEBU23@@Z 000000018004b350 f i overlay.obj
 0001:0004a5a0       ??$_Uninitialized_move@PEAUPlayerInfo@kmp@@V?$allocator@UPlayerInfo@kmp@@@std@@@std@@YAPEAUPlayerInfo@kmp@@QEAU12@0PEAU12@AEAV?$allocator@UPlayerInfo@kmp@@@0@@Z 000000018004b5a0 f i overlay.obj
 0001:0004a630       ??$info@AEAY0IA@DAEAG@spdlog@@YAXU?$fstring@AEAY0IA@DAEAG@v11@fmt@@AEAY0IA@DAEAG@Z 000000018004b630 f i overlay.obj
 0001:0004a6e0       ??$log_@AEAY0CA@D@logger@spdlog@@IEAAXUsource_loc@1@W4level_enum@level@1@V?$basic_string_view@D@v11@fmt@@AEAY0CA@D@Z 000000018004b6e0 f i overlay.obj
 0001:0004a8b0       ??$log_@AEAY0IA@DAEAG@logger@spdlog@@IEAAXUsource_loc@1@W4level_enum@level@1@V?$basic_string_view@D@v11@fmt@@AEAY0IA@DAEAG@Z 000000018004b8b0 f i overlay.obj
 0001:0004aaa0       ??1_Reallocation_guard@?$vector@UPlayerInfo@kmp@@V?$allocator@UPlayerInfo@kmp@@@std@@@std@@QEAA@XZ 000000018004baa0 f i overlay.obj
 0001:0004ab40       ?AddChatMessage@Overlay@kmp@@QEAAXIAEBV?$basic_string@DU?$char_traits@D@std@@V?$allocator@D@2@@std@@@Z 000000018004bb40 f   overlay.obj
 0001:0004af90       ?AddPlayer@Overlay@kmp@@QEAAXAEBUPlayerInfo@2@@Z 000000018004bf90 f   overlay.obj
 0001:0004b0a0       ?AddSystemMessage@Overlay@kmp@@QEAAXAEBV?$basic_string@DU?$char_traits@D@std@@V?$allocator@D@2@@std@@@Z 000000018004c0a0 f   overlay.obj
 0001:0004b2b0       ?RemovePlayer@Overlay@kmp@@QEAAXI@Z 000000018004c2b0 f   overlay.obj
 0001:0004b400       ?ResetForReconnect@Overlay@kmp@@QEAAXXZ 000000018004c400 f   overlay.obj
 0001:0004b640       ?SetAutoConnect@Overlay@kmp@@QEAAXAEBV?$basic_string@DU?$char_traits@D@std@@V?$allocator@D@2@@std@@G@Z 000000018004c640 f   overlay.obj
 0001:0004b6b0       ?SetConnectionInfo@Overlay@kmp@@QEAAXAEBV?$basic_string@DU?$char_traits@D@std@@V?$allocator@D@2@@std@@G0@Z 000000018004c6b0 f   overlay.obj
 0001:0004b740       ?SetPlayerName@Overlay@kmp@@QEAAXAEBV?$basic_string@DU?$char_traits@D@std@@V?$allocator@D@2@@std@@@Z 000000018004c740 f   overlay.obj
 0001:0004b7a0       ?Shutdown@Overlay@kmp@@QEAAXXZ 000000018004c7a0 f   overlay.obj
 0001:0004b820       ?Update@Overlay@kmp@@QEAAXXZ 000000018004c820 f   overlay.obj
 0001:0004d9f0       ?_Growmap@?$deque@UChatEntry@NativeHud@kmp@@V?$allocator@UChatEntry@NativeHud@kmp@@@std@@@std@@AEAAX_K@Z 000000018004e9f0 f i native_hud.obj
 0001:0004d9f0       ?_Growmap@?$deque@UChatEntry@Overlay@kmp@@V?$allocator@UChatEntry@Overlay@kmp@@@std@@@std@@AEAAX_K@Z 000000018004e9f0 f i overlay.obj
 0001:0004dbc0       ?push_back@?$deque@UChatEntry@Overlay@kmp@@V?$allocator@UChatEntry@Overlay@kmp@@@std@@@std@@QEAAXAEBUChatEntry@Overlay@kmp@@@Z 000000018004ebc0 f i overlay.obj
 0001:0004dc90       ??$_Erase_tree@V?$allocator@U?$_Tree_node@U?$pair@$$CBV?$basic_string@DU?$char_traits@D@std@@V?$allocator@D@2@@std@@V?$vector@PEAXV?$allocator@PEAX@std@@@2@@std@@PEAX@std@@@std@@@?$_Tree_val@U?$_Tree_simple_types@U?$pair@$$CBV?$basic_string@DU?$char_traits@D@std@@V?$allocator@D@2@@std@@V?$vector@PEAXV?$allocator@PEAX@std@@@2@@std@@@std@@@std@@QEAAXAEAV?$allocator@U?$_Tree_node@U?$pair@$$CBV?$basic_string@DU?$char_traits@D@std@@V?$allocator@D@2@@std@@V?$vector@PEAXV?$allocator@PEAX@std@@@2@@std@@PEAX@std@@@1@PEAU?$_Tree_node@U?$pair@$$CBV?$basic_string@DU?$char_traits@D@std@@V?$allocator@D@2@@std@@V?$vector@PEAXV?$allocator@PEAX@std@@@2@@std@@PEAX@1@@Z 000000018004ec90 f i mygui_bridge.obj
 0001:0004dd20       ??$_Find_lower_bound@V?$basic_string@DU?$char_traits@D@std@@V?$allocator@D@2@@std@@@?$_Tree@V?$_Tmap_traits@V?$basic_string@DU?$char_traits@D@std@@V?$allocator@D@2@@std@@V?$basic_json@Vmap@std@@Vvector@2@V?$basic_string@DU?$char_traits@D@std@@V?$allocator@D@2@@2@_N_J_KNVallocator@2@Uadl_serializer@json_abi_v3_11_3@nlohmann@@V?$vector@EV?$allocator@E@std@@@2@X@json_abi_v3_11_3@nlohmann@@U?$less@X@2@V?$allocator@U?$pair@$$CBV?$basic_string@DU?$char_traits@D@std@@V?$allocator@D@2@@std@@V?$basic_json@Vmap@std@@Vvector@2@V?$basic_string@DU?$char_traits@D@std@@V?$allocator@D@2@@2@_N_J_KNVallocator@2@Uadl_serializer@json_abi_v3_11_3@nlohmann@@V?$vector@EV?$allocator@E@std@@@2@X@json_abi_v3_11_3@nlohmann@@@std@@@2@$0A@@std@@@std@@IEBA?AU?$_Tree_find_result@PEAU?$_Tree_node@U?$pair@$$CBV?$basic_string@DU?$char_traits@D@std@@V?$allocator@D@2@@std@@V?$basic_json@Vmap@std@@Vvector@2@V?$basic_string@DU?$char_traits@D@std@@V?$allocator@D@2@@2@_N_J_KNVallocator@2@Uadl_serializer@json_abi_v3_11_3@nlohmann@@V?$vector@EV?$allocator@E@std@@@2@X@json_abi_v3_11_3@nlohmann@@@std@@PEAX@std@@@1@AEBV?$basic_string@DU?$char_traits@D@std@@V?$allocator@D@2@@1@@Z 000000018004ed20 f i KenshiMP.Common:config.obj
 0001:0004dd20       ??$_Find_lower_bound@V?$basic_string@DU?$char_traits@D@std@@V?$allocator@D@2@@std@@@?$_Tree@V?$_Tmap_traits@V?$basic_string@DU?$char_traits@D@std@@V?$allocator@D@2@@std@@V?$vector@PEAXV?$allocator@PEAX@std@@@2@U?$less@V?$basic_string@DU?$char_traits@D@std@@V?$allocator@D@2@@std@@@2@V?$allocator@U?$pair@$$CBV?$basic_string@DU?$char_traits@D@std@@V?$allocator@D@2@@std@@V?$vector@PEAXV?$allocator@PEAX@std@@@2@@std@@@2@$0A@@std@@@std@@IEBA?AU?$_Tree_find_result@PEAU?$_Tree_node@U?$pair@$$CBV?$basic_string@DU?$char_traits@D@std@@V?$allocator@D@2@@std@@V?$vector@PEAXV?$allocator@PEAX@std@@@2@@std@@PEAX@std@@@1@AEBV?$basic_string@DU?$char_traits@D@std@@V?$allocator@D@2@@1@@Z 000000018004ed20 f i mygui_bridge.obj
 0001:0004de00       ??$_Traits_compare@U?$char_traits@D@std@@@std@@YAHQEBD_K01@Z 000000018004ee00 f i mygui_bridge.obj
 0001:0004de60       ??$error@AEBV?$basic_string@DU?$char_traits@D@std@@V?$allocator@D@2@@std@@@spdlog@@YAXU?$fstring@AEBV?$basic_string@DU?$char_traits@D@std@@V?$allocator@D@2@@std@@@v11@fmt@@AEBV?$basic_string@DU?$char_traits@D@std@@V?$allocator@D@2@@std@@@Z 000000018004ee60 f i mygui_bridge.obj
 0001:0004df00       ??$log_@AEAV?$basic_string@DU?$char_traits@D@std@@V?$allocator@D@2@@std@@AEAV12@@logger@spdlog@@IEAAXUsource_loc@1@W4level_enum@level@1@V?$basic_string_view@D@v11@fmt@@AEAV?$basic_string@DU?$char_traits@D@std@@V?$allocator@D@2@@std@@3@Z 000000018004ef00 f i KenshiMP.Scanner:orchestrator.obj
 0001:0004df00       ??$log_@AEBV?$basic_string@DU?$char_traits@D@std@@V?$allocator@D@2@@std@@AEBV12@@logger@spdlog@@IEAAXUsource_loc@1@W4level_enum@level@1@V?$basic_string_view@D@v11@fmt@@AEBV?$basic_string@DU?$char_traits@D@std@@V?$allocator@D@2@@std@@3@Z 000000018004ef00 f i mygui_bridge.obj
 0001:0004e120       ??$log_@AEAV?$basic_string@DU?$char_traits@D@std@@V?$allocator@D@2@@std@@AEA_KAEA_K@logger@spdlog@@IEAAXUsource_loc@1@W4level_enum@level@1@V?$basic_string_view@D@v11@fmt@@AEAV?$basic_string@DU?$char_traits@D@std@@V?$allocator@D@2@@std@@AEA_K4@Z 000000018004f120 f i KenshiMP.Scanner:orchestrator.obj
 0001:0004e120       ??$log_@AEAV?$basic_string@DU?$char_traits@D@std@@V?$allocator@D@2@@std@@_KAEA_K@logger@spdlog@@IEAAXUsource_loc@1@W4level_enum@level@1@V?$basic_string_view@D@v11@fmt@@AEAV?$basic_string@DU?$char_traits@D@std@@V?$allocator@D@2@@std@@$$QEA_KAEA_K@Z 000000018004f120 f i KenshiMP.Scanner:orchestrator.obj
 0001:0004e120       ??$log_@AEAV?$basic_string@DU?$char_traits@D@std@@V?$allocator@D@2@@std@@_K_K@logger@spdlog@@IEAAXUsource_loc@1@W4level_enum@level@1@V?$basic_string_view@D@v11@fmt@@AEAV?$basic_string@DU?$char_traits@D@std@@V?$allocator@D@2@@std@@$$QEA_K4@Z 000000018004f120 f i KenshiMP.Scanner:orchestrator.obj
 0001:0004e120       ??$log_@AEBV?$basic_string@DU?$char_traits@D@std@@V?$allocator@D@2@@std@@_K_K@logger@spdlog@@IEAAXUsource_loc@1@W4level_enum@level@1@V?$basic_string_view@D@v11@fmt@@AEBV?$basic_string@DU?$char_traits@D@std@@V?$allocator@D@2@@std@@$$QEA_K4@Z 000000018004f120 f i mygui_bridge.obj
 0001:0004e350       ??$log_@PEBDPEBD@logger@spdlog@@IEAAXUsource_loc@1@W4level_enum@level@1@V?$basic_string_view@D@v11@fmt@@$$QEAPEBD3@Z 000000018004f350 f i mygui_bridge.obj
 0001:0004e540       ??$log_@AEA_KAEAV?$basic_string@DU?$char_traits@D@std@@V?$allocator@D@2@@std@@@logger@spdlog@@IEAAXUsource_loc@1@W4level_enum@level@1@V?$basic_string_view@D@v11@fmt@@AEA_KAEAV?$basic_string@DU?$char_traits@D@std@@V?$allocator@D@2@@std@@@Z 000000018004f540 f i KenshiMP.Scanner:orchestrator.obj
 0001:0004e540       ??$log_@_KAEBV?$basic_string@DU?$char_traits@D@std@@V?$allocator@D@2@@std@@@logger@spdlog@@IEAAXUsource_loc@1@W4level_enum@level@1@V?$basic_string_view@D@v11@fmt@@$$QEA_KAEBV?$basic_string@DU?$char_traits@D@std@@V?$allocator@D@2@@std@@@Z 000000018004f540 f i mygui_bridge.obj
 0001:0004e750       ??1?$_Alloc_construct_ptr@V?$allocator@U?$_Tree_node@U?$pair@$$CBV?$basic_string@DU?$char_traits@D@std@@V?$allocator@D@2@@std@@V?$vector@PEAXV?$allocator@PEAX@std@@@2@@std@@PEAX@std@@@std@@@std@@QEAA@XZ 000000018004f750 f i mygui_bridge.obj
 0001:0004e750       ??1?$_Tree_temp_node_alloc@V?$allocator@U?$_Tree_node@U?$pair@$$CBV?$basic_string@DU?$char_traits@D@std@@V?$allocator@D@2@@std@@V?$vector@PEAXV?$allocator@PEAX@std@@@2@@std@@PEAX@std@@@std@@@std@@QEAA@XZ 000000018004f750 f i mygui_bridge.obj
 0001:0004e770       ??1?$vector@PEAXV?$allocator@PEAX@std@@@std@@QEAA@XZ 000000018004f770 f i mygui_bridge.obj
 0001:0004e780       ??$?RAEBV?$basic_string@DU?$char_traits@D@std@@V?$allocator@D@2@@std@@AEBV01@@?$less@X@std@@QEBA_NAEBV?$basic_string@DU?$char_traits@D@std@@V?$allocator@D@2@@1@0@Z 000000018004f780 f i KenshiMP.Common:config.obj
 0001:0004e780       ??R?$less@V?$basic_string@DU?$char_traits@D@std@@V?$allocator@D@2@@std@@@std@@QEBA_NAEBV?$basic_string@DU?$char_traits@D@std@@V?$allocator@D@2@@1@0@Z 000000018004f780 f i mygui_bridge.obj
 0001:0004e7f0       ?CreateChildWidget@MyGuiBridge@kmp@@QEAAPEAXPEAXAEBV?$basic_string@DU?$char_traits@D@std@@V?$allocator@D@2@@std@@1MMMMH1@Z 000000018004f7f0 f   mygui_bridge.obj
 0001:0004e8b0       ?CreateRootWidget@MyGuiBridge@kmp@@QEAAPEAXAEBV?$basic_string@DU?$char_traits@D@std@@V?$allocator@D@2@@std@@0MMMMH00@Z 000000018004f8b0 f   mygui_bridge.obj
 0001:0004e9d0       ?DecodeUString@MyGuiBridge@kmp@@CA?AV?$basic_string@DU?$char_traits@D@std@@V?$allocator@D@2@@std@@PEBUUStringLayout@12@@Z 000000018004f9d0 f   mygui_bridge.obj
 0001:0004ec60       ?FindWidget@MyGuiBridge@kmp@@QEAAPEAXAEBV?$basic_string@DU?$char_traits@D@std@@V?$allocator@D@2@@std@@@Z 000000018004fc60 f   mygui_bridge.obj
 0001:0004ecc0       ?Get@MyGuiBridge@kmp@@SAAEAV12@XZ 000000018004fcc0 f   mygui_bridge.obj
 0001:0004ed60       ?GetCaption@MyGuiBridge@kmp@@QEAA?AV?$basic_string@DU?$char_traits@D@std@@V?$allocator@D@2@@std@@PEAX@Z 000000018004fd60 f   mygui_bridge.obj
 0001:0004ee10       ?Init@MyGuiBridge@kmp@@QEAA_NXZ 000000018004fe10 f   mygui_bridge.obj
 0001:0004f630       ?LoadLayout@MyGuiBridge@kmp@@QEAA_NAEBV?$basic_string@DU?$char_traits@D@std@@V?$allocator@D@2@@std@@0@Z 0000000180050630 f   mygui_bridge.obj
 0001:0004fea0       ?SetCaption@MyGuiBridge@kmp@@QEAAXPEAXAEBV?$basic_string@DU?$char_traits@D@std@@V?$allocator@D@2@@std@@@Z 0000000180050ea0 f   mygui_bridge.obj
 0001:0004fee0       ?SetProperty@MyGuiBridge@kmp@@QEAAXPEAXAEBV?$basic_string@DU?$char_traits@D@std@@V?$allocator@D@2@@std@@1@Z 0000000180050ee0 f   mygui_bridge.obj
 0001:0004ffb0       ?SetVisible@MyGuiBridge@kmp@@QEAAXPEAX_N@Z 0000000180050fb0 f   mygui_bridge.obj
 0001:00050180       ?UnloadLayout@MyGuiBridge@kmp@@QEAAXAEBV?$basic_string@DU?$char_traits@D@std@@V?$allocator@D@2@@std@@@Z 0000000180051180 f   mygui_bridge.obj
 0001:000502d0       ?_Extract@?$_Tree_val@U?$_Tree_simple_types@U?$pair@$$CBV?$basic_string@DU?$char_traits@D@std@@V?$allocator@D@2@@std@@V?$basic_json@Vmap@std@@Vvector@2@V?$basic_string@DU?$char_traits@D@std@@V?$allocator@D@2@@2@_N_J_KNVallocator@2@Uadl_serializer@json_abi_v3_11_3@nlohmann@@V?$vector@EV?$allocator@E@std@@@2@X@json_abi_v3_11_3@nlohmann@@@std@@@std@@@std@@QEAAPEAU?$_Tree_node@U?$pair@$$CBV?$basic_string@DU?$char_traits@D@std@@V?$allocator@D@2@@std@@V?$basic_json@Vmap@std@@Vvector@2@V?$basic_string@DU?$char_traits@D@std@@V?$allocator@D@2@@2@_N_J_KNVallocator@2@Uadl_serializer@json_abi_v3_11_3@nlohmann@@V?$vector@EV?$allocator@E@std@@@2@X@json_abi_v3_11_3@nlohmann@@@std@@PEAX@2@V?$_Tree_unchecked_const_iterator@V?$_Tree_val@U?$_Tree_simple_types@U?$pair@$$CBV?$basic_string@DU?$char_traits@D@std@@V?$allocator@D@2@@std@@V?$basic_json@Vmap@std@@Vvector@2@V?$basic_string@DU?$char_traits@D@std@@V?$allocator@D@2@@2@_N_J_KNVallocator@2@Uadl_serializer@json_abi_v3_11_3@nlohmann@@V?$vector@EV?$allocator@E@std@@@2@X@json_abi_v3_11_3@nlohmann@@@std@@@std@@@std@@U_Iterator_base0@2@@2@@Z 00000001800512d0 f i KenshiMP.Common:config.obj
 0001:000502d0       ?_Extract@?$_Tree_val@U?$_Tree_simple_types@U?$pair@$$CBV?$basic_string@DU?$char_traits@D@std@@V?$allocator@D@2@@std@@V?$vector@PEAXV?$allocator@PEAX@std@@@2@@std@@@std@@@std@@QEAAPEAU?$_Tree_node@U?$pair@$$CBV?$basic_string@DU?$char_traits@D@std@@V?$allocator@D@2@@std@@V?$vector@PEAXV?$allocator@PEAX@std@@@2@@std@@PEAX@2@V?$_Tree_unchecked_const_iterator@V?$_Tree_val@U?$_Tree_simple_types@U?$pair@$$CBV?$basic_string@DU?$char_traits@D@std@@V?$allocator@D@2@@std@@V?$vector@PEAXV?$allocator@PEAX@std@@@2@@std@@@std@@@std@@U_Iterator_base0@2@@2@@Z 00000001800512d0 f i mygui_bridge.obj
 0001:000506c0       ?_Insert_node@?$_Tree_val@U?$_Tree_simple_types@U?$pair@$$CBV?$basic_string@DU?$char_traits@D@std@@V?$allocator@D@2@@std@@V?$basic_json@Vmap@std@@Vvector@2@V?$basic_string@DU?$char_traits@D@std@@V?$allocator@D@2@@2@_N_J_KNVallocator@2@Uadl_serializer@json_abi_v3_11_3@nlohmann@@V?$vector@EV?$allocator@E@std@@@2@X@json_abi_v3_11_3@nlohmann@@@std@@@std@@@std@@QEAAPEAU?$_Tree_node@U?$pair@$$CBV?$basic_string@DU?$char_traits@D@std@@V?$allocator@D@2@@std@@V?$basic_json@Vmap@std@@Vvector@2@V?$basic_string@DU?$char_traits@D@std@@V?$allocator@D@2@@2@_N_J_KNVallocator@2@Uadl_serializer@json_abi_v3_11_3@nlohmann@@V?$vector@EV?$allocator@E@std@@@2@X@json_abi_v3_11_3@nlohmann@@@std@@PEAX@2@U?$_Tree_id@PEAU?$_Tree_node@U?$pair@$$CBV?$basic_string@DU?$char_traits@D@std@@V?$allocator@D@2@@std@@V?$basic_json@Vmap@std@@Vvector@2@V?$basic_string@DU?$char_traits@D@std@@V?$allocator@D@2@@2@_N_J_KNVallocator@2@Uadl_serializer@json_abi_v3_11_3@nlohmann@@V?$vector@EV?$allocator@E@std@@@2@X@json_abi_v3_11_3@nlohmann@@@std@@PEAX@std@@@2@QEAU32@@Z 00000001800516c0 f i KenshiMP.Common:config.obj
 0001:000506c0       ?_Insert_node@?$_Tree_val@U?$_Tree_simple_types@U?$pair@$$CBV?$basic_string@DU?$char_traits@D@std@@V?$allocator@D@2@@std@@V?$vector@PEAXV?$allocator@PEAX@std@@@2@@std@@@std@@@std@@QEAAPEAU?$_Tree_node@U?$pair@$$CBV?$basic_string@DU?$char_traits@D@std@@V?$allocator@D@2@@std@@V?$vector@PEAXV?$allocator@PEAX@std@@@2@@std@@PEAX@2@U?$_Tree_id@PEAU?$_Tree_node@U?$pair@$$CBV?$basic_string@DU?$char_traits@D@std@@V?$allocator@D@2@@std@@V?$vector@PEAXV?$allocator@PEAX@std@@@2@@std@@PEAX@std@@@2@QEAU32@@Z 00000001800516c0 f i mygui_bridge.obj
 0001:00050920       ?_Lrotate@?$_Tree_val@U?$_Tree_simple_types@U?$pair@$$CBV?$basic_string@DU?$char_traits@D@std@@V?$allocator@D@2@@std@@V?$basic_json@Vmap@std@@Vvector@2@V?$basic_string@DU?$char_traits@D@std@@V?$allocator@D@2@@2@_N_J_KNVallocator@2@Uadl_serializer@json_abi_v3_11_3@nlohmann@@V?$vector@EV?$allocator@E@std@@@2@X@json_abi_v3_11_3@nlohmann@@@std@@@std@@@std@@QEAAXPEAU?$_Tree_node@U?$pair@$$CBV?$basic_string@DU?$char_traits@D@std@@V?$allocator@D@2@@std@@V?$basic_json@Vmap@std@@Vvector@2@V?$basic_string@DU?$char_traits@D@std@@V?$allocator@D@2@@2@_N_J_KNVallocator@2@Uadl_serializer@json_abi_v3_11_3@nlohmann@@V?$vector@EV?$allocator@E@std@@@2@X@json_abi_v3_11_3@nlohmann@@@std@@PEAX@2@@Z 0000000180051920 f i KenshiMP.Common:config.obj
 0001:00050920       ?_Lrotate@?$_Tree_val@U?$_Tree_simple_types@U?$pair@$$CBV?$basic_string@DU?$char_traits@D@std@@V?$allocator@D@2@@std@@V?$vector@PEAXV?$allocator@PEAX@std@@@2@@std@@@std@@@std@@QEAAXPEAU?$_Tree_node@U?$pair@$$CBV?$basic_string@DU?$char_traits@D@std@@V?$allocator@D@2@@std@@V?$vector@PEAXV?$allocator@PEAX@std@@@2@@std@@PEAX@2@@Z 0000000180051920 f i mygui_bridge.obj
 0001:00050980       ?_Rrotate@?$_Tree_val@U?$_Tree_simple_types@U?$pair@$$CBV?$basic_string@DU?$char_traits@D@std@@V?$allocator@D@2@@std@@V?$basic_json@Vmap@std@@Vvector@2@V?$basic_string@DU?$char_traits@D@std@@V?$allocator@D@2@@2@_N_J_KNVallocator@2@Uadl_serializer@json_abi_v3_11_3@nlohmann@@V?$vector@EV?$allocator@E@std@@@2@X@json_abi_v3_11_3@nlohmann@@@std@@@std@@@std@@QEAAXPEAU?$_Tree_node@U?$pair@$$CBV?$basic_string@DU?$char_traits@D@std@@V?$allocator@D@2@@std@@V?$basic_json@Vmap@std@@Vvector@2@V?$basic_string@DU?$char_traits@D@std@@V?$allocator@D@2@@2@_N_J_KNVallocator@2@Uadl_serializer@json_abi_v3_11_3@nlohmann@@V?$vector@EV?$allocator@E@std@@@2@X@json_abi_v3_11_3@nlohmann@@@std@@PEAX@2@@Z 0000000180051980 f i KenshiMP.Common:config.obj
 0001:00050980       ?_Rrotate@?$_Tree_val@U?$_Tree_simple_types@U?$pair@$$CBV?$basic_string@DU?$char_traits@D@std@@V?$allocator@D@2@@std@@V?$vector@PEAXV?$allocator@PEAX@std@@@2@@std@@@std@@@std@@QEAAXPEAU?$_Tree_node@U?$pair@$$CBV?$basic_string@DU?$char_traits@D@std@@V?$allocator@D@2@@std@@V?$vector@PEAXV?$allocator@PEAX@std@@@2@@std@@PEAX@2@@Z 0000000180051980 f i mygui_bridge.obj
 0001:000509e0       ?_Throw_tree_length_error@std@@YAXXZ 00000001800519e0 f i mygui_bridge.obj
 0001:00050a00       ?reserve@?$basic_string@DU?$char_traits@D@std@@V?$allocator@D@2@@std@@QEAAX_K@Z 0000000180051a00 f i mygui_bridge.obj
 0001:00050b90       ??$log_@AEAHAEAV?$basic_string@DU?$char_traits@D@std@@V?$allocator@D@2@@std@@AEAV12@@logger@spdlog@@IEAAXUsource_loc@1@W4level_enum@level@1@V?$basic_string_view@D@v11@fmt@@AEAHAEAV?$basic_string@DU?$char_traits@D@std@@V?$allocator@D@2@@std@@4@Z 0000000180051b90 f i native_menu.obj
 0001:00050dd0       ??$log_@AEAV?$basic_string@DU?$char_traits@D@std@@V?$allocator@D@2@@std@@AEAGAEAV12@@logger@spdlog@@IEAAXUsource_loc@1@W4level_enum@level@1@V?$basic_string_view@D@v11@fmt@@AEAV?$basic_string@DU?$char_traits@D@std@@V?$allocator@D@2@@std@@AEAG3@Z 0000000180051dd0 f i native_menu.obj
 0001:00051010       ??$log_@AEAV?$basic_string@DU?$char_traits@D@std@@V?$allocator@D@2@@std@@AEA_N@logger@spdlog@@IEAAXUsource_loc@1@W4level_enum@level@1@V?$basic_string_view@D@v11@fmt@@AEAV?$basic_string@DU?$char_traits@D@std@@V?$allocator@D@2@@std@@AEA_N@Z 0000000180052010 f i native_menu.obj
 0001:00051390       ?CacheWidgets@NativeMenu@kmp@@AEAA_NXZ 0000000180052390 f   native_menu.obj
 0001:00051fd0       ?Hide@NativeMenu@kmp@@QEAAXXZ 0000000180052fd0 f   native_menu.obj
 0001:00052160       ?Init@NativeMenu@kmp@@QEAA_NXZ 0000000180053160 f   native_menu.obj
 0001:00052e70       ?OnChar@NativeMenu@kmp@@QEAAX_W@Z 0000000180053e70 f   native_menu.obj
 0001:00052f50       ?OnClick@NativeMenu@kmp@@QEAAXHH@Z 0000000180053f50 f   native_menu.obj
 0001:00053db0       ?OnConnectClicked@NativeMenu@kmp@@AEAAXXZ 0000000180054db0 f   native_menu.obj
 0001:000553b0       ?OnHostClicked@NativeMenu@kmp@@AEAAXXZ 00000001800563b0 f   native_menu.obj
 0001:00055f90       ?OnKeyDown@NativeMenu@kmp@@QEAAXH@Z 0000000180056f90 f   native_menu.obj
 0001:00056120       ?OnRefreshServersClicked@NativeMenu@kmp@@AEAAXXZ 0000000180057120 f   native_menu.obj
 0001:000568a0       ?OnServerBrowserClicked@NativeMenu@kmp@@AEAAXXZ 00000001800578a0 f   native_menu.obj
 0001:00056dc0       ?OnSettingsSaved@NativeMenu@kmp@@AEAAXXZ 0000000180057dc0 f   native_menu.obj
 0001:00057090       ?SetStatus@NativeMenu@kmp@@QEAAXAEBV?$basic_string@DU?$char_traits@D@std@@V?$allocator@D@2@@std@@@Z 0000000180058090 f   native_menu.obj
 0001:000570d0       ?Show@NativeMenu@kmp@@QEAAXXZ 00000001800580d0 f   native_menu.obj
 0001:00057350       ?ShowPanel@NativeMenu@kmp@@QEAAXW4Panel@12@@Z 0000000180058350 f   native_menu.obj
 0001:00057490       ?Shutdown@NativeMenu@kmp@@QEAAXXZ 0000000180058490 f   native_menu.obj
 0001:000575b0       ?find@?$basic_string@DU?$char_traits@D@std@@V?$allocator@D@2@@std@@QEBA_KD_K@Z 00000001800585b0 f i native_menu.obj
 0001:00057620       ??$getline@DU?$char_traits@D@std@@V?$allocator@D@2@@std@@YAAEAV?$basic_istream@DU?$char_traits@D@std@@@0@$$QEAV10@AEAV?$basic_string@DU?$char_traits@D@std@@V?$allocator@D@2@@0@D@Z 0000000180058620 f i native_hud.obj
 0001:000577c0       ??$log_@AEAH_N_N_N_N@logger@spdlog@@IEAAXUsource_loc@1@W4level_enum@level@1@V?$basic_string_view@D@v11@fmt@@AEAH$$QEA_N444@Z 00000001800587c0 f i native_hud.obj
 0001:00057a10       ?AddChatMessage@NativeHud@kmp@@QEAAXAEBV?$basic_string@DU?$char_traits@D@std@@V?$allocator@D@2@@std@@0@Z 0000000180058a10 f   native_hud.obj
 0001:00057ea0       ?AddSystemMessage@NativeHud@kmp@@QEAAXAEBV?$basic_string@DU?$char_traits@D@std@@V?$allocator@D@2@@std@@@Z 0000000180058ea0 f   native_hud.obj
 0001:00058250       ?CacheWidgets@NativeHud@kmp@@AEAA_NXZ 0000000180059250 f   native_hud.obj
 0001:00059390       ?CloseChatInput@NativeHud@kmp@@QEAAXXZ 000000018005a390 f   native_hud.obj
 0001:00059490       ?CreateWidgetsFallback@NativeHud@kmp@@AEAA_NXZ 000000018005a490 f   native_hud.obj
 0001:0005b640       ?Init@NativeHud@kmp@@QEAA_NXZ 000000018005c640 f   native_hud.obj
 0001:0005bc40       ?LogStep@NativeHud@kmp@@QEAAXAEBV?$basic_string@DU?$char_traits@D@std@@V?$allocator@D@2@@std@@0@Z 000000018005cc40 f   native_hud.obj
 0001:0005c3f0       ?OnChatChar@NativeHud@kmp@@QEAAX_W@Z 000000018005d3f0 f   native_hud.obj
 0001:0005c650       ?OnChatKeyDown@NativeHud@kmp@@QEAAXH@Z 000000018005d650 f   native_hud.obj
 0001:0005c8e0       ?OpenChatInput@NativeHud@kmp@@QEAAXXZ 000000018005d8e0 f   native_hud.obj
 0001:0005c9f0       ?SendChatMessage@NativeHud@kmp@@AEAAXXZ 000000018005d9f0 f   native_hud.obj
 0001:0005cff0       ?Shutdown@NativeHud@kmp@@QEAAXXZ 000000018005dff0 f   native_hud.obj
 0001:0005d110       ?ToggleLogPanel@NativeHud@kmp@@QEAAXXZ 000000018005e110 f   native_hud.obj
 0001:0005d200       ?TogglePlayerList@NativeHud@kmp@@QEAAXXZ 000000018005e200 f   native_hud.obj
 0001:0005d2c0       ?Update@NativeHud@kmp@@QEAAXXZ 000000018005e2c0 f   native_hud.obj
 0001:0005d580       ?UpdateChatDisplay@NativeHud@kmp@@AEAAXXZ 000000018005e580 f   native_hud.obj
 0001:0005dc50       ?UpdateLogPanel@NativeHud@kmp@@AEAAXXZ 000000018005ec50 f   native_hud.obj
 0001:0005e0c0       ?UpdatePlayerList@NativeHud@kmp@@AEAAXXZ 000000018005f0c0 f   native_hud.obj
 0001:0005e490       ?UpdateStatusBar@NativeHud@kmp@@AEAAXXZ 000000018005f490 f   native_hud.obj
 0001:0005ef20       ?pop_front@?$deque@UChatEntry@NativeHud@kmp@@V?$allocator@UChatEntry@NativeHud@kmp@@@std@@@std@@QEAAXXZ 000000018005ff20 f i native_hud.obj
 0001:0005ef80       ?push_back@?$deque@UChatEntry@NativeHud@kmp@@V?$allocator@UChatEntry@NativeHud@kmp@@@std@@@std@@QEAAXAEBUChatEntry@NativeHud@kmp@@@Z 000000018005ff80 f i native_hud.obj
 0001:0005f050       ??$?0AEBV?$basic_string@DU?$char_traits@D@std@@V?$allocator@D@2@@std@@V01@$0A@@?$basic_json@Vmap@std@@Vvector@2@V?$basic_string@DU?$char_traits@D@std@@V?$allocator@D@2@@2@_N_J_KNVallocator@2@Uadl_serializer@json_abi_v3_11_3@nlohmann@@V?$vector@EV?$allocator@E@std@@@2@X@json_abi_v3_11_3@nlohmann@@QEAA@AEBV?$basic_string@DU?$char_traits@D@std@@V?$allocator@D@2@@std@@@Z 0000000180060050 f i KenshiMP.Common:config.obj
 0001:0005f0d0       ??$?0AEBV?$vector@V?$basic_string@DU?$char_traits@D@std@@V?$allocator@D@2@@std@@V?$allocator@V?$basic_string@DU?$char_traits@D@std@@V?$allocator@D@2@@std@@@2@@std@@V01@$0A@@?$basic_json@Vmap@std@@Vvector@2@V?$basic_string@DU?$char_traits@D@std@@V?$allocator@D@2@@2@_N_J_KNVallocator@2@Uadl_serializer@json_abi_v3_11_3@nlohmann@@V?$vector@EV?$allocator@E@std@@@2@X@json_abi_v3_11_3@nlohmann@@QEAA@AEBV?$vector@V?$basic_string@DU?$char_traits@D@std@@V?$allocator@D@2@@std@@V?$allocator@V?$basic_string@DU?$char_traits@D@std@@V?$allocator@D@2@@std@@@2@@std@@@Z 00000001800600d0 f i KenshiMP.Common:config.obj
 0001:0005f240       ??$_Copy_nodes@$0A@@?$_Tree@V?$_Tmap_traits@V?$basic_string@DU?$char_traits@D@std@@V?$allocator@D@2@@std@@V?$basic_json@Vmap@std@@Vvector@2@V?$basic_string@DU?$char_traits@D@std@@V?$allocator@D@2@@2@_N_J_KNVallocator@2@Uadl_serializer@json_abi_v3_11_3@nlohmann@@V?$vector@EV?$allocator@E@std@@@2@X@json_abi_v3_11_3@nlohmann@@U?$less@X@2@V?$allocator@U?$pair@$$CBV?$basic_string@DU?$char_traits@D@std@@V?$allocator@D@2@@std@@V?$basic_json@Vmap@std@@Vvector@2@V?$basic_string@DU?$char_traits@D@std@@V?$allocator@D@2@@2@_N_J_KNVallocator@2@Uadl_serializer@json_abi_v3_11_3@nlohmann@@V?$vector@EV?$allocator@E@std@@@2@X@json_abi_v3_11_3@nlohmann@@@std@@@2@$0A@@std@@@std@@IEAAPEAU?$_Tree_node@U?$pair@$$CBV?$basic_string@DU?$char_traits@D@std@@V?$allocator@D@2@@std@@V?$basic_json@Vmap@std@@Vvector@2@V?$basic_string@DU?$char_traits@D@std@@V?$allocator@D@2@@2@_N_J_KNVallocator@2@Uadl_serializer@json_abi_v3_11_3@nlohmann@@V?$vector@EV?$allocator@E@std@@@2@X@json_abi_v3_11_3@nlohmann@@@std@@PEAX@1@PEAU21@0@Z 0000000180060240 f i KenshiMP.Common:config.obj
 0001:0005f320       ??$_Copy_vbool@V?$_Vb_iterator@U?$_Wrap_alloc@V?$allocator@I@std@@@std@@@std@@V12@@std@@YA?AV?$_Vb_iterator@U?$_Wrap_alloc@V?$allocator@I@std@@@std@@@0@V10@00@Z 0000000180060320 f i KenshiMP.Common:config.obj
 0001:0005f740       ??$_Emplace_one_at_back@D@?$vector@DV?$allocator@D@std@@@std@@AEAAAEAD$$QEAD@Z 0000000180060740 f i KenshiMP.Common:config.obj
 0001:0005f740       ??$_Emplace_one_at_back@E@?$vector@EV?$allocator@E@std@@@std@@AEAAAEAE$$QEAE@Z 0000000180060740 f i KenshiMP.Scanner:scanner.obj
 0001:0005f8a0       ??$_Emplace_reallocate@$$T@?$vector@V?$basic_json@Vmap@std@@Vvector@2@V?$basic_string@DU?$char_traits@D@std@@V?$allocator@D@2@@2@_N_J_KNVallocator@2@Uadl_serializer@json_abi_v3_11_3@nlohmann@@V?$vector@EV?$allocator@E@std@@@2@X@json_abi_v3_11_3@nlohmann@@V?$allocator@V?$basic_json@Vmap@std@@Vvector@2@V?$basic_string@DU?$char_traits@D@std@@V?$allocator@D@2@@2@_N_J_KNVallocator@2@Uadl_serializer@json_abi_v3_11_3@nlohmann@@V?$vector@EV?$allocator@E@std@@@2@X@json_abi_v3_11_3@nlohmann@@@std@@@std@@AEAAPEAV?$basic_json@Vmap@std@@Vvector@2@V?$basic_string@DU?$char_traits@D@std@@V?$allocator@D@2@@2@_N_J_KNVallocator@2@Uadl_serializer@json_abi_v3_11_3@nlohmann@@V?$vector@EV?$allocator@E@std@@@2@X@json_abi_v3_11_3@nlohmann@@QEAV234@$$QEA$$T@Z 00000001800608a0 f i KenshiMP.Common:config.obj
 0001:0005fa40       ??$_Emplace_reallocate@AEAN@?$vector@V?$basic_json@Vmap@std@@Vvector@2@V?$basic_string@DU?$char_traits@D@std@@V?$allocator@D@2@@2@_N_J_KNVallocator@2@Uadl_serializer@json_abi_v3_11_3@nlohmann@@V?$vector@EV?$allocator@E@std@@@2@X@json_abi_v3_11_3@nlohmann@@V?$allocator@V?$basic_json@Vmap@std@@Vvector@2@V?$basic_string@DU?$char_traits@D@std@@V?$allocator@D@2@@2@_N_J_KNVallocator@2@Uadl_serializer@json_abi_v3_11_3@nlohmann@@V?$vector@EV?$allocator@E@std@@@2@X@json_abi_v3_11_3@nlohmann@@@std@@@std@@AEAAPEAV?$basic_json@Vmap@std@@Vvector@2@V?$basic_string@DU?$char_traits@D@std@@V?$allocator@D@2@@2@_N_J_KNVallocator@2@Uadl_serializer@json_abi_v3_11_3@nlohmann@@V?$vector@EV?$allocator@E@std@@@2@X@json_abi_v3_11_3@nlohmann@@QEAV234@AEAN@Z 0000000180060a40 f i KenshiMP.Common:config.obj
 0001:0005fc20       ??$_Emplace_reallocate@AEAV?$basic_string@DU?$char_traits@D@std@@V?$allocator@D@2@@std@@@?$vector@V?$basic_json@Vmap@std@@Vvector@2@V?$basic_string@DU?$char_traits@D@std@@V?$allocator@D@2@@2@_N_J_KNVallocator@2@Uadl_serializer@json_abi_v3_11_3@nlohmann@@V?$vector@EV?$allocator@E@std@@@2@X@json_abi_v3_11_3@nlohmann@@V?$allocator@V?$basic_json@Vmap@std@@Vvector@2@V?$basic_string@DU?$char_traits@D@std@@V?$allocator@D@2@@2@_N_J_KNVallocator@2@Uadl_serializer@json_abi_v3_11_3@nlohmann@@V?$vector@EV?$allocator@E@std@@@2@X@json_abi_v3_11_3@nlohmann@@@std@@@std@@AEAAPEAV?$basic_json@Vmap@std@@Vvector@2@V?$basic_string@DU?$char_traits@D@std@@V?$allocator@D@2@@2@_N_J_KNVallocator@2@Uadl_serializer@json_abi_v3_11_3@nlohmann@@V?$vector@EV?$allocator@E@std@@@2@X@json_abi_v3_11_3@nlohmann@@QEAV234@AEAV?$basic_string@DU?$char_traits@D@std@@V?$allocator@D@2@@1@@Z 0000000180060c20 f i KenshiMP.Common:config.obj
 0001:0005fe10       ??$_Emplace_reallocate@AEA_J@?$vector@V?$basic_json@Vmap@std@@Vvector@2@V?$basic_string@DU?$char_traits@D@std@@V?$allocator@D@2@@2@_N_J_KNVallocator@2@Uadl_serializer@json_abi_v3_11_3@nlohmann@@V?$vector@EV?$allocator@E@std@@@2@X@json_abi_v3_11_3@nlohmann@@V?$allocator@V?$basic_json@Vmap@std@@Vvector@2@V?$basic_string@DU?$char_traits@D@std@@V?$allocator@D@2@@2@_N_J_KNVallocator@2@Uadl_serializer@json_abi_v3_11_3@nlohmann@@V?$vector@EV?$allocator@E@std@@@2@X@json_abi_v3_11_3@nlohmann@@@std@@@std@@AEAAPEAV?$basic_json@Vmap@std@@Vvector@2@V?$basic_string@DU?$char_traits@D@std@@V?$allocator@D@2@@2@_N_J_KNVallocator@2@Uadl_serializer@json_abi_v3_11_3@nlohmann@@V?$vector@EV?$allocator@E@std@@@2@X@json_abi_v3_11_3@nlohmann@@QEAV234@AEA_J@Z 0000000180060e10 f i KenshiMP.Common:config.obj
 0001:0005ffe0       ??$_Emplace_reallocate@AEA_K@?$vector@V?$basic_json@Vmap@std@@Vvector@2@V?$basic_string@DU?$char_traits@D@std@@V?$allocator@D@2@@2@_N_J_KNVallocator@2@Uadl_serializer@json_abi_v3_11_3@nlohmann@@V?$vector@EV?$allocator@E@std@@@2@X@json_abi_v3_11_3@nlohmann@@V?$allocator@V?$basic_json@Vmap@std@@Vvector@2@V?$basic_string@DU?$char_traits@D@std@@V?$allocator@D@2@@2@_N_J_KNVallocator@2@Uadl_serializer@json_abi_v3_11_3@nlohmann@@V?$vector@EV?$allocator@E@std@@@2@X@json_abi_v3_11_3@nlohmann@@@std@@@std@@AEAAPEAV?$basic_json@Vmap@std@@Vvector@2@V?$basic_string@DU?$char_traits@D@std@@V?$allocator@D@2@@2@_N_J_KNVallocator@2@Uadl_serializer@json_abi_v3_11_3@nlohmann@@V?$vector@EV?$allocator@E@std@@@2@X@json_abi_v3_11_3@nlohmann@@QEAV234@AEA_K@Z 0000000180060fe0 f i KenshiMP.Common:config.obj
 0001:000601b0       ??$_Emplace_reallocate@AEA_N@?$vector@V?$basic_json@Vmap@std@@Vvector@2@V?$basic_string@DU?$char_traits@D@std@@V?$allocator@D@2@@2@_N_J_KNVallocator@2@Uadl_serializer@json_abi_v3_11_3@nlohmann@@V?$vector@EV?$allocator@E@std@@@2@X@json_abi_v3_11_3@nlohmann@@V?$allocator@V?$basic_json@Vmap@std@@Vvector@2@V?$basic_string@DU?$char_traits@D@std@@V?$allocator@D@2@@2@_N_J_KNVallocator@2@Uadl_serializer@json_abi_v3_11_3@nlohmann@@V?$vector@EV?$allocator@E@std@@@2@X@json_abi_v3_11_3@nlohmann@@@std@@@std@@AEAAPEAV?$basic_json@Vmap@std@@Vvector@2@V?$basic_string@DU?$char_traits@D@std@@V?$allocator@D@2@@2@_N_J_KNVallocator@2@Uadl_serializer@json_abi_v3_11_3@nlohmann@@V?$vector@EV?$allocator@E@std@@@2@X@json_abi_v3_11_3@nlohmann@@QEAV234@AEA_N@Z 00000001800611b0 f i KenshiMP.Common:config.obj
 0001:00060390       ??$_Emplace_reallocate@V?$basic_json@Vmap@std@@Vvector@2@V?$basic_string@DU?$char_traits@D@std@@V?$allocator@D@2@@2@_N_J_KNVallocator@2@Uadl_serializer@json_abi_v3_11_3@nlohmann@@V?$vector@EV?$allocator@E@std@@@2@X@json_abi_v3_11_3@nlohmann@@@?$vector@V?$basic_json@Vmap@std@@Vvector@2@V?$basic_string@DU?$char_traits@D@std@@V?$allocator@D@2@@2@_N_J_KNVallocator@2@Uadl_serializer@json_abi_v3_11_3@nlohmann@@V?$vector@EV?$allocator@E@std@@@2@X@json_abi_v3_11_3@nlohmann@@V?$allocator@V?$basic_json@Vmap@std@@Vvector@2@V?$basic_string@DU?$char_traits@D@std@@V?$allocator@D@2@@2@_N_J_KNVallocator@2@Uadl_serializer@json_abi_v3_11_3@nlohmann@@V?$vector@EV?$allocator@E@std@@@2@X@json_abi_v3_11_3@nlohmann@@@std@@@std@@AEAAPEAV?$basic_json@Vmap@std@@Vvector@2@V?$basic_string@DU?$char_traits@D@std@@V?$allocator@D@2@@2@_N_J_KNVallocator@2@Uadl_serializer@json_abi_v3_11_3@nlohmann@@V?$vector@EV?$allocator@E@std@@@2@X@json_abi_v3_11_3@nlohmann@@QEAV234@$$QEAV234@@Z 0000000180061390 f i KenshiMP.Common:config.obj
 0001:00060530       ??$_Emplace_reallocate@W4value_t@detail@json_abi_v3_11_3@nlohmann@@@?$vector@V?$basic_json@Vmap@std@@Vvector@2@V?$basic_string@DU?$char_traits@D@std@@V?$allocator@D@2@@2@_N_J_KNVallocator@2@Uadl_serializer@json_abi_v3_11_3@nlohmann@@V?$vector@EV?$allocator@E@std@@@2@X@json_abi_v3_11_3@nlohmann@@V?$allocator@V?$basic_json@Vmap@std@@Vvector@2@V?$basic_string@DU?$char_traits@D@std@@V?$allocator@D@2@@2@_N_J_KNVallocator@2@Uadl_serializer@json_abi_v3_11_3@nlohmann@@V?$vector@EV?$allocator@E@std@@@2@X@json_abi_v3_11_3@nlohmann@@@std@@@std@@AEAAPEAV?$basic_json@Vmap@std@@Vvector@2@V?$basic_string@DU?$char_traits@D@std@@V?$allocator@D@2@@2@_N_J_KNVallocator@2@Uadl_serializer@json_abi_v3_11_3@nlohmann@@V?$vector@EV?$allocator@E@std@@@2@X@json_abi_v3_11_3@nlohmann@@QEAV234@$$QEAW4value_t@detail@34@@Z 0000000180061530 f i KenshiMP.Common:config.obj
 0001:000606e0       ??$_Erase_tree@V?$allocator@U?$_Tree_node@U?$pair@$$CBV?$basic_string@DU?$char_traits@D@std@@V?$allocator@D@2@@std@@V?$basic_json@Vmap@std@@Vvector@2@V?$basic_string@DU?$char_traits@D@std@@V?$allocator@D@2@@2@_N_J_KNVallocator@2@Uadl_serializer@json_abi_v3_11_3@nlohmann@@V?$vector@EV?$allocator@E@std@@@2@X@json_abi_v3_11_3@nlohmann@@@std@@PEAX@std@@@std@@@?$_Tree_val@U?$_Tree_simple_types@U?$pair@$$CBV?$basic_string@DU?$char_traits@D@std@@V?$allocator@D@2@@std@@V?$basic_json@Vmap@std@@Vvector@2@V?$basic_string@DU?$char_traits@D@std@@V?$allocator@D@2@@2@_N_J_KNVallocator@2@Uadl_serializer@json_abi_v3_11_3@nlohmann@@V?$vector@EV?$allocator@E@std@@@2@X@json_abi_v3_11_3@nlohmann@@@std@@@std@@@std@@QEAAXAEAV?$allocator@U?$_Tree_node@U?$pair@$$CBV?$basic_string@DU?$char_traits@D@std@@V?$allocator@D@2@@std@@V?$basic_json@Vmap@std@@Vvector@2@V?$basic_string@DU?$char_traits@D@std@@V?$allocator@D@2@@2@_N_J_KNVallocator@2@Uadl_serializer@json_abi_v3_11_3@nlohmann@@V?$vector@EV?$allocator@E@std@@@2@X@json_abi_v3_11_3@nlohmann@@@std@@PEAX@std@@@1@PEAU?$_Tree_node@U?$pair@$$CBV?$basic_string@DU?$char_traits@D@std@@V?$allocator@D@2@@std@@V?$basic_json@Vmap@std@@Vvector@2@V?$basic_string@DU?$char_traits@D@std@@V?$allocator@D@2@@2@_N_J_KNVallocator@2@Uadl_serializer@json_abi_v3_11_3@nlohmann@@V?$vector@EV?$allocator@E@std@@@2@X@json_abi_v3_11_3@nlohmann@@@std@@PEAX@1@@Z 00000001800616e0 f i KenshiMP.Common:config.obj
 0001:000606e0       ??$_Erase_tree_and_orphan@V?$allocator@U?$_Tree_node@U?$pair@$$CBV?$basic_string@DU?$char_traits@D@std@@V?$allocator@D@2@@std@@V?$basic_json@Vmap@std@@Vvector@2@V?$basic_string@DU?$char_traits@D@std@@V?$allocator@D@2@@2@_N_J_KNVallocator@2@Uadl_serializer@json_abi_v3_11_3@nlohmann@@V?$vector@EV?$allocator@E@std@@@2@X@json_abi_v3_11_3@nlohmann@@@std@@PEAX@std@@@std@@@?$_Tree_val@U?$_Tree_simple_types@U?$pair@$$CBV?$basic_string@DU?$char_traits@D@std@@V?$allocator@D@2@@std@@V?$basic_json@Vmap@std@@Vvector@2@V?$basic_string@DU?$char_traits@D@std@@V?$allocator@D@2@@2@_N_J_KNVallocator@2@Uadl_serializer@json_abi_v3_11_3@nlohmann@@V?$vector@EV?$allocator@E@std@@@2@X@json_abi_v3_11_3@nlohmann@@@std@@@std@@@std@@QEAAXAEAV?$allocator@U?$_Tree_node@U?$pair@$$CBV?$basic_string@DU?$char_traits@D@std@@V?$allocator@D@2@@std@@V?$basic_json@Vmap@std@@Vvector@2@V?$basic_string@DU?$char_traits@D@std@@V?$allocator@D@2@@2@_N_J_KNVallocator@2@Uadl_serializer@json_abi_v3_11_3@nlohmann@@V?$vector@EV?$allocator@E@std@@@2@X@json_abi_v3_11_3@nlohmann@@@std@@PEAX@std@@@1@PEAU?$_Tree_node@U?$pair@$$CBV?$basic_string@DU?$char_traits@D@std@@V?$allocator@D@2@@std@@V?$basic_json@Vmap@std@@Vvector@2@V?$basic_string@DU?$char_traits@D@std@@V?$allocator@D@2@@2@_N_J_KNVallocator@2@Uadl_serializer@json_abi_v3_11_3@nlohmann@@V?$vector@EV?$allocator@E@std@@@2@X@json_abi_v3_11_3@nlohmann@@@std@@PEAX@1@@Z 00000001800616e0 f i KenshiMP.Common:config.obj
 0001:00060770       ??$_Insert_string@DU?$char_traits@D@std@@_K@std@@YAAEAV?$basic_ostream@DU?$char_traits@D@std@@@0@AEAV10@QEBD_K@Z 0000000180061770 f i KenshiMP.Common:config.obj
 0001:000609e0       ??$_Resize_reallocate@I@?$vector@IV?$allocator@I@std@@@std@@AEAAX_KAEBI@Z 00000001800619e0 f i KenshiMP.Common:config.obj
 0001:00060b40       ??$concat@V?$basic_string@DU?$char_traits@D@std@@V?$allocator@D@2@@std@@AEAY0BH@$$CBDV12@@detail@json_abi_v3_11_3@nlohmann@@YA?AV?$basic_string@DU?$char_traits@D@std@@V?$allocator@D@2@@std@@AEAY0BH@$$CBD$$QEAV34@@Z 0000000180061b40 f i KenshiMP.Common:config.obj
 0001:00060b40       ??$concat@V?$basic_string@DU?$char_traits@D@std@@V?$allocator@D@2@@std@@AEAY0BI@$$CBDV12@@detail@json_abi_v3_11_3@nlohmann@@YA?AV?$basic_string@DU?$char_traits@D@std@@V?$allocator@D@2@@std@@AEAY0BI@$$CBD$$QEAV34@@Z 0000000180061b40 f i KenshiMP.Common:config.obj
 0001:00060b40       ??$concat@V?$basic_string@DU?$char_traits@D@std@@V?$allocator@D@2@@std@@AEAY0CH@$$CBDV12@@detail@json_abi_v3_11_3@nlohmann@@YA?AV?$basic_string@DU?$char_traits@D@std@@V?$allocator@D@2@@std@@AEAY0CH@$$CBD$$QEAV34@@Z 0000000180061b40 f i KenshiMP.Common:config.obj
 0001:00060be0       ??$concat@V?$basic_string@DU?$char_traits@D@std@@V?$allocator@D@2@@std@@AEAY0BJ@$$CBDPEBD@detail@json_abi_v3_11_3@nlohmann@@YA?AV?$basic_string@DU?$char_traits@D@std@@V?$allocator@D@2@@std@@AEAY0BJ@$$CBD$$QEAPEBD@Z 0000000180061be0 f i KenshiMP.Common:config.obj
 0001:00060be0       ??$concat@V?$basic_string@DU?$char_traits@D@std@@V?$allocator@D@2@@std@@AEAY0BM@$$CBDPEBD@detail@json_abi_v3_11_3@nlohmann@@YA?AV?$basic_string@DU?$char_traits@D@std@@V?$allocator@D@2@@std@@AEAY0BM@$$CBD$$QEAPEBD@Z 0000000180061be0 f i KenshiMP.Common:config.obj
 0001:00060be0       ??$concat@V?$basic_string@DU?$char_traits@D@std@@V?$allocator@D@2@@std@@AEAY0BN@$$CBDPEBD@detail@json_abi_v3_11_3@nlohmann@@YA?AV?$basic_string@DU?$char_traits@D@std@@V?$allocator@D@2@@std@@AEAY0BN@$$CBD$$QEAPEBD@Z 0000000180061be0 f i KenshiMP.Common:config.obj
 0001:00060be0       ??$concat@V?$basic_string@DU?$char_traits@D@std@@V?$allocator@D@2@@std@@AEAY0BO@$$CBDPEBD@detail@json_abi_v3_11_3@nlohmann@@YA?AV?$basic_string@DU?$char_traits@D@std@@V?$allocator@D@2@@std@@AEAY0BO@$$CBD$$QEAPEBD@Z 0000000180061be0 f i KenshiMP.Common:config.obj
 0001:00060be0       ??$concat@V?$basic_string@DU?$char_traits@D@std@@V?$allocator@D@2@@std@@AEAY0DD@$$CBDPEBD@detail@json_abi_v3_11_3@nlohmann@@YA?AV?$basic_string@DU?$char_traits@D@std@@V?$allocator@D@2@@std@@AEAY0DD@$$CBD$$QEAPEBD@Z 0000000180061be0 f i KenshiMP.Common:config.obj
 0001:00060c90       ??$concat@V?$basic_string@DU?$char_traits@D@std@@V?$allocator@D@2@@std@@AEAY0BK@$$CBDV12@D@detail@json_abi_v3_11_3@nlohmann@@YA?AV?$basic_string@DU?$char_traits@D@std@@V?$allocator@D@2@@std@@AEAY0BK@$$CBD$$QEAV34@$$QEAD@Z 0000000180061c90 f i KenshiMP.Common:config.obj
 0001:00060e60       ??$concat@V?$basic_string@DU?$char_traits@D@std@@V?$allocator@D@2@@std@@AEAY0BN@$$CBDV12@AEAY04$$CBDV12@@detail@json_abi_v3_11_3@nlohmann@@YA?AV?$basic_string@DU?$char_traits@D@std@@V?$allocator@D@2@@std@@AEAY0BN@$$CBD$$QEAV34@AEAY04$$CBD1@Z 0000000180061e60 f i KenshiMP.Common:config.obj
 0001:00060f60       ??$concat@V?$basic_string@DU?$char_traits@D@std@@V?$allocator@D@2@@std@@V12@AEAY0M@$$CBDV12@AEAY02$$CBDV12@AEBV12@@detail@json_abi_v3_11_3@nlohmann@@YA?AV?$basic_string@DU?$char_traits@D@std@@V?$allocator@D@2@@std@@$$QEAV34@AEAY0M@$$CBD0AEAY02$$CBD0AEBV34@@Z 0000000180061f60 f i KenshiMP.Common:config.obj
 0001:000610b0       ??$concat@V?$basic_string@DU?$char_traits@D@std@@V?$allocator@D@2@@std@@V12@V12@AEBV12@@detail@json_abi_v3_11_3@nlohmann@@YA?AV?$basic_string@DU?$char_traits@D@std@@V?$allocator@D@2@@std@@$$QEAV34@0AEBV34@@Z 00000001800620b0 f i KenshiMP.Common:config.obj
 0001:00061170       ??$contains@AEAY0L@$$CBD$0A@@?$basic_json@Vmap@std@@Vvector@2@V?$basic_string@DU?$char_traits@D@std@@V?$allocator@D@2@@2@_N_J_KNVallocator@2@Uadl_serializer@json_abi_v3_11_3@nlohmann@@V?$vector@EV?$allocator@E@std@@@2@X@json_abi_v3_11_3@nlohmann@@QEBA_NAEAY0L@$$CBD@Z 0000000180062170 f i KenshiMP.Common:config.obj
 0001:00061210       ??$create@$$T$0A@@other_error@detail@json_abi_v3_11_3@nlohmann@@SA?AV0123@HAEBV?$basic_string@DU?$char_traits@D@std@@V?$allocator@D@2@@std@@$$T@Z 0000000180062210 f i KenshiMP.Common:config.obj
 0001:00061490       ??$create@$$T$0A@@out_of_range@detail@json_abi_v3_11_3@nlohmann@@SA?AV0123@HAEBV?$basic_string@DU?$char_traits@D@std@@V?$allocator@D@2@@std@@$$T@Z 0000000180062490 f i KenshiMP.Common:config.obj
 0001:00061490       ??$create@PEAV?$basic_json@Vmap@std@@Vvector@2@V?$basic_string@DU?$char_traits@D@std@@V?$allocator@D@2@@2@_N_J_KNVallocator@2@Uadl_serializer@json_abi_v3_11_3@nlohmann@@V?$vector@EV?$allocator@E@std@@@2@X@json_abi_v3_11_3@nlohmann@@$0A@@out_of_range@detail@json_abi_v3_11_3@nlohmann@@SA?AV0123@HAEBV?$basic_string@DU?$char_traits@D@std@@V?$allocator@D@2@@std@@PEAV?$basic_json@Vmap@std@@Vvector@2@V?$basic_string@DU?$char_traits@D@std@@V?$allocator@D@2@@2@_N_J_KNVallocator@2@Uadl_serializer@json_abi_v3_11_3@nlohmann@@V?$vector@EV?$allocator@E@std@@@2@X@23@@Z 0000000180062490 f i KenshiMP.Common:config.obj
 0001:00061700       ??$create@$$T$0A@@parse_error@detail@json_abi_v3_11_3@nlohmann@@SA?AV0123@HAEBUposition_t@123@AEBV?$basic_string@DU?$char_traits@D@std@@V?$allocator@D@2@@std@@$$T@Z 0000000180062700 f i KenshiMP.Common:config.obj
 0001:000619f0       ??$create@$$T$0A@@type_error@detail@json_abi_v3_11_3@nlohmann@@SA?AV0123@HAEBV?$basic_string@DU?$char_traits@D@std@@V?$allocator@D@2@@std@@$$T@Z 00000001800629f0 f i KenshiMP.Common:config.obj
 0001:000619f0       ??$create@PEAV?$basic_json@Vmap@std@@Vvector@2@V?$basic_string@DU?$char_traits@D@std@@V?$allocator@D@2@@2@_N_J_KNVallocator@2@Uadl_serializer@json_abi_v3_11_3@nlohmann@@V?$vector@EV?$allocator@E@std@@@2@X@json_abi_v3_11_3@nlohmann@@$0A@@type_error@detail@json_abi_v3_11_3@nlohmann@@SA?AV0123@HAEBV?$basic_string@DU?$char_traits@D@std@@V?$allocator@D@2@@std@@PEAV?$basic_json@Vmap@std@@Vvector@2@V?$basic_string@DU?$char_traits@D@std@@V?$allocator@D@2@@2@_N_J_KNVallocator@2@Uadl_serializer@json_abi_v3_11_3@nlohmann@@V?$vector@EV?$allocator@E@std@@@2@X@23@@Z 00000001800629f0 f i KenshiMP.Common:config.obj
 0001:000619f0       ??$create@PEBV?$basic_json@Vmap@std@@Vvector@2@V?$basic_string@DU?$char_traits@D@std@@V?$allocator@D@2@@2@_N_J_KNVallocator@2@Uadl_serializer@json_abi_v3_11_3@nlohmann@@V?$vector@EV?$allocator@E@std@@@2@X@json_abi_v3_11_3@nlohmann@@$0A@@type_error@detail@json_abi_v3_11_3@nlohmann@@SA?AV0123@HAEBV?$basic_string@DU?$char_traits@D@std@@V?$allocator@D@2@@std@@PEBV?$basic_json@Vmap@std@@Vvector@2@V?$basic_string@DU?$char_traits@D@std@@V?$allocator@D@2@@2@_N_J_KNVallocator@2@Uadl_serializer@json_abi_v3_11_3@nlohmann@@V?$vector@EV?$allocator@E@std@@@2@X@23@@Z 00000001800629f0 f i KenshiMP.Common:config.obj
 0001:00061c60       ??$create@PEAV?$basic_json@Vmap@std@@Vvector@2@V?$basic_string@DU?$char_traits@D@std@@V?$allocator@D@2@@2@_N_J_KNVallocator@2@Uadl_serializer@json_abi_v3_11_3@nlohmann@@V?$vector@EV?$allocator@E@std@@@2@X@json_abi_v3_11_3@nlohmann@@$0A@@invalid_iterator@detail@json_abi_v3_11_3@nlohmann@@SA?AV0123@HAEBV?$basic_string@DU?$char_traits@D@std@@V?$allocator@D@2@@std@@PEAV?$basic_json@Vmap@std@@Vvector@2@V?$basic_string@DU?$char_traits@D@std@@V?$allocator@D@2@@2@_N_J_KNVallocator@2@Uadl_serializer@json_abi_v3_11_3@nlohmann@@V?$vector@EV?$allocator@E@std@@@2@X@23@@Z 0000000180062c60 f i KenshiMP.Common:config.obj
 0001:00061c60       ??$create@PEBV?$basic_json@Vmap@std@@Vvector@2@V?$basic_string@DU?$char_traits@D@std@@V?$allocator@D@2@@2@_N_J_KNVallocator@2@Uadl_serializer@json_abi_v3_11_3@nlohmann@@V?$vector@EV?$allocator@E@std@@@2@X@json_abi_v3_11_3@nlohmann@@$0A@@invalid_iterator@detail@json_abi_v3_11_3@nlohmann@@SA?AV0123@HAEBV?$basic_string@DU?$char_traits@D@std@@V?$allocator@D@2@@std@@PEBV?$basic_json@Vmap@std@@Vvector@2@V?$basic_string@DU?$char_traits@D@std@@V?$allocator@D@2@@2@_N_J_KNVallocator@2@Uadl_serializer@json_abi_v3_11_3@nlohmann@@V?$vector@EV?$allocator@E@std@@@2@X@23@@Z 0000000180062c60 f i KenshiMP.Common:config.obj
 0001:00061ed0       ??$create@V?$map@V?$basic_string@DU?$char_traits@D@std@@V?$allocator@D@2@@std@@V?$basic_json@Vmap@std@@Vvector@2@V?$basic_string@DU?$char_traits@D@std@@V?$allocator@D@2@@2@_N_J_KNVallocator@2@Uadl_serializer@json_abi_v3_11_3@nlohmann@@V?$vector@EV?$allocator@E@std@@@2@X@json_abi_v3_11_3@nlohmann@@U?$less@X@2@V?$allocator@U?$pair@$$CBV?$basic_string@DU?$char_traits@D@std@@V?$allocator@D@2@@std@@V?$basic_json@Vmap@std@@Vvector@2@V?$basic_string@DU?$char_traits@D@std@@V?$allocator@D@2@@2@_N_J_KNVallocator@2@Uadl_serializer@json_abi_v3_11_3@nlohmann@@V?$vector@EV?$allocator@E@std@@@2@X@json_abi_v3_11_3@nlohmann@@@std@@@2@@std@@$$V@?$basic_json@Vmap@std@@Vvector@2@V?$basic_string@DU?$char_traits@D@std@@V?$allocator@D@2@@2@_N_J_KNVallocator@2@Uadl_serializer@json_abi_v3_11_3@nlohmann@@V?$vector@EV?$allocator@E@std@@@2@X@json_abi_v3_11_3@nlohmann@@CAPEAV?$map@V?$basic_string@DU?$char_traits@D@std@@V?$allocator@D@2@@std@@V?$basic_json@Vmap@std@@Vvector@2@V?$basic_string@DU?$char_traits@D@std@@V?$allocator@D@2@@2@_N_J_KNVallocator@2@Uadl_serializer@json_abi_v3_11_3@nlohmann@@V?$vector@EV?$allocator@E@std@@@2@X@json_abi_v3_11_3@nlohmann@@U?$less@X@2@V?$allocator@U?$pair@$$CBV?$basic_string@DU?$char_traits@D@std@@V?$allocator@D@2@@std@@V?$basic_json@Vmap@std@@Vvector@2@V?$basic_string@DU?$char_traits@D@std@@V?$allocator@D@2@@2@_N_J_KNVallocator@2@Uadl_serializer@json_abi_v3_11_3@nlohmann@@V?$vector@EV?$allocator@E@std@@@2@X@json_abi_v3_11_3@nlohmann@@@std@@@2@@std@@XZ 0000000180062ed0 f i KenshiMP.Common:config.obj
 0001:00061f30       ??$dump_integer@E$0A@@?$serializer@V?$basic_json@Vmap@std@@Vvector@2@V?$basic_string@DU?$char_traits@D@std@@V?$allocator@D@2@@2@_N_J_KNVallocator@2@Uadl_serializer@json_abi_v3_11_3@nlohmann@@V?$vector@EV?$allocator@E@std@@@2@X@json_abi_v3_11_3@nlohmann@@@detail@json_abi_v3_11_3@nlohmann@@AEAAXE@Z 0000000180062f30 f i KenshiMP.Common:config.obj
 0001:00062070       ??$dump_integer@_J$0A@@?$serializer@V?$basic_json@Vmap@std@@Vvector@2@V?$basic_string@DU?$char_traits@D@std@@V?$allocator@D@2@@2@_N_J_KNVallocator@2@Uadl_serializer@json_abi_v3_11_3@nlohmann@@V?$vector@EV?$allocator@E@std@@@2@X@json_abi_v3_11_3@nlohmann@@@detail@json_abi_v3_11_3@nlohmann@@AEAAX_J@Z 0000000180063070 f i KenshiMP.Common:config.obj
 0001:00062240       ??$dump_integer@_K$0A@@?$serializer@V?$basic_json@Vmap@std@@Vvector@2@V?$basic_string@DU?$char_traits@D@std@@V?$allocator@D@2@@2@_N_J_KNVallocator@2@Uadl_serializer@json_abi_v3_11_3@nlohmann@@V?$vector@EV?$allocator@E@std@@@2@X@json_abi_v3_11_3@nlohmann@@@detail@json_abi_v3_11_3@nlohmann@@AEAAX_K@Z 0000000180063240 f i KenshiMP.Common:config.obj
 0001:00062370       ??$emplace@V?$basic_string@DU?$char_traits@D@std@@V?$allocator@D@2@@std@@@?$vector@V?$basic_string@DU?$char_traits@D@std@@V?$allocator@D@2@@std@@V?$allocator@V?$basic_string@DU?$char_traits@D@std@@V?$allocator@D@2@@std@@@2@@std@@QEAA?AV?$_Vector_iterator@V?$_Vector_val@U?$_Simple_types@V?$basic_string@DU?$char_traits@D@std@@V?$allocator@D@2@@std@@@std@@@std@@@1@V?$_Vector_const_iterator@V?$_Vector_val@U?$_Simple_types@V?$basic_string@DU?$char_traits@D@std@@V?$allocator@D@2@@std@@@std@@@std@@@1@$$QEAV?$basic_string@DU?$char_traits@D@std@@V?$allocator@D@2@@1@@Z 0000000180063370 f i KenshiMP.Common:config.obj
 0001:00062650       ??$emplace_back@V?$basic_json@Vmap@std@@Vvector@2@V?$basic_string@DU?$char_traits@D@std@@V?$allocator@D@2@@2@_N_J_KNVallocator@2@Uadl_serializer@json_abi_v3_11_3@nlohmann@@V?$vector@EV?$allocator@E@std@@@2@X@json_abi_v3_11_3@nlohmann@@@?$vector@V?$basic_json@Vmap@std@@Vvector@2@V?$basic_string@DU?$char_traits@D@std@@V?$allocator@D@2@@2@_N_J_KNVallocator@2@Uadl_serializer@json_abi_v3_11_3@nlohmann@@V?$vector@EV?$allocator@E@std@@@2@X@json_abi_v3_11_3@nlohmann@@V?$allocator@V?$basic_json@Vmap@std@@Vvector@2@V?$basic_string@DU?$char_traits@D@std@@V?$allocator@D@2@@2@_N_J_KNVallocator@2@Uadl_serializer@json_abi_v3_11_3@nlohmann@@V?$vector@EV?$allocator@E@std@@@2@X@json_abi_v3_11_3@nlohmann@@@std@@@std@@QEAAAEAV?$basic_json@Vmap@std@@Vvector@2@V?$basic_string@DU?$char_traits@D@std@@V?$allocator@D@2@@2@_N_J_KNVallocator@2@Uadl_serializer@json_abi_v3_11_3@nlohmann@@V?$vector@EV?$allocator@E@std@@@2@X@json_abi_v3_11_3@nlohmann@@$$QEAV234@@Z 0000000180063650 f i KenshiMP.Common:config.obj
 0001:00062690       ??$erase@V?$iter_impl@V?$basic_json@Vmap@std@@Vvector@2@V?$basic_string@DU?$char_traits@D@std@@V?$allocator@D@2@@2@_N_J_KNVallocator@2@Uadl_serializer@json_abi_v3_11_3@nlohmann@@V?$vector@EV?$allocator@E@std@@@2@X@json_abi_v3_11_3@nlohmann@@@detail@json_abi_v3_11_3@nlohmann@@$0A@@?$basic_json@Vmap@std@@Vvector@2@V?$basic_string@DU?$char_traits@D@std@@V?$allocator@D@2@@2@_N_J_KNVallocator@2@Uadl_serializer@json_abi_v3_11_3@nlohmann@@V?$vector@EV?$allocator@E@std@@@2@X@json_abi_v3_11_3@nlohmann@@QEAA?AV?$iter_impl@V?$basic_json@Vmap@std@@Vvector@2@V?$basic_string@DU?$char_traits@D@std@@V?$allocator@D@2@@2@_N_J_KNVallocator@2@Uadl_serializer@json_abi_v3_11_3@nlohmann@@V?$vector@EV?$allocator@E@std@@@2@X@json_abi_v3_11_3@nlohmann@@@detail@12@V3412@@Z 0000000180063690 f i KenshiMP.Common:config.obj
 0001:00062950       ??$from_json@V?$basic_json@Vmap@std@@Vvector@2@V?$basic_string@DU?$char_traits@D@std@@V?$allocator@D@2@@2@_N_J_KNVallocator@2@Uadl_serializer@json_abi_v3_11_3@nlohmann@@V?$vector@EV?$allocator@E@std@@@2@X@json_abi_v3_11_3@nlohmann@@@detail@json_abi_v3_11_3@nlohmann@@YAXAEBV?$basic_json@Vmap@std@@Vvector@2@V?$basic_string@DU?$char_traits@D@std@@V?$allocator@D@2@@2@_N_J_KNVallocator@2@Uadl_serializer@json_abi_v3_11_3@nlohmann@@V?$vector@EV?$allocator@E@std@@@2@X@12@AEAV?$basic_string@DU?$char_traits@D@std@@V?$allocator@D@2@@std@@@Z 0000000180063950 f i KenshiMP.Common:config.obj
 0001:00062b00       ??$from_json_array_impl@V?$basic_json@Vmap@std@@Vvector@2@V?$basic_string@DU?$char_traits@D@std@@V?$allocator@D@2@@2@_N_J_KNVallocator@2@Uadl_serializer@json_abi_v3_11_3@nlohmann@@V?$vector@EV?$allocator@E@std@@@2@X@json_abi_v3_11_3@nlohmann@@V?$vector@V?$basic_string@DU?$char_traits@D@std@@V?$allocator@D@2@@std@@V?$allocator@V?$basic_string@DU?$char_traits@D@std@@V?$allocator@D@2@@std@@@2@@std@@$0A@@detail@json_abi_v3_11_3@nlohmann@@YAXAEBV?$basic_json@Vmap@std@@Vvector@2@V?$basic_string@DU?$char_traits@D@std@@V?$allocator@D@2@@2@_N_J_KNVallocator@2@Uadl_serializer@json_abi_v3_11_3@nlohmann@@V?$vector@EV?$allocator@E@std@@@2@X@12@AEAV?$vector@V?$basic_string@DU?$char_traits@D@std@@V?$allocator@D@2@@std@@V?$allocator@V?$basic_string@DU?$char_traits@D@std@@V?$allocator@D@2@@std@@@2@@std@@U?$priority_tag@$00@012@@Z 0000000180063b00 f i KenshiMP.Common:config.obj
 0001:00062ec0       ??$get@GG@?$basic_json@Vmap@std@@Vvector@2@V?$basic_string@DU?$char_traits@D@std@@V?$allocator@D@2@@2@_N_J_KNVallocator@2@Uadl_serializer@json_abi_v3_11_3@nlohmann@@V?$vector@EV?$allocator@E@std@@@2@X@json_abi_v3_11_3@nlohmann@@QEBAGXZ 0000000180063ec0 f i KenshiMP.Common:config.obj
 0001:00062fc0       ??$get@MM@?$basic_json@Vmap@std@@Vvector@2@V?$basic_string@DU?$char_traits@D@std@@V?$allocator@D@2@@2@_N_J_KNVallocator@2@Uadl_serializer@json_abi_v3_11_3@nlohmann@@V?$vector@EV?$allocator@E@std@@@2@X@json_abi_v3_11_3@nlohmann@@QEBAMXZ 0000000180063fc0 f i KenshiMP.Common:config.obj
 0001:00063100       ??$get@_N_N@?$basic_json@Vmap@std@@Vvector@2@V?$basic_string@DU?$char_traits@D@std@@V?$allocator@D@2@@2@_N_J_KNVallocator@2@Uadl_serializer@json_abi_v3_11_3@nlohmann@@V?$vector@EV?$allocator@E@std@@@2@X@json_abi_v3_11_3@nlohmann@@QEBA_NXZ 0000000180064100 f i KenshiMP.Common:config.obj
 0001:00063190       ??$get_ptr@PEB_J$0A@@?$basic_json@Vmap@std@@Vvector@2@V?$basic_string@DU?$char_traits@D@std@@V?$allocator@D@2@@2@_N_J_KNVallocator@2@Uadl_serializer@json_abi_v3_11_3@nlohmann@@V?$vector@EV?$allocator@E@std@@@2@X@json_abi_v3_11_3@nlohmann@@QEBAPEB_JXZ 0000000180064190 f i KenshiMP.Common:config.obj
 0001:000631c0       ??$handle_value@$$T@?$json_sax_dom_callback_parser@V?$basic_json@Vmap@std@@Vvector@2@V?$basic_string@DU?$char_traits@D@std@@V?$allocator@D@2@@2@_N_J_KNVallocator@2@Uadl_serializer@json_abi_v3_11_3@nlohmann@@V?$vector@EV?$allocator@E@std@@@2@X@json_abi_v3_11_3@nlohmann@@@detail@json_abi_v3_11_3@nlohmann@@AEAA?AU?$pair@_NPEAV?$basic_json@Vmap@std@@Vvector@2@V?$basic_string@DU?$char_traits@D@std@@V?$allocator@D@2@@2@_N_J_KNVallocator@2@Uadl_serializer@json_abi_v3_11_3@nlohmann@@V?$vector@EV?$allocator@E@std@@@2@X@json_abi_v3_11_3@nlohmann@@@std@@$$QEA$$T_N@Z 00000001800641c0 f i KenshiMP.Common:config.obj
 0001:00063450       ??$handle_value@AEAN@?$json_sax_dom_callback_parser@V?$basic_json@Vmap@std@@Vvector@2@V?$basic_string@DU?$char_traits@D@std@@V?$allocator@D@2@@2@_N_J_KNVallocator@2@Uadl_serializer@json_abi_v3_11_3@nlohmann@@V?$vector@EV?$allocator@E@std@@@2@X@json_abi_v3_11_3@nlohmann@@@detail@json_abi_v3_11_3@nlohmann@@AEAA?AU?$pair@_NPEAV?$basic_json@Vmap@std@@Vvector@2@V?$basic_string@DU?$char_traits@D@std@@V?$allocator@D@2@@2@_N_J_KNVallocator@2@Uadl_serializer@json_abi_v3_11_3@nlohmann@@V?$vector@EV?$allocator@E@std@@@2@X@json_abi_v3_11_3@nlohmann@@@std@@AEAN_N@Z 0000000180064450 f i KenshiMP.Common:config.obj
 0001:00063710       ??$handle_value@AEAN@?$json_sax_dom_parser@V?$basic_json@Vmap@std@@Vvector@2@V?$basic_string@DU?$char_traits@D@std@@V?$allocator@D@2@@2@_N_J_KNVallocator@2@Uadl_serializer@json_abi_v3_11_3@nlohmann@@V?$vector@EV?$allocator@E@std@@@2@X@json_abi_v3_11_3@nlohmann@@@detail@json_abi_v3_11_3@nlohmann@@AEAAPEAV?$basic_json@Vmap@std@@Vvector@2@V?$basic_string@DU?$char_traits@D@std@@V?$allocator@D@2@@2@_N_J_KNVallocator@2@Uadl_serializer@json_abi_v3_11_3@nlohmann@@V?$vector@EV?$allocator@E@std@@@2@X@23@AEAN@Z 0000000180064710 f i KenshiMP.Common:config.obj
 0001:00063860       ??$handle_value@AEAV?$basic_string@DU?$char_traits@D@std@@V?$allocator@D@2@@std@@@?$json_sax_dom_callback_parser@V?$basic_json@Vmap@std@@Vvector@2@V?$basic_string@DU?$char_traits@D@std@@V?$allocator@D@2@@2@_N_J_KNVallocator@2@Uadl_serializer@json_abi_v3_11_3@nlohmann@@V?$vector@EV?$allocator@E@std@@@2@X@json_abi_v3_11_3@nlohmann@@@detail@json_abi_v3_11_3@nlohmann@@AEAA?AU?$pair@_NPEAV?$basic_json@Vmap@std@@Vvector@2@V?$basic_string@DU?$char_traits@D@std@@V?$allocator@D@2@@2@_N_J_KNVallocator@2@Uadl_serializer@json_abi_v3_11_3@nlohmann@@V?$vector@EV?$allocator@E@std@@@2@X@json_abi_v3_11_3@nlohmann@@@std@@AEAV?$basic_string@DU?$char_traits@D@std@@V?$allocator@D@2@@5@_N@Z 0000000180064860 f i KenshiMP.Common:config.obj
 0001:00063b40       ??$handle_value@AEAV?$basic_string@DU?$char_traits@D@std@@V?$allocator@D@2@@std@@@?$json_sax_dom_parser@V?$basic_json@Vmap@std@@Vvector@2@V?$basic_string@DU?$char_traits@D@std@@V?$allocator@D@2@@2@_N_J_KNVallocator@2@Uadl_serializer@json_abi_v3_11_3@nlohmann@@V?$vector@EV?$allocator@E@std@@@2@X@json_abi_v3_11_3@nlohmann@@@detail@json_abi_v3_11_3@nlohmann@@AEAAPEAV?$basic_json@Vmap@std@@Vvector@2@V?$basic_string@DU?$char_traits@D@std@@V?$allocator@D@2@@2@_N_J_KNVallocator@2@Uadl_serializer@json_abi_v3_11_3@nlohmann@@V?$vector@EV?$allocator@E@std@@@2@X@23@AEAV?$basic_string@DU?$char_traits@D@std@@V?$allocator@D@2@@std@@@Z 0000000180064b40 f i KenshiMP.Common:config.obj
 0001:00063d30       ??$handle_value@AEA_J@?$json_sax_dom_callback_parser@V?$basic_json@Vmap@std@@Vvector@2@V?$basic_string@DU?$char_traits@D@std@@V?$allocator@D@2@@2@_N_J_KNVallocator@2@Uadl_serializer@json_abi_v3_11_3@nlohmann@@V?$vector@EV?$allocator@E@std@@@2@X@json_abi_v3_11_3@nlohmann@@@detail@json_abi_v3_11_3@nlohmann@@AEAA?AU?$pair@_NPEAV?$basic_json@Vmap@std@@Vvector@2@V?$basic_string@DU?$char_traits@D@std@@V?$allocator@D@2@@2@_N_J_KNVallocator@2@Uadl_serializer@json_abi_v3_11_3@nlohmann@@V?$vector@EV?$allocator@E@std@@@2@X@json_abi_v3_11_3@nlohmann@@@std@@AEA_J_N@Z 0000000180064d30 f i KenshiMP.Common:config.obj
 0001:00063fe0       ??$handle_value@AEA_J@?$json_sax_dom_parser@V?$basic_json@Vmap@std@@Vvector@2@V?$basic_string@DU?$char_traits@D@std@@V?$allocator@D@2@@2@_N_J_KNVallocator@2@Uadl_serializer@json_abi_v3_11_3@nlohmann@@V?$vector@EV?$allocator@E@std@@@2@X@json_abi_v3_11_3@nlohmann@@@detail@json_abi_v3_11_3@nlohmann@@AEAAPEAV?$basic_json@Vmap@std@@Vvector@2@V?$basic_string@DU?$char_traits@D@std@@V?$allocator@D@2@@2@_N_J_KNVallocator@2@Uadl_serializer@json_abi_v3_11_3@nlohmann@@V?$vector@EV?$allocator@E@std@@@2@X@23@AEA_J@Z 0000000180064fe0 f i KenshiMP.Common:config.obj
 0001:00064110       ??$handle_value@AEA_K@?$json_sax_dom_callback_parser@V?$basic_json@Vmap@std@@Vvector@2@V?$basic_string@DU?$char_traits@D@std@@V?$allocator@D@2@@2@_N_J_KNVallocator@2@Uadl_serializer@json_abi_v3_11_3@nlohmann@@V?$vector@EV?$allocator@E@std@@@2@X@json_abi_v3_11_3@nlohmann@@@detail@json_abi_v3_11_3@nlohmann@@AEAA?AU?$pair@_NPEAV?$basic_json@Vmap@std@@Vvector@2@V?$basic_string@DU?$char_traits@D@std@@V?$allocator@D@2@@2@_N_J_KNVallocator@2@Uadl_serializer@json_abi_v3_11_3@nlohmann@@V?$vector@EV?$allocator@E@std@@@2@X@json_abi_v3_11_3@nlohmann@@@std@@AEA_K_N@Z 0000000180065110 f i KenshiMP.Common:config.obj
 0001:000643c0       ??$handle_value@AEA_K@?$json_sax_dom_parser@V?$basic_json@Vmap@std@@Vvector@2@V?$basic_string@DU?$char_traits@D@std@@V?$allocator@D@2@@2@_N_J_KNVallocator@2@Uadl_serializer@json_abi_v3_11_3@nlohmann@@V?$vector@EV?$allocator@E@std@@@2@X@json_abi_v3_11_3@nlohmann@@@detail@json_abi_v3_11_3@nlohmann@@AEAAPEAV?$basic_json@Vmap@std@@Vvector@2@V?$basic_string@DU?$char_traits@D@std@@V?$allocator@D@2@@2@_N_J_KNVallocator@2@Uadl_serializer@json_abi_v3_11_3@nlohmann@@V?$vector@EV?$allocator@E@std@@@2@X@23@AEA_K@Z 00000001800653c0 f i KenshiMP.Common:config.obj
 0001:000644f0       ??$handle_value@AEA_N@?$json_sax_dom_callback_parser@V?$basic_json@Vmap@std@@Vvector@2@V?$basic_string@DU?$char_traits@D@std@@V?$allocator@D@2@@2@_N_J_KNVallocator@2@Uadl_serializer@json_abi_v3_11_3@nlohmann@@V?$vector@EV?$allocator@E@std@@@2@X@json_abi_v3_11_3@nlohmann@@@detail@json_abi_v3_11_3@nlohmann@@AEAA?AU?$pair@_NPEAV?$basic_json@Vmap@std@@Vvector@2@V?$basic_string@DU?$char_traits@D@std@@V?$allocator@D@2@@2@_N_J_KNVallocator@2@Uadl_serializer@json_abi_v3_11_3@nlohmann@@V?$vector@EV?$allocator@E@std@@@2@X@json_abi_v3_11_3@nlohmann@@@std@@AEA_N_N@Z 00000001800654f0 f i KenshiMP.Common:config.obj
 0001:000647b0       ??$handle_value@AEA_N@?$json_sax_dom_parser@V?$basic_json@Vmap@std@@Vvector@2@V?$basic_string@DU?$char_traits@D@std@@V?$allocator@D@2@@2@_N_J_KNVallocator@2@Uadl_serializer@json_abi_v3_11_3@nlohmann@@V?$vector@EV?$allocator@E@std@@@2@X@json_abi_v3_11_3@nlohmann@@@detail@json_abi_v3_11_3@nlohmann@@AEAAPEAV?$basic_json@Vmap@std@@Vvector@2@V?$basic_string@DU?$char_traits@D@std@@V?$allocator@D@2@@2@_N_J_KNVallocator@2@Uadl_serializer@json_abi_v3_11_3@nlohmann@@V?$vector@EV?$allocator@E@std@@@2@X@23@AEA_N@Z 00000001800657b0 f i KenshiMP.Common:config.obj
 0001:00064900       ??$handle_value@W4value_t@detail@json_abi_v3_11_3@nlohmann@@@?$json_sax_dom_callback_parser@V?$basic_json@Vmap@std@@Vvector@2@V?$basic_string@DU?$char_traits@D@std@@V?$allocator@D@2@@2@_N_J_KNVallocator@2@Uadl_serializer@json_abi_v3_11_3@nlohmann@@V?$vector@EV?$allocator@E@std@@@2@X@json_abi_v3_11_3@nlohmann@@@detail@json_abi_v3_11_3@nlohmann@@AEAA?AU?$pair@_NPEAV?$basic_json@Vmap@std@@Vvector@2@V?$basic_string@DU?$char_traits@D@std@@V?$allocator@D@2@@2@_N_J_KNVallocator@2@Uadl_serializer@json_abi_v3_11_3@nlohmann@@V?$vector@EV?$allocator@E@std@@@2@X@json_abi_v3_11_3@nlohmann@@@std@@$$QEAW4value_t@123@_N@Z 0000000180065900 f i KenshiMP.Common:config.obj
 0001:00064ba0       ??$handle_value@W4value_t@detail@json_abi_v3_11_3@nlohmann@@@?$json_sax_dom_parser@V?$basic_json@Vmap@std@@Vvector@2@V?$basic_string@DU?$char_traits@D@std@@V?$allocator@D@2@@2@_N_J_KNVallocator@2@Uadl_serializer@json_abi_v3_11_3@nlohmann@@V?$vector@EV?$allocator@E@std@@@2@X@json_abi_v3_11_3@nlohmann@@@detail@json_abi_v3_11_3@nlohmann@@AEAAPEAV?$basic_json@Vmap@std@@Vvector@2@V?$basic_string@DU?$char_traits@D@std@@V?$allocator@D@2@@2@_N_J_KNVallocator@2@Uadl_serializer@json_abi_v3_11_3@nlohmann@@V?$vector@EV?$allocator@E@std@@@2@X@23@$$QEAW4value_t@123@@Z 0000000180065ba0 f i KenshiMP.Common:config.obj
 0001:00064ca0       ??$move@V?$_Vector_iterator@V?$_Vector_val@U?$_Simple_types@V?$basic_json@Vmap@std@@Vvector@2@V?$basic_string@DU?$char_traits@D@std@@V?$allocator@D@2@@2@_N_J_KNVallocator@2@Uadl_serializer@json_abi_v3_11_3@nlohmann@@V?$vector@EV?$allocator@E@std@@@2@X@json_abi_v3_11_3@nlohmann@@@std@@@std@@@std@@V?$back_insert_iterator@V?$vector@V?$basic_json@Vmap@std@@Vvector@2@V?$basic_string@DU?$char_traits@D@std@@V?$allocator@D@2@@2@_N_J_KNVallocator@2@Uadl_serializer@json_abi_v3_11_3@nlohmann@@V?$vector@EV?$allocator@E@std@@@2@X@json_abi_v3_11_3@nlohmann@@V?$allocator@V?$basic_json@Vmap@std@@Vvector@2@V?$basic_string@DU?$char_traits@D@std@@V?$allocator@D@2@@2@_N_J_KNVallocator@2@Uadl_serializer@json_abi_v3_11_3@nlohmann@@V?$vector@EV?$allocator@E@std@@@2@X@json_abi_v3_11_3@nlohmann@@@std@@@std@@@2@@std@@YA?AV?$back_insert_iterator@V?$vector@V?$basic_json@Vmap@std@@Vvector@2@V?$basic_string@DU?$char_traits@D@std@@V?$allocator@D@2@@2@_N_J_KNVallocator@2@Uadl_serializer@json_abi_v3_11_3@nlohmann@@V?$vector@EV?$allocator@E@std@@@2@X@json_abi_v3_11_3@nlohmann@@V?$allocator@V?$basic_json@Vmap@std@@Vvector@2@V?$basic_string@DU?$char_traits@D@std@@V?$allocator@D@2@@2@_N_J_KNVallocator@2@Uadl_serializer@json_abi_v3_11_3@nlohmann@@V?$vector@EV?$allocator@E@std@@@2@X@json_abi_v3_11_3@nlohmann@@@std@@@std@@@0@V?$_Vector_iterator@V?$_Vector_val@U?$_Simple_types@V?$basic_json@Vmap@std@@Vvector@2@V?$basic_string@DU?$char_traits@D@std@@V?$allocator@D@2@@2@_N_J_KNVallocator@2@Uadl_serializer@json_abi_v3_11_3@nlohmann@@V?$vector@EV?$allocator@E@std@@@2@X@json_abi_v3_11_3@nlohmann@@@std@@@std@@@0@0V10@@Z 0000000180065ca0 f i KenshiMP.Common:config.obj
 0001:00064d30       ??$parse_error@V0detail@json_abi_v3_11_3@nlohmann@@@?$json_sax_dom_callback_parser@V?$basic_json@Vmap@std@@Vvector@2@V?$basic_string@DU?$char_traits@D@std@@V?$allocator@D@2@@2@_N_J_KNVallocator@2@Uadl_serializer@json_abi_v3_11_3@nlohmann@@V?$vector@EV?$allocator@E@std@@@2@X@json_abi_v3_11_3@nlohmann@@@detail@json_abi_v3_11_3@nlohmann@@QEAA_N_KAEBV?$basic_string@DU?$char_traits@D@std@@V?$allocator@D@2@@std@@AEBVparse_error@123@@Z 0000000180065d30 f i KenshiMP.Common:config.obj
 0001:00064d70       ??$parse_error@V0detail@json_abi_v3_11_3@nlohmann@@@?$json_sax_dom_parser@V?$basic_json@Vmap@std@@Vvector@2@V?$basic_string@DU?$char_traits@D@std@@V?$allocator@D@2@@2@_N_J_KNVallocator@2@Uadl_serializer@json_abi_v3_11_3@nlohmann@@V?$vector@EV?$allocator@E@std@@@2@X@json_abi_v3_11_3@nlohmann@@@detail@json_abi_v3_11_3@nlohmann@@QEAA_N_KAEBV?$basic_string@DU?$char_traits@D@std@@V?$allocator@D@2@@std@@AEBVparse_error@123@@Z 0000000180065d70 f i KenshiMP.Common:config.obj
 0001:00064db0       ??$parse_error@Vout_of_range@detail@json_abi_v3_11_3@nlohmann@@@?$json_sax_dom_callback_parser@V?$basic_json@Vmap@std@@Vvector@2@V?$basic_string@DU?$char_traits@D@std@@V?$allocator@D@2@@2@_N_J_KNVallocator@2@Uadl_serializer@json_abi_v3_11_3@nlohmann@@V?$vector@EV?$allocator@E@std@@@2@X@json_abi_v3_11_3@nlohmann@@@detail@json_abi_v3_11_3@nlohmann@@QEAA_N_KAEBV?$basic_string@DU?$char_traits@D@std@@V?$allocator@D@2@@std@@AEBVout_of_range@123@@Z 0000000180065db0 f i KenshiMP.Common:config.obj
 0001:00064df0       ??$parser@Vinput_stream_adapter@detail@json_abi_v3_11_3@nlohmann@@@?$basic_json@Vmap@std@@Vvector@2@V?$basic_string@DU?$char_traits@D@std@@V?$allocator@D@2@@2@_N_J_KNVallocator@2@Uadl_serializer@json_abi_v3_11_3@nlohmann@@V?$vector@EV?$allocator@E@std@@@2@X@json_abi_v3_11_3@nlohmann@@CA?AV?$parser@V?$basic_json@Vmap@std@@Vvector@2@V?$basic_string@DU?$char_traits@D@std@@V?$allocator@D@2@@2@_N_J_KNVallocator@2@Uadl_serializer@json_abi_v3_11_3@nlohmann@@V?$vector@EV?$allocator@E@std@@@2@X@json_abi_v3_11_3@nlohmann@@Vinput_stream_adapter@detail@23@@detail@12@Vinput_stream_adapter@412@V?$function@$$A6A_NHW4parse_event_t@detail@json_abi_v3_11_3@nlohmann@@AEAV?$basic_json@Vmap@std@@Vvector@2@V?$basic_string@DU?$char_traits@D@std@@V?$allocator@D@2@@2@_N_J_KNVallocator@2@Uadl_serializer@json_abi_v3_11_3@nlohmann@@V?$vector@EV?$allocator@E@std@@@2@X@34@@Z@std@@_N2@Z 0000000180065df0 f i KenshiMP.Common:config.obj
 0001:00065010       ??$sax_parse_internal@V?$json_sax_dom_callback_parser@V?$basic_json@Vmap@std@@Vvector@2@V?$basic_string@DU?$char_traits@D@std@@V?$allocator@D@2@@2@_N_J_KNVallocator@2@Uadl_serializer@json_abi_v3_11_3@nlohmann@@V?$vector@EV?$allocator@E@std@@@2@X@json_abi_v3_11_3@nlohmann@@@detail@json_abi_v3_11_3@nlohmann@@@?$parser@V?$basic_json@Vmap@std@@Vvector@2@V?$basic_string@DU?$char_traits@D@std@@V?$allocator@D@2@@2@_N_J_KNVallocator@2@Uadl_serializer@json_abi_v3_11_3@nlohmann@@V?$vector@EV?$allocator@E@std@@@2@X@json_abi_v3_11_3@nlohmann@@Vinput_stream_adapter@detail@23@@detail@json_abi_v3_11_3@nlohmann@@AEAA_NPEAV?$json_sax_dom_callback_parser@V?$basic_json@Vmap@std@@Vvector@2@V?$basic_string@DU?$char_traits@D@std@@V?$allocator@D@2@@2@_N_J_KNVallocator@2@Uadl_serializer@json_abi_v3_11_3@nlohmann@@V?$vector@EV?$allocator@E@std@@@2@X@json_abi_v3_11_3@nlohmann@@@123@@Z 0000000180066010 f i KenshiMP.Common:config.obj
 0001:00065e10       ??$sax_parse_internal@V?$json_sax_dom_parser@V?$basic_json@Vmap@std@@Vvector@2@V?$basic_string@DU?$char_traits@D@std@@V?$allocator@D@2@@2@_N_J_KNVallocator@2@Uadl_serializer@json_abi_v3_11_3@nlohmann@@V?$vector@EV?$allocator@E@std@@@2@X@json_abi_v3_11_3@nlohmann@@@detail@json_abi_v3_11_3@nlohmann@@@?$parser@V?$basic_json@Vmap@std@@Vvector@2@V?$basic_string@DU?$char_traits@D@std@@V?$allocator@D@2@@2@_N_J_KNVallocator@2@Uadl_serializer@json_abi_v3_11_3@nlohmann@@V?$vector@EV?$allocator@E@std@@@2@X@json_abi_v3_11_3@nlohmann@@Vinput_stream_adapter@detail@23@@detail@json_abi_v3_11_3@nlohmann@@AEAA_NPEAV?$json_sax_dom_parser@V?$basic_json@Vmap@std@@Vvector@2@V?$basic_string@DU?$char_traits@D@std@@V?$allocator@D@2@@2@_N_J_KNVallocator@2@Uadl_serializer@json_abi_v3_11_3@nlohmann@@V?$vector@EV?$allocator@E@std@@@2@X@json_abi_v3_11_3@nlohmann@@@123@@Z 0000000180066e10 f i KenshiMP.Common:config.obj
 0001:00066cb0       ??$to_chars@N@detail@json_abi_v3_11_3@nlohmann@@YAPEADPEADPEBDN@Z 0000000180067cb0 f i KenshiMP.Common:config.obj
 0001:00066e40       ??$transform@V?$iter_impl@$$CBV?$basic_json@Vmap@std@@Vvector@2@V?$basic_string@DU?$char_traits@D@std@@V?$allocator@D@2@@2@_N_J_KNVallocator@2@Uadl_serializer@json_abi_v3_11_3@nlohmann@@V?$vector@EV?$allocator@E@std@@@2@X@json_abi_v3_11_3@nlohmann@@@detail@json_abi_v3_11_3@nlohmann@@V?$insert_iterator@V?$vector@V?$basic_string@DU?$char_traits@D@std@@V?$allocator@D@2@@std@@V?$allocator@V?$basic_string@DU?$char_traits@D@std@@V?$allocator@D@2@@std@@@2@@std@@@std@@V<lambda_77323142f3158c13558bc168bffa8c76>@@@std@@YA?AV?$insert_iterator@V?$vector@V?$basic_string@DU?$char_traits@D@std@@V?$allocator@D@2@@std@@V?$allocator@V?$basic_string@DU?$char_traits@D@std@@V?$allocator@D@2@@std@@@2@@std@@@0@V?$iter_impl@$$CBV?$basic_json@Vmap@std@@Vvector@2@V?$basic_string@DU?$char_traits@D@std@@V?$allocator@D@2@@2@_N_J_KNVallocator@2@Uadl_serializer@json_abi_v3_11_3@nlohmann@@V?$vector@EV?$allocator@E@std@@@2@X@json_abi_v3_11_3@nlohmann@@@detail@json_abi_v3_11_3@nlohmann@@0V10@V<lambda_77323142f3158c13558bc168bffa8c76>@@@Z 0000000180067e40 f i KenshiMP.Common:config.obj
 0001:000671d0       ??$use_facet@V?$codecvt@DDU_Mbstatet@@@std@@@std@@YAAEBV?$codecvt@DDU_Mbstatet@@@0@AEBVlocale@0@@Z 00000001800681d0 f i KenshiMP.Common:config.obj
 0001:000672f0       ??0?$basic_ifstream@DU?$char_traits@D@std@@@std@@QEAA@AEBV?$basic_string@DU?$char_traits@D@std@@V?$allocator@D@2@@1@HH@Z 00000001800682f0 f i KenshiMP.Common:config.obj
 0001:00067440       ??0?$basic_json@Vmap@std@@Vvector@2@V?$basic_string@DU?$char_traits@D@std@@V?$allocator@D@2@@2@_N_J_KNVallocator@2@Uadl_serializer@json_abi_v3_11_3@nlohmann@@V?$vector@EV?$allocator@E@std@@@2@X@json_abi_v3_11_3@nlohmann@@QEAA@AEBV012@@Z 0000000180068440 f i KenshiMP.Common:config.obj
 0001:00067780       ??0?$basic_json@Vmap@std@@Vvector@2@V?$basic_string@DU?$char_traits@D@std@@V?$allocator@D@2@@2@_N_J_KNVallocator@2@Uadl_serializer@json_abi_v3_11_3@nlohmann@@V?$vector@EV?$allocator@E@std@@@2@X@json_abi_v3_11_3@nlohmann@@QEAA@W4value_t@detail@12@@Z 0000000180068780 f i KenshiMP.Common:config.obj
 0001:000678d0       ??0?$basic_ofstream@DU?$char_traits@D@std@@@std@@QEAA@AEBV?$basic_string@DU?$char_traits@D@std@@V?$allocator@D@2@@1@HH@Z 00000001800688d0 f i KenshiMP.Common:config.obj
 0001:00067a10       ??0?$json_sax_dom_callback_parser@V?$basic_json@Vmap@std@@Vvector@2@V?$basic_string@DU?$char_traits@D@std@@V?$allocator@D@2@@2@_N_J_KNVallocator@2@Uadl_serializer@json_abi_v3_11_3@nlohmann@@V?$vector@EV?$allocator@E@std@@@2@X@json_abi_v3_11_3@nlohmann@@@detail@json_abi_v3_11_3@nlohmann@@QEAA@AEAV?$basic_json@Vmap@std@@Vvector@2@V?$basic_string@DU?$char_traits@D@std@@V?$allocator@D@2@@2@_N_J_KNVallocator@2@Uadl_serializer@json_abi_v3_11_3@nlohmann@@V?$vector@EV?$allocator@E@std@@@2@X@23@V?$function@$$A6A_NHW4parse_event_t@detail@json_abi_v3_11_3@nlohmann@@AEAV?$basic_json@Vmap@std@@Vvector@2@V?$basic_string@DU?$char_traits@D@std@@V?$allocator@D@2@@2@_N_J_KNVallocator@2@Uadl_serializer@json_abi_v3_11_3@nlohmann@@V?$vector@EV?$allocator@E@std@@@2@X@34@@Z@std@@_N@Z 0000000180068a10 f i KenshiMP.Common:config.obj
 0001:00067b10       ??0exception@detail@json_abi_v3_11_3@nlohmann@@QEAA@AEBV0123@@Z 0000000180068b10 f i KenshiMP.Common:config.obj
 0001:00067b90       ??0invalid_iterator@detail@json_abi_v3_11_3@nlohmann@@QEAA@AEBV0123@@Z 0000000180068b90 f i KenshiMP.Common:config.obj
 0001:00067bc0       ??0other_error@detail@json_abi_v3_11_3@nlohmann@@QEAA@AEBV0123@@Z 0000000180068bc0 f i KenshiMP.Common:config.obj
 0001:00067bf0       ??0out_of_range@detail@json_abi_v3_11_3@nlohmann@@QEAA@AEBV0123@@Z 0000000180068bf0 f i KenshiMP.Common:config.obj
 0001:00067c20       ??0parse_error@detail@json_abi_v3_11_3@nlohmann@@AEAA@H_KPEBD@Z 0000000180068c20 f i KenshiMP.Common:config.obj
 0001:00067ca0       ??0parse_error@detail@json_abi_v3_11_3@nlohmann@@QEAA@AEBV0123@@Z 0000000180068ca0 f i KenshiMP.Common:config.obj
 0001:00067ce0       ??0runtime_error@std@@QEAA@AEBV01@@Z 0000000180068ce0 f i KenshiMP.Common:config.obj
 0001:00067d20       ??0type_error@detail@json_abi_v3_11_3@nlohmann@@QEAA@AEBV0123@@Z 0000000180068d20 f i KenshiMP.Common:config.obj
 0001:00067d50       ??1?$_Alloc_construct_ptr@V?$allocator@U?$_Tree_node@U?$pair@$$CBV?$basic_string@DU?$char_traits@D@std@@V?$allocator@D@2@@std@@V?$basic_json@Vmap@std@@Vvector@2@V?$basic_string@DU?$char_traits@D@std@@V?$allocator@D@2@@2@_N_J_KNVallocator@2@Uadl_serializer@json_abi_v3_11_3@nlohmann@@V?$vector@EV?$allocator@E@std@@@2@X@json_abi_v3_11_3@nlohmann@@@std@@PEAX@std@@@std@@@std@@QEAA@XZ 0000000180068d50 f i KenshiMP.Common:config.obj
 0001:00067d50       ??1?$_Tree_temp_node_alloc@V?$allocator@U?$_Tree_node@U?$pair@$$CBV?$basic_string@DU?$char_traits@D@std@@V?$allocator@D@2@@std@@V?$basic_json@Vmap@std@@Vvector@2@V?$basic_string@DU?$char_traits@D@std@@V?$allocator@D@2@@2@_N_J_KNVallocator@2@Uadl_serializer@json_abi_v3_11_3@nlohmann@@V?$vector@EV?$allocator@E@std@@@2@X@json_abi_v3_11_3@nlohmann@@@std@@PEAX@std@@@std@@@std@@QEAA@XZ 0000000180068d50 f i KenshiMP.Common:config.obj
 0001:00067d70       ??1?$_Erase_tree_and_orphan_guard@V?$allocator@U?$_Tree_node@U?$pair@$$CBV?$basic_string@DU?$char_traits@D@std@@V?$allocator@D@2@@std@@V?$basic_json@Vmap@std@@Vvector@2@V?$basic_string@DU?$char_traits@D@std@@V?$allocator@D@2@@2@_N_J_KNVallocator@2@Uadl_serializer@json_abi_v3_11_3@nlohmann@@V?$vector@EV?$allocator@E@std@@@2@X@json_abi_v3_11_3@nlohmann@@@std@@PEAX@std@@@std@@@?$_Tree_val@U?$_Tree_simple_types@U?$pair@$$CBV?$basic_string@DU?$char_traits@D@std@@V?$allocator@D@2@@std@@V?$basic_json@Vmap@std@@Vvector@2@V?$basic_string@DU?$char_traits@D@std@@V?$allocator@D@2@@2@_N_J_KNVallocator@2@Uadl_serializer@json_abi_v3_11_3@nlohmann@@V?$vector@EV?$allocator@E@std@@@2@X@json_abi_v3_11_3@nlohmann@@@std@@@std@@@std@@QEAA@XZ 0000000180068d70 f i KenshiMP.Common:config.obj
 0001:00067d90       ??1?$_Tidy_guard@V?$vector@V?$basic_json@Vmap@std@@Vvector@2@V?$basic_string@DU?$char_traits@D@std@@V?$allocator@D@2@@2@_N_J_KNVallocator@2@Uadl_serializer@json_abi_v3_11_3@nlohmann@@V?$vector@EV?$allocator@E@std@@@2@X@json_abi_v3_11_3@nlohmann@@V?$allocator@V?$basic_json@Vmap@std@@Vvector@2@V?$basic_string@DU?$char_traits@D@std@@V?$allocator@D@2@@2@_N_J_KNVallocator@2@Uadl_serializer@json_abi_v3_11_3@nlohmann@@V?$vector@EV?$allocator@E@std@@@2@X@json_abi_v3_11_3@nlohmann@@@std@@@std@@@std@@QEAA@XZ 0000000180068d90 f i KenshiMP.Common:config.obj
 0001:00067da0       ??1?$_Tree_head_scoped_ptr@V?$allocator@U?$_Tree_node@U?$pair@$$CBV?$basic_string@DU?$char_traits@D@std@@V?$allocator@D@2@@std@@V?$basic_json@Vmap@std@@Vvector@2@V?$basic_string@DU?$char_traits@D@std@@V?$allocator@D@2@@2@_N_J_KNVallocator@2@Uadl_serializer@json_abi_v3_11_3@nlohmann@@V?$vector@EV?$allocator@E@std@@@2@X@json_abi_v3_11_3@nlohmann@@@std@@PEAX@std@@@std@@V?$_Tree_val@U?$_Tree_simple_types@U?$pair@$$CBV?$basic_string@DU?$char_traits@D@std@@V?$allocator@D@2@@std@@V?$basic_json@Vmap@std@@Vvector@2@V?$basic_string@DU?$char_traits@D@std@@V?$allocator@D@2@@2@_N_J_KNVallocator@2@Uadl_serializer@json_abi_v3_11_3@nlohmann@@V?$vector@EV?$allocator@E@std@@@2@X@json_abi_v3_11_3@nlohmann@@@std@@@std@@@2@@std@@QEAA@XZ 0000000180068da0 f i KenshiMP.Common:config.obj
 0001:00067de0       ??1?$_Uninitialized_backout_al@V?$allocator@V?$basic_json@Vmap@std@@Vvector@2@V?$basic_string@DU?$char_traits@D@std@@V?$allocator@D@2@@2@_N_J_KNVallocator@2@Uadl_serializer@json_abi_v3_11_3@nlohmann@@V?$vector@EV?$allocator@E@std@@@2@X@json_abi_v3_11_3@nlohmann@@@std@@@std@@QEAA@XZ 0000000180068de0 f i KenshiMP.Common:config.obj
 0001:00067e30       ??1?$basic_filebuf@DU?$char_traits@D@std@@@std@@UEAA@XZ 0000000180068e30 f i KenshiMP.Common:config.obj
 0001:00067f00       ??1?$basic_json@Vmap@std@@Vvector@2@V?$basic_string@DU?$char_traits@D@std@@V?$allocator@D@2@@2@_N_J_KNVallocator@2@Uadl_serializer@json_abi_v3_11_3@nlohmann@@V?$vector@EV?$allocator@E@std@@@2@X@json_abi_v3_11_3@nlohmann@@QEAA@XZ 0000000180068f00 f i KenshiMP.Common:config.obj
 0001:00067f20       ??1?$json_sax_dom_callback_parser@V?$basic_json@Vmap@std@@Vvector@2@V?$basic_string@DU?$char_traits@D@std@@V?$allocator@D@2@@2@_N_J_KNVallocator@2@Uadl_serializer@json_abi_v3_11_3@nlohmann@@V?$vector@EV?$allocator@E@std@@@2@X@json_abi_v3_11_3@nlohmann@@@detail@json_abi_v3_11_3@nlohmann@@QEAA@XZ 0000000180068f20 f i KenshiMP.Common:config.obj
 0001:00067f90       ??1?$json_sax_dom_parser@V?$basic_json@Vmap@std@@Vvector@2@V?$basic_string@DU?$char_traits@D@std@@V?$allocator@D@2@@2@_N_J_KNVallocator@2@Uadl_serializer@json_abi_v3_11_3@nlohmann@@V?$vector@EV?$allocator@E@std@@@2@X@json_abi_v3_11_3@nlohmann@@@detail@json_abi_v3_11_3@nlohmann@@QEAA@XZ 0000000180068f90 f i KenshiMP.Common:config.obj
 0001:00067fa0       ??1?$lexer@V?$basic_json@Vmap@std@@Vvector@2@V?$basic_string@DU?$char_traits@D@std@@V?$allocator@D@2@@2@_N_J_KNVallocator@2@Uadl_serializer@json_abi_v3_11_3@nlohmann@@V?$vector@EV?$allocator@E@std@@@2@X@json_abi_v3_11_3@nlohmann@@Vinput_stream_adapter@detail@23@@detail@json_abi_v3_11_3@nlohmann@@QEAA@XZ 0000000180068fa0 f i KenshiMP.Common:config.obj
 0001:00067ff0       ??1?$parser@V?$basic_json@Vmap@std@@Vvector@2@V?$basic_string@DU?$char_traits@D@std@@V?$allocator@D@2@@2@_N_J_KNVallocator@2@Uadl_serializer@json_abi_v3_11_3@nlohmann@@V?$vector@EV?$allocator@E@std@@@2@X@json_abi_v3_11_3@nlohmann@@Vinput_stream_adapter@detail@23@@detail@json_abi_v3_11_3@nlohmann@@QEAA@XZ 0000000180068ff0 f i KenshiMP.Common:config.obj
 0001:00068070       ??1?$serializer@V?$basic_json@Vmap@std@@Vvector@2@V?$basic_string@DU?$char_traits@D@std@@V?$allocator@D@2@@2@_N_J_KNVallocator@2@Uadl_serializer@json_abi_v3_11_3@nlohmann@@V?$vector@EV?$allocator@E@std@@@2@X@json_abi_v3_11_3@nlohmann@@@detail@json_abi_v3_11_3@nlohmann@@QEAA@XZ 0000000180069070 f i KenshiMP.Common:config.obj
 0001:000680d0       ??1?$unique_ptr@V?$byte_container_with_subtype@V?$vector@EV?$allocator@E@std@@@std@@@json_abi_v3_11_3@nlohmann@@V<lambda_a0678839c57424f7f603047325105e8a>@@@std@@QEAA@XZ 00000001800690d0 f i KenshiMP.Common:config.obj
 0001:000680f0       ??1?$unique_ptr@V?$map@V?$basic_string@DU?$char_traits@D@std@@V?$allocator@D@2@@std@@V?$basic_json@Vmap@std@@Vvector@2@V?$basic_string@DU?$char_traits@D@std@@V?$allocator@D@2@@2@_N_J_KNVallocator@2@Uadl_serializer@json_abi_v3_11_3@nlohmann@@V?$vector@EV?$allocator@E@std@@@2@X@json_abi_v3_11_3@nlohmann@@U?$less@X@2@V?$allocator@U?$pair@$$CBV?$basic_string@DU?$char_traits@D@std@@V?$allocator@D@2@@std@@V?$basic_json@Vmap@std@@Vvector@2@V?$basic_string@DU?$char_traits@D@std@@V?$allocator@D@2@@2@_N_J_KNVallocator@2@Uadl_serializer@json_abi_v3_11_3@nlohmann@@V?$vector@EV?$allocator@E@std@@@2@X@json_abi_v3_11_3@nlohmann@@@std@@@2@@std@@V<lambda_184bc71e138e9c99dca1e53d0e3ea8e8>@@@std@@QEAA@XZ 00000001800690f0 f i KenshiMP.Common:config.obj
 0001:000680f0       ??1?$unique_ptr@V?$map@V?$basic_string@DU?$char_traits@D@std@@V?$allocator@D@2@@std@@V?$basic_json@Vmap@std@@Vvector@2@V?$basic_string@DU?$char_traits@D@std@@V?$allocator@D@2@@2@_N_J_KNVallocator@2@Uadl_serializer@json_abi_v3_11_3@nlohmann@@V?$vector@EV?$allocator@E@std@@@2@X@json_abi_v3_11_3@nlohmann@@U?$less@X@2@V?$allocator@U?$pair@$$CBV?$basic_string@DU?$char_traits@D@std@@V?$allocator@D@2@@std@@V?$basic_json@Vmap@std@@Vvector@2@V?$basic_string@DU?$char_traits@D@std@@V?$allocator@D@2@@2@_N_J_KNVallocator@2@Uadl_serializer@json_abi_v3_11_3@nlohmann@@V?$vector@EV?$allocator@E@std@@@2@X@json_abi_v3_11_3@nlohmann@@@std@@@2@@std@@V<lambda_d524215a1689a2242efa3e6ea1d073e7>@@@std@@QEAA@XZ 00000001800690f0 f i KenshiMP.Common:config.obj
 0001:00068110       ??1?$vector@V?$basic_json@Vmap@std@@Vvector@2@V?$basic_string@DU?$char_traits@D@std@@V?$allocator@D@2@@2@_N_J_KNVallocator@2@Uadl_serializer@json_abi_v3_11_3@nlohmann@@V?$vector@EV?$allocator@E@std@@@2@X@json_abi_v3_11_3@nlohmann@@V?$allocator@V?$basic_json@Vmap@std@@Vvector@2@V?$basic_string@DU?$char_traits@D@std@@V?$allocator@D@2@@2@_N_J_KNVallocator@2@Uadl_serializer@json_abi_v3_11_3@nlohmann@@V?$vector@EV?$allocator@E@std@@@2@X@json_abi_v3_11_3@nlohmann@@@std@@@std@@QEAA@XZ 0000000180069110 f i KenshiMP.Common:config.obj
 0001:00068120       ??1_Reallocation_guard@?$vector@V?$basic_json@Vmap@std@@Vvector@2@V?$basic_string@DU?$char_traits@D@std@@V?$allocator@D@2@@2@_N_J_KNVallocator@2@Uadl_serializer@json_abi_v3_11_3@nlohmann@@V?$vector@EV?$allocator@E@std@@@2@X@json_abi_v3_11_3@nlohmann@@V?$allocator@V?$basic_json@Vmap@std@@Vvector@2@V?$basic_string@DU?$char_traits@D@std@@V?$allocator@D@2@@2@_N_J_KNVallocator@2@Uadl_serializer@json_abi_v3_11_3@nlohmann@@V?$vector@EV?$allocator@E@std@@@2@X@json_abi_v3_11_3@nlohmann@@@std@@@std@@QEAA@XZ 0000000180069120 f i KenshiMP.Common:config.obj
 0001:000681d0       ??1data@?$basic_json@Vmap@std@@Vvector@2@V?$basic_string@DU?$char_traits@D@std@@V?$allocator@D@2@@2@_N_J_KNVallocator@2@Uadl_serializer@json_abi_v3_11_3@nlohmann@@V?$vector@EV?$allocator@E@std@@@2@X@json_abi_v3_11_3@nlohmann@@QEAA@XZ 00000001800691d0 f i KenshiMP.Common:config.obj
 0001:000681f0       ??1input_stream_adapter@detail@json_abi_v3_11_3@nlohmann@@QEAA@XZ 00000001800691f0 f i KenshiMP.Common:config.obj
 0001:00068230       ??1invalid_iterator@detail@json_abi_v3_11_3@nlohmann@@UEAA@XZ 0000000180069230 f i KenshiMP.Common:config.obj
 0001:00068230       ??1other_error@detail@json_abi_v3_11_3@nlohmann@@UEAA@XZ 0000000180069230 f i KenshiMP.Common:config.obj
 0001:00068230       ??1out_of_range@detail@json_abi_v3_11_3@nlohmann@@UEAA@XZ 0000000180069230 f i KenshiMP.Common:config.obj
 0001:00068230       ??1parse_error@detail@json_abi_v3_11_3@nlohmann@@UEAA@XZ 0000000180069230 f i KenshiMP.Common:config.obj
 0001:00068230       ??1type_error@detail@json_abi_v3_11_3@nlohmann@@UEAA@XZ 0000000180069230 f i KenshiMP.Common:config.obj
 0001:00068270       ??1sentry@?$basic_ostream@DU?$char_traits@D@std@@@std@@QEAA@XZ 0000000180069270 f i KenshiMP.Common:config.obj
 0001:000682c0       ??4?$vector@V?$basic_string@DU?$char_traits@D@std@@V?$allocator@D@2@@std@@V?$allocator@V?$basic_string@DU?$char_traits@D@std@@V?$allocator@D@2@@std@@@2@@std@@QEAAAEAV01@$$QEAV01@@Z 00000001800692c0 f i KenshiMP.Common:config.obj
 0001:00068310       ??5json_abi_v3_11_3@nlohmann@@YAAEAV?$basic_istream@DU?$char_traits@D@std@@@std@@AEAV23@AEAV?$basic_json@Vmap@std@@Vvector@2@V?$basic_string@DU?$char_traits@D@std@@V?$allocator@D@2@@2@_N_J_KNVallocator@2@Uadl_serializer@json_abi_v3_11_3@nlohmann@@V?$vector@EV?$allocator@E@std@@@2@X@01@@Z 0000000180069310 f i KenshiMP.Common:config.obj
 0001:00068420       ??A?$basic_json@Vmap@std@@Vvector@2@V?$basic_string@DU?$char_traits@D@std@@V?$allocator@D@2@@2@_N_J_KNVallocator@2@Uadl_serializer@json_abi_v3_11_3@nlohmann@@V?$vector@EV?$allocator@E@std@@@2@X@json_abi_v3_11_3@nlohmann@@QEAAAEAV012@V?$basic_string@DU?$char_traits@D@std@@V?$allocator@D@2@@std@@@Z 0000000180069420 f i KenshiMP.Common:config.obj
 0001:00068670       ??A?$map@V?$basic_string@DU?$char_traits@D@std@@V?$allocator@D@2@@std@@V?$basic_json@Vmap@std@@Vvector@2@V?$basic_string@DU?$char_traits@D@std@@V?$allocator@D@2@@2@_N_J_KNVallocator@2@Uadl_serializer@json_abi_v3_11_3@nlohmann@@V?$vector@EV?$allocator@E@std@@@2@X@json_abi_v3_11_3@nlohmann@@U?$less@X@2@V?$allocator@U?$pair@$$CBV?$basic_string@DU?$char_traits@D@std@@V?$allocator@D@2@@std@@V?$basic_json@Vmap@std@@Vvector@2@V?$basic_string@DU?$char_traits@D@std@@V?$allocator@D@2@@2@_N_J_KNVallocator@2@Uadl_serializer@json_abi_v3_11_3@nlohmann@@V?$vector@EV?$allocator@E@std@@@2@X@json_abi_v3_11_3@nlohmann@@@std@@@2@@std@@QEAAAEAV?$basic_json@Vmap@std@@Vvector@2@V?$basic_string@DU?$char_traits@D@std@@V?$allocator@D@2@@2@_N_J_KNVallocator@2@Uadl_serializer@json_abi_v3_11_3@nlohmann@@V?$vector@EV?$allocator@E@std@@@2@X@json_abi_v3_11_3@nlohmann@@AEBV?$basic_string@DU?$char_traits@D@std@@V?$allocator@D@2@@1@@Z 0000000180069670 f i KenshiMP.Common:config.obj
 0001:00068760       ??H?$_Vb_iterator@U?$_Wrap_alloc@V?$allocator@I@std@@@std@@@std@@QEBA?AV01@_J@Z 0000000180069760 f i KenshiMP.Common:config.obj
 0001:000687d0       ??_D?$basic_ifstream@DU?$char_traits@D@std@@@std@@QEAAXXZ 00000001800697d0 f i KenshiMP.Common:config.obj
 0001:00068830       ??_D?$basic_ofstream@DU?$char_traits@D@std@@@std@@QEAAXXZ 0000000180069830 f i KenshiMP.Common:config.obj
 0001:00068890       ??_E?$basic_ifstream@DU?$char_traits@D@std@@@std@@$4PPPPPPPM@A@EAAPEAXI@Z 0000000180069890 f i KenshiMP.Common:config.obj
 0001:0006889c       ??_E?$basic_ofstream@DU?$char_traits@D@std@@@std@@$4PPPPPPPM@A@EAAPEAXI@Z 000000018006989c f i KenshiMP.Common:config.obj
 0001:000688b0       ??_E?$_Ref_count_obj2@V?$output_string_adapter@DV?$basic_string@DU?$char_traits@D@std@@V?$allocator@D@2@@std@@@detail@json_abi_v3_11_3@nlohmann@@@std@@UEAAPEAXI@Z 00000001800698b0 f i KenshiMP.Common:config.obj
 0001:000688b0       ??_G?$_Ref_count_obj2@V?$output_string_adapter@DV?$basic_string@DU?$char_traits@D@std@@V?$allocator@D@2@@std@@@detail@json_abi_v3_11_3@nlohmann@@@std@@UEAAPEAXI@Z 00000001800698b0 f i KenshiMP.Common:config.obj
 0001:000688e0       ??_E?$basic_filebuf@DU?$char_traits@D@std@@@std@@UEAAPEAXI@Z 00000001800698e0 f i KenshiMP.Common:config.obj
 0001:000688e0       ??_G?$basic_filebuf@DU?$char_traits@D@std@@@std@@UEAAPEAXI@Z 00000001800698e0 f i KenshiMP.Common:config.obj
 0001:00068920       ??_E?$basic_ifstream@DU?$char_traits@D@std@@@std@@UEAAPEAXI@Z 0000000180069920 f i KenshiMP.Common:config.obj
 0001:00068920       ??_G?$basic_ifstream@DU?$char_traits@D@std@@@std@@UEAAPEAXI@Z 0000000180069920 f i KenshiMP.Common:config.obj
 0001:000689b0       ??_E?$basic_ofstream@DU?$char_traits@D@std@@@std@@UEAAPEAXI@Z 00000001800699b0 f i KenshiMP.Common:config.obj
 0001:000689b0       ??_G?$basic_ofstream@DU?$char_traits@D@std@@@std@@UEAAPEAXI@Z 00000001800699b0 f i KenshiMP.Common:config.obj
 0001:00068a40       ??_E?$output_string_adapter@DV?$basic_string@DU?$char_traits@D@std@@V?$allocator@D@2@@std@@@detail@json_abi_v3_11_3@nlohmann@@UEAAPEAXI@Z 0000000180069a40 f i KenshiMP.Common:config.obj
 0001:00068a40       ??_E_Generic_error_category@std@@UEAAPEAXI@Z 0000000180069a40 f i spdlog:bundled_fmtlib_format.obj
 0001:00068a40       ??_G?$output_string_adapter@DV?$basic_string@DU?$char_traits@D@std@@V?$allocator@D@2@@std@@@detail@json_abi_v3_11_3@nlohmann@@UEAAPEAXI@Z 0000000180069a40 f i KenshiMP.Common:config.obj
 0001:00068a40       ??_G_Generic_error_category@std@@UEAAPEAXI@Z 0000000180069a40 f i spdlog:bundled_fmtlib_format.obj
 0001:00068a70       ??_Eexception@detail@json_abi_v3_11_3@nlohmann@@UEAAPEAXI@Z 0000000180069a70 f i KenshiMP.Common:config.obj
 0001:00068a70       ??_Einvalid_iterator@detail@json_abi_v3_11_3@nlohmann@@UEAAPEAXI@Z 0000000180069a70 f i KenshiMP.Common:config.obj
 0001:00068a70       ??_Eother_error@detail@json_abi_v3_11_3@nlohmann@@UEAAPEAXI@Z 0000000180069a70 f i KenshiMP.Common:config.obj
 0001:00068a70       ??_Eout_of_range@detail@json_abi_v3_11_3@nlohmann@@UEAAPEAXI@Z 0000000180069a70 f i KenshiMP.Common:config.obj
 0001:00068a70       ??_Etype_error@detail@json_abi_v3_11_3@nlohmann@@UEAAPEAXI@Z 0000000180069a70 f i KenshiMP.Common:config.obj
 0001:00068a70       ??_Gexception@detail@json_abi_v3_11_3@nlohmann@@UEAAPEAXI@Z 0000000180069a70 f i KenshiMP.Common:config.obj
 0001:00068a70       ??_Ginvalid_iterator@detail@json_abi_v3_11_3@nlohmann@@UEAAPEAXI@Z 0000000180069a70 f i KenshiMP.Common:config.obj
 0001:00068a70       ??_Gother_error@detail@json_abi_v3_11_3@nlohmann@@UEAAPEAXI@Z 0000000180069a70 f i KenshiMP.Common:config.obj
 0001:00068a70       ??_Gout_of_range@detail@json_abi_v3_11_3@nlohmann@@UEAAPEAXI@Z 0000000180069a70 f i KenshiMP.Common:config.obj
 0001:00068a70       ??_Gtype_error@detail@json_abi_v3_11_3@nlohmann@@UEAAPEAXI@Z 0000000180069a70 f i KenshiMP.Common:config.obj
 0001:00068ad0       ??_Eparse_error@detail@json_abi_v3_11_3@nlohmann@@UEAAPEAXI@Z 0000000180069ad0 f i KenshiMP.Common:config.obj
 0001:00068ad0       ??_Gparse_error@detail@json_abi_v3_11_3@nlohmann@@UEAAPEAXI@Z 0000000180069ad0 f i KenshiMP.Common:config.obj
 0001:00068b30       ?GetDefaultPath@ClientConfig@kmp@@SA?AV?$basic_string@DU?$char_traits@D@std@@V?$allocator@D@2@@std@@XZ 0000000180069b30 f   KenshiMP.Common:config.obj
 0001:00068e70       ?Load@ClientConfig@kmp@@QEAA_NAEBV?$basic_string@DU?$char_traits@D@std@@V?$allocator@D@2@@std@@@Z 0000000180069e70 f   KenshiMP.Common:config.obj
 0001:00069b00       ?Save@ClientConfig@kmp@@QEBA_NAEBV?$basic_string@DU?$char_traits@D@std@@V?$allocator@D@2@@std@@@Z 000000018006ab00 f   KenshiMP.Common:config.obj
 0001:0006a250       ?_Change_array@?$vector@PEAV?$basic_json@Vmap@std@@Vvector@2@V?$basic_string@DU?$char_traits@D@std@@V?$allocator@D@2@@2@_N_J_KNVallocator@2@Uadl_serializer@json_abi_v3_11_3@nlohmann@@V?$vector@EV?$allocator@E@std@@@2@X@json_abi_v3_11_3@nlohmann@@V?$allocator@PEAV?$basic_json@Vmap@std@@Vvector@2@V?$basic_string@DU?$char_traits@D@std@@V?$allocator@D@2@@2@_N_J_KNVallocator@2@Uadl_serializer@json_abi_v3_11_3@nlohmann@@V?$vector@EV?$allocator@E@std@@@2@X@json_abi_v3_11_3@nlohmann@@@std@@@std@@AEAAXQEAPEAV?$basic_json@Vmap@std@@Vvector@2@V?$basic_string@DU?$char_traits@D@std@@V?$allocator@D@2@@2@_N_J_KNVallocator@2@Uadl_serializer@json_abi_v3_11_3@nlohmann@@V?$vector@EV?$allocator@E@std@@@2@X@json_abi_v3_11_3@nlohmann@@_K1@Z 000000018006b250 f i KenshiMP.Common:config.obj
 0001:0006a2f0       ?_Change_array@?$vector@V?$basic_json@Vmap@std@@Vvector@2@V?$basic_string@DU?$char_traits@D@std@@V?$allocator@D@2@@2@_N_J_KNVallocator@2@Uadl_serializer@json_abi_v3_11_3@nlohmann@@V?$vector@EV?$allocator@E@std@@@2@X@json_abi_v3_11_3@nlohmann@@V?$allocator@V?$basic_json@Vmap@std@@Vvector@2@V?$basic_string@DU?$char_traits@D@std@@V?$allocator@D@2@@2@_N_J_KNVallocator@2@Uadl_serializer@json_abi_v3_11_3@nlohmann@@V?$vector@EV?$allocator@E@std@@@2@X@json_abi_v3_11_3@nlohmann@@@std@@@std@@AEAAXQEAV?$basic_json@Vmap@std@@Vvector@2@V?$basic_string@DU?$char_traits@D@std@@V?$allocator@D@2@@2@_N_J_KNVallocator@2@Uadl_serializer@json_abi_v3_11_3@nlohmann@@V?$vector@EV?$allocator@E@std@@@2@X@json_abi_v3_11_3@nlohmann@@_K1@Z 000000018006b2f0 f i KenshiMP.Common:config.obj
 0001:0006a3d0       ?_Destroy@?$_Ref_count_obj2@V?$output_string_adapter@DV?$basic_string@DU?$char_traits@D@std@@V?$allocator@D@2@@std@@@detail@json_abi_v3_11_3@nlohmann@@@std@@EEAAXXZ 000000018006b3d0 f i KenshiMP.Common:config.obj
 0001:0006a3e0       ?_Endwrite@?$basic_filebuf@DU?$char_traits@D@std@@@std@@IEAA_NXZ 000000018006b3e0 f i KenshiMP.Common:config.obj
 0001:0006a4d0       ?_Insert_x@?$vector@_NV?$allocator@_N@std@@@std@@QEAA_KV?$_Vb_const_iterator@U?$_Wrap_alloc@V?$allocator@I@std@@@std@@@2@_K@Z 000000018006b4d0 f i KenshiMP.Common:config.obj
 0001:0006a740       ?_Lock@?$basic_filebuf@DU?$char_traits@D@std@@@std@@UEAAXXZ 000000018006b740 f i KenshiMP.Common:config.obj
 0001:0006a760       ?_Reset_back@?$basic_filebuf@DU?$char_traits@D@std@@@std@@AEAAXXZ 000000018006b760 f i KenshiMP.Common:config.obj
 0001:0006a7a0       ?_Tidy@?$vector@V?$basic_json@Vmap@std@@Vvector@2@V?$basic_string@DU?$char_traits@D@std@@V?$allocator@D@2@@2@_N_J_KNVallocator@2@Uadl_serializer@json_abi_v3_11_3@nlohmann@@V?$vector@EV?$allocator@E@std@@@2@X@json_abi_v3_11_3@nlohmann@@V?$allocator@V?$basic_json@Vmap@std@@Vvector@2@V?$basic_string@DU?$char_traits@D@std@@V?$allocator@D@2@@2@_N_J_KNVallocator@2@Uadl_serializer@json_abi_v3_11_3@nlohmann@@V?$vector@EV?$allocator@E@std@@@2@X@json_abi_v3_11_3@nlohmann@@@std@@@std@@AEAAXXZ 000000018006b7a0 f i KenshiMP.Common:config.obj
 0001:0006a850       ?_Unlock@?$basic_filebuf@DU?$char_traits@D@std@@@std@@UEAAXXZ 000000018006b850 f i KenshiMP.Common:config.obj
 0001:0006a870       ?_Xlen@?$vector@_NV?$allocator@_N@std@@@std@@SAXXZ 000000018006b870 f i KenshiMP.Common:config.obj
 0001:0006a890       ?back@?$basic_string@DU?$char_traits@D@std@@V?$allocator@D@2@@std@@QEBAAEBDXZ 000000018006b890 f i KenshiMP.Common:config.obj
 0001:0006a8b0       ?back@?$vector@PEAV?$basic_json@Vmap@std@@Vvector@2@V?$basic_string@DU?$char_traits@D@std@@V?$allocator@D@2@@2@_N_J_KNVallocator@2@Uadl_serializer@json_abi_v3_11_3@nlohmann@@V?$vector@EV?$allocator@E@std@@@2@X@json_abi_v3_11_3@nlohmann@@V?$allocator@PEAV?$basic_json@Vmap@std@@Vvector@2@V?$basic_string@DU?$char_traits@D@std@@V?$allocator@D@2@@2@_N_J_KNVallocator@2@Uadl_serializer@json_abi_v3_11_3@nlohmann@@V?$vector@EV?$allocator@E@std@@@2@X@json_abi_v3_11_3@nlohmann@@@std@@@std@@QEAAAEAPEAV?$basic_json@Vmap@std@@Vvector@2@V?$basic_string@DU?$char_traits@D@std@@V?$allocator@D@2@@2@_N_J_KNVallocator@2@Uadl_serializer@json_abi_v3_11_3@nlohmann@@V?$vector@EV?$allocator@E@std@@@2@X@json_abi_v3_11_3@nlohmann@@XZ 000000018006b8b0 f i KenshiMP.Common:config.obj
 0001:0006a8c0       ?back@?$vector@_NV?$allocator@_N@std@@@std@@QEAA?AV?$_Vb_reference@U?$_Wrap_alloc@V?$allocator@I@std@@@std@@@2@XZ 000000018006b8c0 f i KenshiMP.Common:config.obj
 0001:0006a950       ?compare@?$basic_string@DU?$char_traits@D@std@@V?$allocator@D@2@@std@@QEBAHQEBD@Z 000000018006b950 f i KenshiMP.Common:config.obj
 0001:0006a9d0       ?destroy@json_value@?$basic_json@Vmap@std@@Vvector@2@V?$basic_string@DU?$char_traits@D@std@@V?$allocator@D@2@@2@_N_J_KNVallocator@2@Uadl_serializer@json_abi_v3_11_3@nlohmann@@V?$vector@EV?$allocator@E@std@@@2@X@json_abi_v3_11_3@nlohmann@@QEAAXW4value_t@detail@34@@Z 000000018006b9d0 f i KenshiMP.Common:config.obj
 0001:0006af60       ?dump@?$basic_json@Vmap@std@@Vvector@2@V?$basic_string@DU?$char_traits@D@std@@V?$allocator@D@2@@2@_N_J_KNVallocator@2@Uadl_serializer@json_abi_v3_11_3@nlohmann@@V?$vector@EV?$allocator@E@std@@@2@X@json_abi_v3_11_3@nlohmann@@QEBA?AV?$basic_string@DU?$char_traits@D@std@@V?$allocator@D@2@@std@@HD_NW4error_handler_t@detail@23@@Z 000000018006bf60 f i KenshiMP.Common:config.obj
 0001:0006b270       ?dump@?$serializer@V?$basic_json@Vmap@std@@Vvector@2@V?$basic_string@DU?$char_traits@D@std@@V?$allocator@D@2@@2@_N_J_KNVallocator@2@Uadl_serializer@json_abi_v3_11_3@nlohmann@@V?$vector@EV?$allocator@E@std@@@2@X@json_abi_v3_11_3@nlohmann@@@detail@json_abi_v3_11_3@nlohmann@@QEAAXAEBV?$basic_json@Vmap@std@@Vvector@2@V?$basic_string@DU?$char_traits@D@std@@V?$allocator@D@2@@2@_N_J_KNVallocator@2@Uadl_serializer@json_abi_v3_11_3@nlohmann@@V?$vector@EV?$allocator@E@std@@@2@X@34@_N1II@Z 000000018006c270 f i KenshiMP.Common:config.obj
 0001:0006bc40       ?dump_escaped@?$serializer@V?$basic_json@Vmap@std@@Vvector@2@V?$basic_string@DU?$char_traits@D@std@@V?$allocator@D@2@@2@_N_J_KNVallocator@2@Uadl_serializer@json_abi_v3_11_3@nlohmann@@V?$vector@EV?$allocator@E@std@@@2@X@json_abi_v3_11_3@nlohmann@@@detail@json_abi_v3_11_3@nlohmann@@AEAAXAEBV?$basic_string@DU?$char_traits@D@std@@V?$allocator@D@2@@std@@_N@Z 000000018006cc40 f i KenshiMP.Common:config.obj
 0001:0006c110       ?end@?$basic_json@Vmap@std@@Vvector@2@V?$basic_string@DU?$char_traits@D@std@@V?$allocator@D@2@@2@_N_J_KNVallocator@2@Uadl_serializer@json_abi_v3_11_3@nlohmann@@V?$vector@EV?$allocator@E@std@@@2@X@json_abi_v3_11_3@nlohmann@@QEAA?AV?$iter_impl@V?$basic_json@Vmap@std@@Vvector@2@V?$basic_string@DU?$char_traits@D@std@@V?$allocator@D@2@@2@_N_J_KNVallocator@2@Uadl_serializer@json_abi_v3_11_3@nlohmann@@V?$vector@EV?$allocator@E@std@@@2@X@json_abi_v3_11_3@nlohmann@@@detail@23@XZ 000000018006d110 f i KenshiMP.Common:config.obj
 0001:0006c1a0       ?end_array@?$json_sax_dom_callback_parser@V?$basic_json@Vmap@std@@Vvector@2@V?$basic_string@DU?$char_traits@D@std@@V?$allocator@D@2@@2@_N_J_KNVallocator@2@Uadl_serializer@json_abi_v3_11_3@nlohmann@@V?$vector@EV?$allocator@E@std@@@2@X@json_abi_v3_11_3@nlohmann@@@detail@json_abi_v3_11_3@nlohmann@@QEAA_NXZ 000000018006d1a0 f i KenshiMP.Common:config.obj
 0001:0006c2a0       ?end_object@?$json_sax_dom_callback_parser@V?$basic_json@Vmap@std@@Vvector@2@V?$basic_string@DU?$char_traits@D@std@@V?$allocator@D@2@@2@_N_J_KNVallocator@2@Uadl_serializer@json_abi_v3_11_3@nlohmann@@V?$vector@EV?$allocator@E@std@@@2@X@json_abi_v3_11_3@nlohmann@@@detail@json_abi_v3_11_3@nlohmann@@QEAA_NXZ 000000018006d2a0 f i KenshiMP.Common:config.obj
 0001:0006c710       ?erase@?$vector@_NV?$allocator@_N@std@@@std@@QEAA?AV?$_Vb_iterator@U?$_Wrap_alloc@V?$allocator@I@std@@@std@@@2@V?$_Vb_const_iterator@U?$_Wrap_alloc@V?$allocator@I@std@@@std@@@2@@Z 000000018006d710 f i KenshiMP.Common:config.obj
 0001:0006c8f0       ?exception_message@?$parser@V?$basic_json@Vmap@std@@Vvector@2@V?$basic_string@DU?$char_traits@D@std@@V?$allocator@D@2@@2@_N_J_KNVallocator@2@Uadl_serializer@json_abi_v3_11_3@nlohmann@@V?$vector@EV?$allocator@E@std@@@2@X@json_abi_v3_11_3@nlohmann@@Vinput_stream_adapter@detail@23@@detail@json_abi_v3_11_3@nlohmann@@AEAA?AV?$basic_string@DU?$char_traits@D@std@@V?$allocator@D@2@@std@@W4token_type@?$lexer_base@V?$basic_json@Vmap@std@@Vvector@2@V?$basic_string@DU?$char_traits@D@std@@V?$allocator@D@2@@2@_N_J_KNVallocator@2@Uadl_serializer@json_abi_v3_11_3@nlohmann@@V?$vector@EV?$allocator@E@std@@@2@X@json_abi_v3_11_3@nlohmann@@@234@AEBV56@@Z 000000018006d8f0 f i KenshiMP.Common:config.obj
 0001:0006cfc0       ?format_buffer@dtoa_impl@detail@json_abi_v3_11_3@nlohmann@@YAPEADPEADHHHH@Z 000000018006dfc0 f i KenshiMP.Common:config.obj
 0001:0006d190       ?get@?$lexer@V?$basic_json@Vmap@std@@Vvector@2@V?$basic_string@DU?$char_traits@D@std@@V?$allocator@D@2@@2@_N_J_KNVallocator@2@Uadl_serializer@json_abi_v3_11_3@nlohmann@@V?$vector@EV?$allocator@E@std@@@2@X@json_abi_v3_11_3@nlohmann@@Vinput_stream_adapter@detail@23@@detail@json_abi_v3_11_3@nlohmann@@AEAAHXZ 000000018006e190 f i KenshiMP.Common:config.obj
 0001:0006d230       ?get_codepoint@?$lexer@V?$basic_json@Vmap@std@@Vvector@2@V?$basic_string@DU?$char_traits@D@std@@V?$allocator@D@2@@2@_N_J_KNVallocator@2@Uadl_serializer@json_abi_v3_11_3@nlohmann@@V?$vector@EV?$allocator@E@std@@@2@X@json_abi_v3_11_3@nlohmann@@Vinput_stream_adapter@detail@23@@detail@json_abi_v3_11_3@nlohmann@@AEAAHXZ 000000018006e230 f i KenshiMP.Common:config.obj
 0001:0006d370       ?get_token_string@?$lexer@V?$basic_json@Vmap@std@@Vvector@2@V?$basic_string@DU?$char_traits@D@std@@V?$allocator@D@2@@2@_N_J_KNVallocator@2@Uadl_serializer@json_abi_v3_11_3@nlohmann@@V?$vector@EV?$allocator@E@std@@@2@X@json_abi_v3_11_3@nlohmann@@Vinput_stream_adapter@detail@23@@detail@json_abi_v3_11_3@nlohmann@@QEBA?AV?$basic_string@DU?$char_traits@D@std@@V?$allocator@D@2@@std@@XZ 000000018006e370 f i KenshiMP.Common:config.obj
 0001:0006d580       ?grisu2@dtoa_impl@detail@json_abi_v3_11_3@nlohmann@@YAXPEADAEAH1Udiyfp@1234@22@Z 000000018006e580 f i KenshiMP.Common:config.obj
 0001:0006d7c0       ?grisu2_digit_gen@dtoa_impl@detail@json_abi_v3_11_3@nlohmann@@YAXPEADAEAH1Udiyfp@1234@22@Z 000000018006e7c0 f i KenshiMP.Common:config.obj
 0001:0006da50       ?hex_bytes@?$serializer@V?$basic_json@Vmap@std@@Vvector@2@V?$basic_string@DU?$char_traits@D@std@@V?$allocator@D@2@@2@_N_J_KNVallocator@2@Uadl_serializer@json_abi_v3_11_3@nlohmann@@V?$vector@EV?$allocator@E@std@@@2@X@json_abi_v3_11_3@nlohmann@@@detail@json_abi_v3_11_3@nlohmann@@CA?AV?$basic_string@DU?$char_traits@D@std@@V?$allocator@D@2@@std@@E@Z 000000018006ea50 f i KenshiMP.Common:config.obj
 0001:0006dac0       ?imbue@?$basic_filebuf@DU?$char_traits@D@std@@@std@@MEAAXAEBVlocale@2@@Z 000000018006eac0 f i KenshiMP.Common:config.obj
 0001:0006db10       ?key@?$json_sax_dom_callback_parser@V?$basic_json@Vmap@std@@Vvector@2@V?$basic_string@DU?$char_traits@D@std@@V?$allocator@D@2@@2@_N_J_KNVallocator@2@Uadl_serializer@json_abi_v3_11_3@nlohmann@@V?$vector@EV?$allocator@E@std@@@2@X@json_abi_v3_11_3@nlohmann@@@detail@json_abi_v3_11_3@nlohmann@@QEAA_NAEAV?$basic_string@DU?$char_traits@D@std@@V?$allocator@D@2@@std@@@Z 000000018006eb10 f i KenshiMP.Common:config.obj
 0001:0006dc60       ?max_size@?$basic_json@Vmap@std@@Vvector@2@V?$basic_string@DU?$char_traits@D@std@@V?$allocator@D@2@@2@_N_J_KNVallocator@2@Uadl_serializer@json_abi_v3_11_3@nlohmann@@V?$vector@EV?$allocator@E@std@@@2@X@json_abi_v3_11_3@nlohmann@@QEBA_KXZ 000000018006ec60 f i KenshiMP.Common:config.obj
 0001:0006dcc0       ?name@exception@detail@json_abi_v3_11_3@nlohmann@@KA?AV?$basic_string@DU?$char_traits@D@std@@V?$allocator@D@2@@std@@AEBV56@H@Z 000000018006ecc0 f i KenshiMP.Common:config.obj
 0001:0006e060       ?next_byte_in_range@?$lexer@V?$basic_json@Vmap@std@@Vvector@2@V?$basic_string@DU?$char_traits@D@std@@V?$allocator@D@2@@2@_N_J_KNVallocator@2@Uadl_serializer@json_abi_v3_11_3@nlohmann@@V?$vector@EV?$allocator@E@std@@@2@X@json_abi_v3_11_3@nlohmann@@Vinput_stream_adapter@detail@23@@detail@json_abi_v3_11_3@nlohmann@@AEAA_NV?$initializer_list@H@std@@@Z 000000018006f060 f i KenshiMP.Common:config.obj
 0001:0006e160       ?null@?$json_sax_dom_callback_parser@V?$basic_json@Vmap@std@@Vvector@2@V?$basic_string@DU?$char_traits@D@std@@V?$allocator@D@2@@2@_N_J_KNVallocator@2@Uadl_serializer@json_abi_v3_11_3@nlohmann@@V?$vector@EV?$allocator@E@std@@@2@X@json_abi_v3_11_3@nlohmann@@@detail@json_abi_v3_11_3@nlohmann@@QEAA_NXZ 000000018006f160 f i KenshiMP.Common:config.obj
 0001:0006e190       ?null@?$json_sax_dom_parser@V?$basic_json@Vmap@std@@Vvector@2@V?$basic_string@DU?$char_traits@D@std@@V?$allocator@D@2@@2@_N_J_KNVallocator@2@Uadl_serializer@json_abi_v3_11_3@nlohmann@@V?$vector@EV?$allocator@E@std@@@2@X@json_abi_v3_11_3@nlohmann@@@detail@json_abi_v3_11_3@nlohmann@@QEAA_NXZ 000000018006f190 f i KenshiMP.Common:config.obj
 0001:0006e280       ?open@?$basic_filebuf@DU?$char_traits@D@std@@@std@@QEAAPEAV12@PEBDHH@Z 000000018006f280 f i KenshiMP.Common:config.obj
 0001:0006e3d0       ?overflow@?$basic_filebuf@DU?$char_traits@D@std@@@std@@MEAAHH@Z 000000018006f3d0 f i KenshiMP.Common:config.obj
 0001:0006e590       ?parse@?$parser@V?$basic_json@Vmap@std@@Vvector@2@V?$basic_string@DU?$char_traits@D@std@@V?$allocator@D@2@@2@_N_J_KNVallocator@2@Uadl_serializer@json_abi_v3_11_3@nlohmann@@V?$vector@EV?$allocator@E@std@@@2@X@json_abi_v3_11_3@nlohmann@@Vinput_stream_adapter@detail@23@@detail@json_abi_v3_11_3@nlohmann@@QEAAX_NAEAV?$basic_json@Vmap@std@@Vvector@2@V?$basic_string@DU?$char_traits@D@std@@V?$allocator@D@2@@2@_N_J_KNVallocator@2@Uadl_serializer@json_abi_v3_11_3@nlohmann@@V?$vector@EV?$allocator@E@std@@@2@X@34@@Z 000000018006f590 f i KenshiMP.Common:config.obj
 0001:0006ec30       ?pbackfail@?$basic_filebuf@DU?$char_traits@D@std@@@std@@MEAAHH@Z 000000018006fc30 f i KenshiMP.Common:config.obj
 0001:0006ed50       ?pop_back@?$vector@_NV?$allocator@_N@std@@@std@@QEAAXXZ 000000018006fd50 f i KenshiMP.Common:config.obj
 0001:0006edf0       ?position_string@parse_error@detail@json_abi_v3_11_3@nlohmann@@CA?AV?$basic_string@DU?$char_traits@D@std@@V?$allocator@D@2@@std@@AEBUposition_t@234@@Z 000000018006fdf0 f i KenshiMP.Common:config.obj
 0001:0006f1d0       ?push_back@?$vector@PEAV?$basic_json@Vmap@std@@Vvector@2@V?$basic_string@DU?$char_traits@D@std@@V?$allocator@D@2@@2@_N_J_KNVallocator@2@Uadl_serializer@json_abi_v3_11_3@nlohmann@@V?$vector@EV?$allocator@E@std@@@2@X@json_abi_v3_11_3@nlohmann@@V?$allocator@PEAV?$basic_json@Vmap@std@@Vvector@2@V?$basic_string@DU?$char_traits@D@std@@V?$allocator@D@2@@2@_N_J_KNVallocator@2@Uadl_serializer@json_abi_v3_11_3@nlohmann@@V?$vector@EV?$allocator@E@std@@@2@X@json_abi_v3_11_3@nlohmann@@@std@@@std@@QEAAX$$QEAPEAV?$basic_json@Vmap@std@@Vvector@2@V?$basic_string@DU?$char_traits@D@std@@V?$allocator@D@2@@2@_N_J_KNVallocator@2@Uadl_serializer@json_abi_v3_11_3@nlohmann@@V?$vector@EV?$allocator@E@std@@@2@X@json_abi_v3_11_3@nlohmann@@@Z 00000001800701d0 f i KenshiMP.Common:config.obj
 0001:0006f1d0       ?push_back@?$vector@PEAV?$basic_json@Vmap@std@@Vvector@2@V?$basic_string@DU?$char_traits@D@std@@V?$allocator@D@2@@2@_N_J_KNVallocator@2@Uadl_serializer@json_abi_v3_11_3@nlohmann@@V?$vector@EV?$allocator@E@std@@@2@X@json_abi_v3_11_3@nlohmann@@V?$allocator@PEAV?$basic_json@Vmap@std@@Vvector@2@V?$basic_string@DU?$char_traits@D@std@@V?$allocator@D@2@@2@_N_J_KNVallocator@2@Uadl_serializer@json_abi_v3_11_3@nlohmann@@V?$vector@EV?$allocator@E@std@@@2@X@json_abi_v3_11_3@nlohmann@@@std@@@std@@QEAAXAEBQEAV?$basic_json@Vmap@std@@Vvector@2@V?$basic_string@DU?$char_traits@D@std@@V?$allocator@D@2@@2@_N_J_KNVallocator@2@Uadl_serializer@json_abi_v3_11_3@nlohmann@@V?$vector@EV?$allocator@E@std@@@2@X@json_abi_v3_11_3@nlohmann@@@Z 00000001800701d0 f i KenshiMP.Common:config.obj
 0001:0006f2f0       ?push_back@?$vector@_NV?$allocator@_N@std@@@std@@QEAAXAEB_N@Z 00000001800702f0 f i KenshiMP.Common:config.obj
 0001:0006f460       ?scan@?$lexer@V?$basic_json@Vmap@std@@Vvector@2@V?$basic_string@DU?$char_traits@D@std@@V?$allocator@D@2@@2@_N_J_KNVallocator@2@Uadl_serializer@json_abi_v3_11_3@nlohmann@@V?$vector@EV?$allocator@E@std@@@2@X@json_abi_v3_11_3@nlohmann@@Vinput_stream_adapter@detail@23@@detail@json_abi_v3_11_3@nlohmann@@QEAA?AW4token_type@?$lexer_base@V?$basic_json@Vmap@std@@Vvector@2@V?$basic_string@DU?$char_traits@D@std@@V?$allocator@D@2@@2@_N_J_KNVallocator@2@Uadl_serializer@json_abi_v3_11_3@nlohmann@@V?$vector@EV?$allocator@E@std@@@2@X@json_abi_v3_11_3@nlohmann@@@234@XZ 0000000180070460 f i KenshiMP.Common:config.obj
 0001:0006f8c0       ?scan_literal@?$lexer@V?$basic_json@Vmap@std@@Vvector@2@V?$basic_string@DU?$char_traits@D@std@@V?$allocator@D@2@@2@_N_J_KNVallocator@2@Uadl_serializer@json_abi_v3_11_3@nlohmann@@V?$vector@EV?$allocator@E@std@@@2@X@json_abi_v3_11_3@nlohmann@@Vinput_stream_adapter@detail@23@@detail@json_abi_v3_11_3@nlohmann@@AEAA?AW4token_type@?$lexer_base@V?$basic_json@Vmap@std@@Vvector@2@V?$basic_string@DU?$char_traits@D@std@@V?$allocator@D@2@@2@_N_J_KNVallocator@2@Uadl_serializer@json_abi_v3_11_3@nlohmann@@V?$vector@EV?$allocator@E@std@@@2@X@json_abi_v3_11_3@nlohmann@@@234@PEBD_KW456234@@Z 00000001800708c0 f i KenshiMP.Common:config.obj
 0001:0006f9c0       ?scan_number@?$lexer@V?$basic_json@Vmap@std@@Vvector@2@V?$basic_string@DU?$char_traits@D@std@@V?$allocator@D@2@@2@_N_J_KNVallocator@2@Uadl_serializer@json_abi_v3_11_3@nlohmann@@V?$vector@EV?$allocator@E@std@@@2@X@json_abi_v3_11_3@nlohmann@@Vinput_stream_adapter@detail@23@@detail@json_abi_v3_11_3@nlohmann@@AEAA?AW4token_type@?$lexer_base@V?$basic_json@Vmap@std@@Vvector@2@V?$basic_string@DU?$char_traits@D@std@@V?$allocator@D@2@@2@_N_J_KNVallocator@2@Uadl_serializer@json_abi_v3_11_3@nlohmann@@V?$vector@EV?$allocator@E@std@@@2@X@json_abi_v3_11_3@nlohmann@@@234@XZ 00000001800709c0 f i KenshiMP.Common:config.obj
 0001:00070050       ?scan_string@?$lexer@V?$basic_json@Vmap@std@@Vvector@2@V?$basic_string@DU?$char_traits@D@std@@V?$allocator@D@2@@2@_N_J_KNVallocator@2@Uadl_serializer@json_abi_v3_11_3@nlohmann@@V?$vector@EV?$allocator@E@std@@@2@X@json_abi_v3_11_3@nlohmann@@Vinput_stream_adapter@detail@23@@detail@json_abi_v3_11_3@nlohmann@@AEAA?AW4token_type@?$lexer_base@V?$basic_json@Vmap@std@@Vvector@2@V?$basic_string@DU?$char_traits@D@std@@V?$allocator@D@2@@2@_N_J_KNVallocator@2@Uadl_serializer@json_abi_v3_11_3@nlohmann@@V?$vector@EV?$allocator@E@std@@@2@X@json_abi_v3_11_3@nlohmann@@@234@XZ 0000000180071050 f i KenshiMP.Common:config.obj
 0001:00070990       ?seekoff@?$basic_filebuf@DU?$char_traits@D@std@@@std@@MEAA?AV?$fpos@U_Mbstatet@@@2@_JHH@Z 0000000180071990 f i KenshiMP.Common:config.obj
 0001:00070a70       ?seekpos@?$basic_filebuf@DU?$char_traits@D@std@@@std@@MEAA?AV?$fpos@U_Mbstatet@@@2@V32@H@Z 0000000180071a70 f i KenshiMP.Common:config.obj
 0001:00070b20       ?setbuf@?$basic_filebuf@DU?$char_traits@D@std@@@std@@MEAAPEAV?$basic_streambuf@DU?$char_traits@D@std@@@2@PEAD_J@Z 0000000180071b20 f i KenshiMP.Common:config.obj
 0001:00070c00       ?size@?$basic_json@Vmap@std@@Vvector@2@V?$basic_string@DU?$char_traits@D@std@@V?$allocator@D@2@@2@_N_J_KNVallocator@2@Uadl_serializer@json_abi_v3_11_3@nlohmann@@V?$vector@EV?$allocator@E@std@@@2@X@json_abi_v3_11_3@nlohmann@@QEBA_KXZ 0000000180071c00 f i KenshiMP.Common:config.obj
 0001:00070c70       ?skip_whitespace@?$lexer@V?$basic_json@Vmap@std@@Vvector@2@V?$basic_string@DU?$char_traits@D@std@@V?$allocator@D@2@@2@_N_J_KNVallocator@2@Uadl_serializer@json_abi_v3_11_3@nlohmann@@V?$vector@EV?$allocator@E@std@@@2@X@json_abi_v3_11_3@nlohmann@@Vinput_stream_adapter@detail@23@@detail@json_abi_v3_11_3@nlohmann@@QEAAXXZ 0000000180071c70 f i KenshiMP.Common:config.obj
 0001:00070d40       ?start_array@?$json_sax_dom_callback_parser@V?$basic_json@Vmap@std@@Vvector@2@V?$basic_string@DU?$char_traits@D@std@@V?$allocator@D@2@@2@_N_J_KNVallocator@2@Uadl_serializer@json_abi_v3_11_3@nlohmann@@V?$vector@EV?$allocator@E@std@@@2@X@json_abi_v3_11_3@nlohmann@@@detail@json_abi_v3_11_3@nlohmann@@QEAA_N_K@Z 0000000180071d40 f i KenshiMP.Common:config.obj
 0001:00070e90       ?start_array@?$json_sax_dom_parser@V?$basic_json@Vmap@std@@Vvector@2@V?$basic_string@DU?$char_traits@D@std@@V?$allocator@D@2@@2@_N_J_KNVallocator@2@Uadl_serializer@json_abi_v3_11_3@nlohmann@@V?$vector@EV?$allocator@E@std@@@2@X@json_abi_v3_11_3@nlohmann@@@detail@json_abi_v3_11_3@nlohmann@@QEAA_N_K@Z 0000000180071e90 f i KenshiMP.Common:config.obj
 0001:00070f80       ?start_object@?$json_sax_dom_callback_parser@V?$basic_json@Vmap@std@@Vvector@2@V?$basic_string@DU?$char_traits@D@std@@V?$allocator@D@2@@2@_N_J_KNVallocator@2@Uadl_serializer@json_abi_v3_11_3@nlohmann@@V?$vector@EV?$allocator@E@std@@@2@X@json_abi_v3_11_3@nlohmann@@@detail@json_abi_v3_11_3@nlohmann@@QEAA_N_K@Z 0000000180071f80 f i KenshiMP.Common:config.obj
 0001:000710d0       ?start_object@?$json_sax_dom_parser@V?$basic_json@Vmap@std@@Vvector@2@V?$basic_string@DU?$char_traits@D@std@@V?$allocator@D@2@@2@_N_J_KNVallocator@2@Uadl_serializer@json_abi_v3_11_3@nlohmann@@V?$vector@EV?$allocator@E@std@@@2@X@json_abi_v3_11_3@nlohmann@@@detail@json_abi_v3_11_3@nlohmann@@QEAA_N_K@Z 00000001800720d0 f i KenshiMP.Common:config.obj
 0001:000711c0       ?sync@?$basic_filebuf@DU?$char_traits@D@std@@@std@@MEAAHXZ 00000001800721c0 f i KenshiMP.Common:config.obj
 0001:00071210       ?token_type_name@?$lexer_base@V?$basic_json@Vmap@std@@Vvector@2@V?$basic_string@DU?$char_traits@D@std@@V?$allocator@D@2@@2@_N_J_KNVallocator@2@Uadl_serializer@json_abi_v3_11_3@nlohmann@@V?$vector@EV?$allocator@E@std@@@2@X@json_abi_v3_11_3@nlohmann@@@detail@json_abi_v3_11_3@nlohmann@@SAPEBDW4token_type@1234@@Z 0000000180072210 f i KenshiMP.Common:config.obj
 0001:00071300       ?type_name@?$basic_json@Vmap@std@@Vvector@2@V?$basic_string@DU?$char_traits@D@std@@V?$allocator@D@2@@2@_N_J_KNVallocator@2@Uadl_serializer@json_abi_v3_11_3@nlohmann@@V?$vector@EV?$allocator@E@std@@@2@X@json_abi_v3_11_3@nlohmann@@QEBAPEBDXZ 0000000180072300 f i KenshiMP.Common:config.obj
 0001:00071390       ?uflow@?$basic_filebuf@DU?$char_traits@D@std@@@std@@MEAAHXZ 0000000180072390 f i KenshiMP.Common:config.obj
 0001:00071740       ?underflow@?$basic_filebuf@DU?$char_traits@D@std@@@std@@MEAAHXZ 0000000180072740 f i KenshiMP.Common:config.obj
 0001:000717c0       ?what@exception@detail@json_abi_v3_11_3@nlohmann@@UEBAPEBDXZ 00000001800727c0 f i KenshiMP.Common:config.obj
 0001:000717e0       ?write_character@?$output_string_adapter@DV?$basic_string@DU?$char_traits@D@std@@V?$allocator@D@2@@std@@@detail@json_abi_v3_11_3@nlohmann@@UEAAXD@Z 00000001800727e0 f i KenshiMP.Common:config.obj
 0001:000717f0       ?write_characters@?$output_string_adapter@DV?$basic_string@DU?$char_traits@D@std@@V?$allocator@D@2@@std@@@detail@json_abi_v3_11_3@nlohmann@@UEAAXPEBD_K@Z 00000001800727f0 f i KenshiMP.Common:config.obj
 0001:00071800       ?xsgetn@?$basic_filebuf@DU?$char_traits@D@std@@@std@@MEAA_JPEAD_J@Z 0000000180072800 f i KenshiMP.Common:config.obj
 0001:00071930       ?xsputn@?$basic_filebuf@DU?$char_traits@D@std@@@std@@MEAA_JPEBD_J@Z 0000000180072930 f i KenshiMP.Common:config.obj
 0001:000719f0       ??$log_@PEBDAEA_KAEA_KAEA_KAEA_K@logger@spdlog@@IEAAXUsource_loc@1@W4level_enum@level@1@V?$basic_string_view@D@v11@fmt@@$$QEAPEBDAEA_K444@Z 00000001800729f0 f i KenshiMP.Scanner:scanner.obj
 0001:00071c50       ??1?$optional@UParsedPattern@PatternScanner@kmp@@@std@@QEAA@XZ 0000000180072c50 f i KenshiMP.Scanner:scanner.obj
 0001:00071c80       ??1ParsedPattern@PatternScanner@kmp@@QEAA@XZ 0000000180072c80 f i KenshiMP.Scanner:scanner.obj
 0001:00071ca0       ?Find@PatternScanner@kmp@@QEBA?AUPatternResult@2@PEBD@Z 0000000180072ca0 f   KenshiMP.Scanner:scanner.obj
 0001:00071cc0       ?Find@PatternScanner@kmp@@QEBA?AUPatternResult@2@PEBDH@Z 0000000180072cc0 f   KenshiMP.Scanner:scanner.obj
 0001:00071ee0       ?Init@PatternScanner@kmp@@QEAA_NPEBD@Z 0000000180072ee0 f   KenshiMP.Scanner:scanner.obj
 0001:000722b0       ?Parse@PatternScanner@kmp@@CA?AV?$optional@UParsedPattern@PatternScanner@kmp@@@std@@PEBD@Z 00000001800732b0 f   KenshiMP.Scanner:scanner.obj
 0001:00072af0       ?ScanRegion@PatternScanner@kmp@@AEBA_K_K0AEBUParsedPattern@12@@Z 0000000180073af0 f   KenshiMP.Scanner:scanner.obj
 0001:00072bb0       ??$log_@AEAPEBDV?$basic_string@DU?$char_traits@D@std@@V?$allocator@D@2@@std@@@logger@spdlog@@IEAAXUsource_loc@1@W4level_enum@level@1@V?$basic_string_view@D@v11@fmt@@AEAPEBD$$QEAV?$basic_string@DU?$char_traits@D@std@@V?$allocator@D@2@@std@@@Z 0000000180073bb0 f i KenshiMP.Scanner:patterns.obj
 0001:00072dc0       ??$log_@AEA_KAEAPEBDAEAH@logger@spdlog@@IEAAXUsource_loc@1@W4level_enum@level@1@V?$basic_string_view@D@v11@fmt@@AEA_KAEAPEBDAEAH@Z 0000000180073dc0 f i KenshiMP.Scanner:patterns.obj
 0001:00072fd0       ??$log_@AEA_KAEAPEBDAEAHAEA_K@logger@spdlog@@IEAAXUsource_loc@1@W4level_enum@level@1@V?$basic_string_view@D@v11@fmt@@AEA_KAEAPEBDAEAH3@Z 0000000180073fd0 f i KenshiMP.Scanner:patterns.obj
 0001:00073210       ??$warn@AEA_KAEAPEBDAEAH@spdlog@@YAXU?$fstring@AEA_KAEAPEBDAEAH@v11@fmt@@AEA_KAEAPEBDAEAH@Z 0000000180074210 f i KenshiMP.Scanner:patterns.obj
 0001:000732d0       ??0RuntimeStringScanner@kmp@@QEAA@_K0@Z 00000001800742d0 f i KenshiMP.Scanner:patterns.obj
 0001:000735b0       ?FindFunctionStart@RuntimeStringScanner@kmp@@AEBA_K_K@Z 00000001800745b0 f i KenshiMP.Scanner:patterns.obj
 0001:00073650       ?FindStringInMemoryImpl@RuntimeStringScanner@kmp@@AEBA_KPEBDH@Z 0000000180074650 f i KenshiMP.Scanner:patterns.obj
 0001:00073720       ?FindStringXrefImpl@RuntimeStringScanner@kmp@@AEBA_K_K@Z 0000000180074720 f i KenshiMP.Scanner:patterns.obj
 0001:000737a0       ?IsPrologue@RuntimeStringScanner@kmp@@AEBA_N_K@Z 00000001800747a0 f i KenshiMP.Scanner:patterns.obj
 0001:00073900       ?ResolveGameFunctions@kmp@@YA_NAEBVPatternScanner@1@AEAUGameFunctions@1@@Z 0000000180074900 f   KenshiMP.Scanner:patterns.obj
 0001:00075670       ?RetryGlobalDiscovery@kmp@@YA_NAEBVPatternScanner@1@AEAUGameFunctions@1@@Z 0000000180076670 f   KenshiMP.Scanner:patterns.obj
 0001:00075db0       ?ScanForGlobalLoad@RuntimeStringScanner@kmp@@AEBA_K_K0H@Z 0000000180076db0 f i KenshiMP.Scanner:patterns.obj
 0001:00075ec0       ??$_Emplace_one_at_back@UHookDiag@kmp@@@?$vector@UHookDiag@kmp@@V?$allocator@UHookDiag@kmp@@@std@@@std@@AEAAAEAUHookDiag@kmp@@$$QEAU23@@Z 0000000180076ec0 f i KenshiMP.Scanner:hook_manager.obj
 0001:000760c0       ??$_Try_emplace@AEBV?$basic_string@DU?$char_traits@D@std@@V?$allocator@D@2@@std@@$$V@?$_Hash@V?$_Umap_traits@V?$basic_string@DU?$char_traits@D@std@@V?$allocator@D@2@@std@@UHookEntry@HookManager@kmp@@V?$_Uhash_compare@V?$basic_string@DU?$char_traits@D@std@@V?$allocator@D@2@@std@@U?$hash@V?$basic_string@DU?$char_traits@D@std@@V?$allocator@D@2@@std@@@2@U?$equal_to@V?$basic_string@DU?$char_traits@D@std@@V?$allocator@D@2@@std@@@2@@2@V?$allocator@U?$pair@$$CBV?$basic_string@DU?$char_traits@D@std@@V?$allocator@D@2@@std@@UHookEntry@HookManager@kmp@@@std@@@2@$0A@@std@@@std@@IEAA?AU?$pair@PEAU?$_List_node@U?$pair@$$CBV?$basic_string@DU?$char_traits@D@std@@V?$allocator@D@2@@std@@UHookEntry@HookManager@kmp@@@std@@PEAX@std@@_N@1@AEBV?$basic_string@DU?$char_traits@D@std@@V?$allocator@D@2@@1@@Z 00000001800770c0 f i KenshiMP.Scanner:hook_manager.obj
 0001:000763f0       ??$_Uninitialized_move@PEAUHookDiag@kmp@@V?$allocator@UHookDiag@kmp@@@std@@@std@@YAPEAUHookDiag@kmp@@QEAU12@0PEAU12@AEAV?$allocator@UHookDiag@kmp@@@0@@Z 00000001800773f0 f i KenshiMP.Scanner:hook_manager.obj
 0001:000764b0       ??$log_@AEBV?$basic_string@DU?$char_traits@D@std@@V?$allocator@D@2@@std@@_KAEBEAEBEAEBEAEBEAEBEAEBEAEBEAEBEPEBD@logger@spdlog@@IEAAXUsource_loc@1@W4level_enum@level@1@V?$basic_string_view@D@v11@fmt@@AEBV?$basic_string@DU?$char_traits@D@std@@V?$allocator@D@2@@std@@$$QEA_KAEBE5555555$$QEAPEBD@Z 00000001800774b0 f i KenshiMP.Scanner:hook_manager.obj
 0001:000767c0       ??$log_@AEBV?$basic_string@DU?$char_traits@D@std@@V?$allocator@D@2@@std@@_KPEBD@logger@spdlog@@IEAAXUsource_loc@1@W4level_enum@level@1@V?$basic_string_view@D@v11@fmt@@AEBV?$basic_string@DU?$char_traits@D@std@@V?$allocator@D@2@@std@@$$QEA_K$$QEAPEBD@Z 00000001800777c0 f i KenshiMP.Scanner:hook_manager.obj
 0001:000769f0       ??$warn@AEBV?$basic_string@DU?$char_traits@D@std@@V?$allocator@D@2@@std@@@spdlog@@YAXU?$fstring@AEBV?$basic_string@DU?$char_traits@D@std@@V?$allocator@D@2@@std@@@v11@fmt@@AEBV?$basic_string@DU?$char_traits@D@std@@V?$allocator@D@2@@std@@@Z 00000001800779f0 f i KenshiMP.Scanner:hook_manager.obj
 0001:00076a90       ??1?$_Alloc_construct_ptr@V?$allocator@U?$_List_node@U?$pair@$$CBV?$basic_string@DU?$char_traits@D@std@@V?$allocator@D@2@@std@@UHookEntry@HookManager@kmp@@@std@@PEAX@std@@@std@@@std@@QEAA@XZ 0000000180077a90 f i KenshiMP.Scanner:hook_manager.obj
 0001:00076ab0       ??1?$_List_node_emplace_op2@V?$allocator@U?$_List_node@U?$pair@$$CBV?$basic_string@DU?$char_traits@D@std@@V?$allocator@D@2@@std@@UHookEntry@HookManager@kmp@@@std@@PEAX@std@@@std@@@std@@QEAA@XZ 0000000180077ab0 f i KenshiMP.Scanner:hook_manager.obj
 0001:00076b00       ??1?$list@U?$pair@$$CBV?$basic_string@DU?$char_traits@D@std@@V?$allocator@D@2@@std@@UHookEntry@HookManager@kmp@@@std@@V?$allocator@U?$pair@$$CBV?$basic_string@DU?$char_traits@D@std@@V?$allocator@D@2@@std@@UHookEntry@HookManager@kmp@@@std@@@2@@std@@QEAA@XZ 0000000180077b00 f i KenshiMP.Scanner:hook_manager.obj
 0001:00076b80       ??4HookEntry@HookManager@kmp@@QEAAAEAU012@$$QEAU012@@Z 0000000180077b80 f i KenshiMP.Scanner:hook_manager.obj
 0001:00076cb0       ?Disable@HookManager@kmp@@QEAA_NAEBV?$basic_string@DU?$char_traits@D@std@@V?$allocator@D@2@@std@@@Z 0000000180077cb0 f   KenshiMP.Scanner:hook_manager.obj
 0001:00076e70       ?Enable@HookManager@kmp@@QEAA_NAEBV?$basic_string@DU?$char_traits@D@std@@V?$allocator@D@2@@std@@@Z 0000000180077e70 f   KenshiMP.Scanner:hook_manager.obj
 0001:00077030       ?Get@HookManager@kmp@@SAAEAV12@XZ 0000000180078030 f   KenshiMP.Scanner:hook_manager.obj
 0001:000771e0       ?GetDiagnostics@HookManager@kmp@@QEBA?AV?$vector@UHookDiag@kmp@@V?$allocator@UHookDiag@kmp@@@std@@@std@@XZ 00000001800781e0 f   KenshiMP.Scanner:hook_manager.obj
 0001:00077600       ?Initialize@HookManager@kmp@@QEAA_NXZ 0000000180078600 f   KenshiMP.Scanner:hook_manager.obj
 0001:00077850       ?InstallRaw@HookManager@kmp@@AEAA_NAEBV?$basic_string@DU?$char_traits@D@std@@V?$allocator@D@2@@std@@PEAX1PEAPEAX@Z 0000000180078850 f   KenshiMP.Scanner:hook_manager.obj
 0001:00077da0       ?Shutdown@HookManager@kmp@@QEAAXXZ 0000000180078da0 f   KenshiMP.Scanner:hook_manager.obj
 0001:00078060       ?_Change_array@?$vector@UHookDiag@kmp@@V?$allocator@UHookDiag@kmp@@@std@@@std@@AEAAXQEAUHookDiag@kmp@@_K1@Z 0000000180079060 f i KenshiMP.Scanner:hook_manager.obj
 0001:00078130       ?_Unchecked_erase@?$_Hash@V?$_Umap_traits@V?$basic_string@DU?$char_traits@D@std@@V?$allocator@D@2@@std@@UHookEntry@HookManager@kmp@@V?$_Uhash_compare@V?$basic_string@DU?$char_traits@D@std@@V?$allocator@D@2@@std@@U?$hash@V?$basic_string@DU?$char_traits@D@std@@V?$allocator@D@2@@std@@@2@U?$equal_to@V?$basic_string@DU?$char_traits@D@std@@V?$allocator@D@2@@std@@@2@@2@V?$allocator@U?$pair@$$CBV?$basic_string@DU?$char_traits@D@std@@V?$allocator@D@2@@std@@UHookEntry@HookManager@kmp@@@std@@@2@$0A@@std@@@std@@AEAAPEAU?$_List_node@U?$pair@$$CBV?$basic_string@DU?$char_traits@D@std@@V?$allocator@D@2@@std@@UHookEntry@HookManager@kmp@@@std@@PEAX@2@PEAU32@QEAU32@@Z 0000000180079130 f i KenshiMP.Scanner:hook_manager.obj
 0001:00078370       ?clear@?$_Hash@V?$_Umap_traits@V?$basic_string@DU?$char_traits@D@std@@V?$allocator@D@2@@std@@UHookEntry@HookManager@kmp@@V?$_Uhash_compare@V?$basic_string@DU?$char_traits@D@std@@V?$allocator@D@2@@std@@U?$hash@V?$basic_string@DU?$char_traits@D@std@@V?$allocator@D@2@@std@@@2@U?$equal_to@V?$basic_string@DU?$char_traits@D@std@@V?$allocator@D@2@@std@@@2@@2@V?$allocator@U?$pair@$$CBV?$basic_string@DU?$char_traits@D@std@@V?$allocator@D@2@@std@@UHookEntry@HookManager@kmp@@@std@@@2@$0A@@std@@@std@@QEAAXXZ 0000000180079370 f i KenshiMP.Scanner:hook_manager.obj
 0001:00078450       ?count@?$_Hash@V?$_Umap_traits@V?$basic_string@DU?$char_traits@D@std@@V?$allocator@D@2@@std@@UHookEntry@HookManager@kmp@@V?$_Uhash_compare@V?$basic_string@DU?$char_traits@D@std@@V?$allocator@D@2@@std@@U?$hash@V?$basic_string@DU?$char_traits@D@std@@V?$allocator@D@2@@std@@@2@U?$equal_to@V?$basic_string@DU?$char_traits@D@std@@V?$allocator@D@2@@std@@@2@@2@V?$allocator@U?$pair@$$CBV?$basic_string@DU?$char_traits@D@std@@V?$allocator@D@2@@std@@UHookEntry@HookManager@kmp@@@std@@@2@$0A@@std@@@std@@QEBA_KAEBV?$basic_string@DU?$char_traits@D@std@@V?$allocator@D@2@@2@@Z 0000000180079450 f i KenshiMP.Scanner:hook_manager.obj
 0001:000784d0       ??$_Emplace_reallocate@UBatchEntry@kmp@@@?$vector@UBatchEntry@kmp@@V?$allocator@UBatchEntry@kmp@@@std@@@std@@AEAAPEAUBatchEntry@kmp@@QEAU23@$$QEAU23@@Z 00000001800794d0 f i KenshiMP.Scanner:orchestrator.obj
 0001:00078770       ??$_Emplace_reallocate@UPatternEntry@kmp@@@?$vector@UPatternEntry@kmp@@V?$allocator@UPatternEntry@kmp@@@std@@@std@@AEAAPEAUPatternEntry@kmp@@QEAU23@$$QEAU23@@Z 0000000180079770 f i KenshiMP.Scanner:orchestrator.obj
 0001:00078970       ??$_Try_emplace@AEB_K$$V@?$_Hash@V?$_Umap_traits@_KV?$basic_string@DU?$char_traits@D@std@@V?$allocator@D@2@@std@@V?$_Uhash_compare@_KU?$hash@_K@std@@U?$equal_to@_K@2@@2@V?$allocator@U?$pair@$$CB_KV?$basic_string@DU?$char_traits@D@std@@V?$allocator@D@2@@std@@@std@@@2@$0A@@std@@@std@@IEAA?AU?$pair@PEAU?$_List_node@U?$pair@$$CB_KV?$basic_string@DU?$char_traits@D@std@@V?$allocator@D@2@@std@@@std@@PEAX@std@@_N@1@AEB_K@Z 0000000180079970 f i KenshiMP.Scanner:orchestrator.obj
 0001:00078c50       ??$_Uninitialized_move@PEAUPatternEntry@kmp@@V?$allocator@UPatternEntry@kmp@@@std@@@std@@YAPEAUPatternEntry@kmp@@QEAU12@0PEAU12@AEAV?$allocator@UPatternEntry@kmp@@@0@@Z 0000000180079c50 f i KenshiMP.Scanner:orchestrator.obj
 0001:00078cc0       ??$info@AEA_KAEAN@spdlog@@YAXU?$fstring@AEA_KAEAN@v11@fmt@@AEA_KAEAN@Z 0000000180079cc0 f i KenshiMP.Scanner:orchestrator.obj
 0001:00078d70       ??$log_@AEAHAEAHAEAHAEAHAEAN@logger@spdlog@@IEAAXUsource_loc@1@W4level_enum@level@1@V?$basic_string_view@D@v11@fmt@@AEAH333AEAN@Z 0000000180079d70 f i KenshiMP.Scanner:orchestrator.obj
 0001:00078fd0       ??$log_@AEAHAEAN@logger@spdlog@@IEAAXUsource_loc@1@W4level_enum@level@1@V?$basic_string_view@D@v11@fmt@@AEAHAEAN@Z 0000000180079fd0 f i KenshiMP.Scanner:orchestrator.obj
 0001:000791c0       ??$log_@AEAV?$basic_string@DU?$char_traits@D@std@@V?$allocator@D@2@@std@@AEA_KPEBDM@logger@spdlog@@IEAAXUsource_loc@1@W4level_enum@level@1@V?$basic_string_view@D@v11@fmt@@AEAV?$basic_string@DU?$char_traits@D@std@@V?$allocator@D@2@@std@@AEA_K$$QEAPEBD$$QEAM@Z 000000018007a1c0 f i KenshiMP.Scanner:orchestrator.obj
 0001:00079410       ??$log_@AEA_KAEAN@logger@spdlog@@IEAAXUsource_loc@1@W4level_enum@level@1@V?$basic_string_view@D@v11@fmt@@AEA_KAEAN@Z 000000018007a410 f i KenshiMP.Scanner:orchestrator.obj
 0001:00079610       ??$log_@AEA_KAEA_KAEAHAEAN@logger@spdlog@@IEAAXUsource_loc@1@W4level_enum@level@1@V?$basic_string_view@D@v11@fmt@@AEA_K3AEAHAEAN@Z 000000018007a610 f i KenshiMP.Scanner:orchestrator.obj
 0001:00079850       ??$log_@AEA_KAEA_KAEA_KAEAN@logger@spdlog@@IEAAXUsource_loc@1@W4level_enum@level@1@V?$basic_string_view@D@v11@fmt@@AEA_K33AEAN@Z 000000018007a850 f i KenshiMP.Scanner:orchestrator.obj
 0001:00079a90       ??$log_@AEBHAEBHM@logger@spdlog@@IEAAXUsource_loc@1@W4level_enum@level@1@V?$basic_string_view@D@v11@fmt@@AEBH3$$QEAM@Z 000000018007aa90 f i KenshiMP.Scanner:orchestrator.obj
 0001:00079cb0       ??$log_@AEBN@logger@spdlog@@IEAAXUsource_loc@1@W4level_enum@level@1@V?$basic_string_view@D@v11@fmt@@AEBN@Z 000000018007acb0 f i KenshiMP.Scanner:orchestrator.obj
 0001:00079e90       ??0BatchEntry@kmp@@QEAA@$$QEAU01@@Z 000000018007ae90 f i KenshiMP.Scanner:orchestrator.obj
 0001:00079f80       ??0OrchestratorReport@kmp@@QEAA@AEBU01@@Z 000000018007af80 f i KenshiMP.Scanner:orchestrator.obj
 0001:0007a120       ??0PatternEntry@kmp@@QEAA@$$QEAU01@@Z 000000018007b120 f i KenshiMP.Scanner:orchestrator.obj
 0001:0007a360       ??1?$_List_node_emplace_op2@V?$allocator@U?$_List_node@U?$pair@$$CB_KV?$basic_string@DU?$char_traits@D@std@@V?$allocator@D@2@@std@@@std@@PEAX@std@@@std@@@std@@QEAA@XZ 000000018007b360 f i KenshiMP.Scanner:orchestrator.obj
 0001:0007a3a0       ??1?$list@U?$pair@$$CB_KV?$basic_string@DU?$char_traits@D@std@@V?$allocator@D@2@@std@@@std@@V?$allocator@U?$pair@$$CB_KV?$basic_string@DU?$char_traits@D@std@@V?$allocator@D@2@@std@@@std@@@2@@std@@QEAA@XZ 000000018007b3a0 f i KenshiMP.Scanner:orchestrator.obj
 0001:0007a410       ??1?$optional@UParsedPattern@kmp@@@std@@QEAA@XZ 000000018007b410 f i KenshiMP.Scanner:orchestrator.obj
 0001:0007a450       ??1?$unordered_map@_KV?$basic_string@DU?$char_traits@D@std@@V?$allocator@D@2@@std@@U?$hash@_K@2@U?$equal_to@_K@2@V?$allocator@U?$pair@$$CB_KV?$basic_string@DU?$char_traits@D@std@@V?$allocator@D@2@@std@@@std@@@2@@std@@QEAA@XZ 000000018007b450 f i KenshiMP.Scanner:orchestrator.obj
 0001:0007a470       ??1?$vector@UBatchEntry@kmp@@V?$allocator@UBatchEntry@kmp@@@std@@@std@@QEAA@XZ 000000018007b470 f i KenshiMP.Scanner:orchestrator.obj
 0001:0007a570       ??1BatchEntry@kmp@@QEAA@XZ 000000018007b570 f i KenshiMP.Scanner:orchestrator.obj
 0001:0007a5b0       ??4?$vector@IV?$allocator@I@std@@@std@@QEAAAEAV01@AEBV01@@Z 000000018007b5b0 f i KenshiMP.Scanner:orchestrator.obj
 0001:0007a700       ??4PatternEntry@kmp@@QEAAAEAU01@$$QEAU01@@Z 000000018007b700 f i KenshiMP.Scanner:orchestrator.obj
 0001:0007b0a0       ?Init@PatternOrchestrator@kmp@@QEAA_NPEBDAEBUOrchestratorConfig@2@@Z 000000018007c0a0 f   KenshiMP.Scanner:orchestrator.obj
 0001:0007b320       ?LogReport@PatternOrchestrator@kmp@@QEBAXAEBUOrchestratorReport@2@@Z 000000018007c320 f   KenshiMP.Scanner:orchestrator.obj
 0001:0007c290       ?Register@PatternOrchestrator@kmp@@QEAAXUPatternEntry@2@@Z 000000018007d290 f   KenshiMP.Scanner:orchestrator.obj
 0001:0007c410       ?RegisterBuiltinPatterns@PatternOrchestrator@kmp@@QEAAXAEAUGameFunctions@2@@Z 000000018007d410 f   KenshiMP.Scanner:orchestrator.obj
 0001:0007df80       ?ResolveEntry@PatternOrchestrator@kmp@@AEAAXAEAUPatternEntry@2@_KW4ResolutionMethod@2@M@Z 000000018007ef80 f   KenshiMP.Scanner:orchestrator.obj
 0001:0007e140       ?Run@PatternOrchestrator@kmp@@QEAA?AUOrchestratorReport@2@XZ 000000018007f140 f   KenshiMP.Scanner:orchestrator.obj
 0001:0007e900       ?RunPhase2_Strings@PatternOrchestrator@kmp@@QEAAXXZ 000000018007f900 f   KenshiMP.Scanner:orchestrator.obj
 0001:0007ec10       ?RunPhase4_PatternScan@PatternOrchestrator@kmp@@QEAAXXZ 000000018007fc10 f   KenshiMP.Scanner:orchestrator.obj
 0001:0007f4c0       ?RunPhase5_StringFallback@PatternOrchestrator@kmp@@QEAAXXZ 00000001800804c0 f   KenshiMP.Scanner:orchestrator.obj
 0001:0007f780       ?RunPhase6_CallGraph@PatternOrchestrator@kmp@@QEAAXXZ 0000000180080780 f   KenshiMP.Scanner:orchestrator.obj
 0001:0007fd80       ?RunPhase7_GlobalPointers@PatternOrchestrator@kmp@@QEAAXXZ 0000000180080d80 f   KenshiMP.Scanner:orchestrator.obj
 0001:000800c0       ?TryCallGraphTrace@PatternOrchestrator@kmp@@AEAA_NAEAUPatternEntry@2@@Z 00000001800810c0 f   KenshiMP.Scanner:orchestrator.obj
 0001:00080220       ?TryComplexPattern@PatternOrchestrator@kmp@@AEAA_NAEAUPatternEntry@2@@Z 0000000180081220 f   KenshiMP.Scanner:orchestrator.obj
 0001:00080380       ?TryHardcodedOffset@PatternOrchestrator@kmp@@AEAA_NAEAUPatternEntry@2@@Z 0000000180081380 f   KenshiMP.Scanner:orchestrator.obj
 0001:00080710       ?TryStringXref@PatternOrchestrator@kmp@@AEAA_NAEAUPatternEntry@2@@Z 0000000180081710 f   KenshiMP.Scanner:orchestrator.obj
 0001:00080c40       ?TryVTableSlot@PatternOrchestrator@kmp@@AEAA_NAEAUPatternEntry@2@@Z 0000000180081c40 f   KenshiMP.Scanner:orchestrator.obj
 0001:00080cc0       ?_Forced_rehash@?$_Hash@V?$_Umap_traits@_KV?$basic_string@DU?$char_traits@D@std@@V?$allocator@D@2@@std@@V?$_Uhash_compare@_KU?$hash@_K@std@@U?$equal_to@_K@2@@2@V?$allocator@U?$pair@$$CB_KV?$basic_string@DU?$char_traits@D@std@@V?$allocator@D@2@@std@@@std@@@2@$0A@@std@@@std@@IEAAX_K@Z 0000000180081cc0 f i KenshiMP.Scanner:orchestrator.obj
 0001:00080cc0       ?_Forced_rehash@?$_Hash@V?$_Umap_traits@_K_KV?$_Uhash_compare@_KU?$hash@_K@std@@U?$equal_to@_K@2@@std@@V?$allocator@U?$pair@$$CB_K_K@std@@@2@$0A@@std@@@std@@IEAAX_K@Z 0000000180081cc0 f i KenshiMP.Scanner:string_analyzer.obj
 0001:00080eb0       ?_Unchecked_erase@?$_Hash@V?$_Umap_traits@V?$basic_string@DU?$char_traits@D@std@@V?$allocator@D@2@@std@@_KV?$_Uhash_compare@V?$basic_string@DU?$char_traits@D@std@@V?$allocator@D@2@@std@@U?$hash@V?$basic_string@DU?$char_traits@D@std@@V?$allocator@D@2@@std@@@2@U?$equal_to@V?$basic_string@DU?$char_traits@D@std@@V?$allocator@D@2@@std@@@2@@2@V?$allocator@U?$pair@$$CBV?$basic_string@DU?$char_traits@D@std@@V?$allocator@D@2@@std@@_K@std@@@2@$0A@@std@@@std@@AEAAPEAU?$_List_node@U?$pair@$$CBV?$basic_string@DU?$char_traits@D@std@@V?$allocator@D@2@@std@@_K@std@@PEAX@2@PEAU32@QEAU32@@Z 0000000180081eb0 f i KenshiMP.Scanner:orchestrator.obj
 0001:000810c0       ?clear@?$_Hash@V?$_Umap_traits@V?$basic_string@DU?$char_traits@D@std@@V?$allocator@D@2@@std@@_KV?$_Uhash_compare@V?$basic_string@DU?$char_traits@D@std@@V?$allocator@D@2@@std@@U?$hash@V?$basic_string@DU?$char_traits@D@std@@V?$allocator@D@2@@std@@@2@U?$equal_to@V?$basic_string@DU?$char_traits@D@std@@V?$allocator@D@2@@std@@@2@@2@V?$allocator@U?$pair@$$CBV?$basic_string@DU?$char_traits@D@std@@V?$allocator@D@2@@std@@_K@std@@@2@$0A@@std@@@std@@QEAAXXZ 00000001800820c0 f i KenshiMP.Scanner:orchestrator.obj
 0001:00081190       ??$log_@AEBV?$basic_string@DU?$char_traits@D@std@@V?$allocator@D@2@@std@@AEAHAEBH@logger@spdlog@@IEAAXUsource_loc@1@W4level_enum@level@1@V?$basic_string_view@D@v11@fmt@@AEBV?$basic_string@DU?$char_traits@D@std@@V?$allocator@D@2@@std@@AEAHAEBH@Z 0000000180082190 f i KenshiMP.Scanner:function_analyzer.obj
 0001:000813c0       ??$log_@AEBV?$basic_string@DU?$char_traits@D@std@@V?$allocator@D@2@@std@@AEB_KAEBHAEBHAEBHAEBHPEBDPEBDPEBDPEBDAEAY0IA@D@logger@spdlog@@IEAAXUsource_loc@1@W4level_enum@level@1@V?$basic_string_view@D@v11@fmt@@AEBV?$basic_string@DU?$char_traits@D@std@@V?$allocator@D@2@@std@@AEB_KAEBH555$$QEAPEBD666AEAY0IA@D@Z 00000001800823c0 f i KenshiMP.Scanner:function_analyzer.obj
 0001:000816d0       ?Analyze@FunctionAnalyzer@kmp@@SA?AUFunctionSignature@2@_KAEBV?$basic_string@DU?$char_traits@D@std@@V?$allocator@D@2@@std@@@Z 00000001800826d0 f   KenshiMP.Scanner:function_analyzer.obj
 0001:00081c20       ?DetectRegisterUsage@FunctionAnalyzer@kmp@@CAXPEBEHAEAUFunctionSignature@2@@Z 0000000180082c20 f   KenshiMP.Scanner:function_analyzer.obj
 0001:00081d70       ?LogAnalysis@FunctionAnalyzer@kmp@@SAXAEBV?$vector@UFunctionSignature@kmp@@V?$allocator@UFunctionSignature@kmp@@@std@@@std@@@Z 0000000180082d70 f   KenshiMP.Scanner:function_analyzer.obj
 0001:00082190       ?ValidateSignature@FunctionAnalyzer@kmp@@SA_NAEBUFunctionSignature@2@H@Z 0000000180083190 f   KenshiMP.Scanner:function_analyzer.obj
 0001:000822a0       ??$_Assign_counted_range@PEAV?$basic_string@DU?$char_traits@D@std@@V?$allocator@D@2@@std@@@?$vector@V?$basic_string@DU?$char_traits@D@std@@V?$allocator@D@2@@std@@V?$allocator@V?$basic_string@DU?$char_traits@D@std@@V?$allocator@D@2@@std@@@2@@std@@AEAAXPEAV?$basic_string@DU?$char_traits@D@std@@V?$allocator@D@2@@1@_K@Z 00000001800832a0 f i KenshiMP.Scanner:scanner_engine.obj
 0001:00082500       ??$_Emplace_reallocate@AEBUPESection@kmp@@@?$vector@UPESection@kmp@@V?$allocator@UPESection@kmp@@@std@@@std@@AEAAPEAUPESection@kmp@@QEAU23@AEBU23@@Z 0000000180083500 f i KenshiMP.Scanner:scanner_engine.obj
 0001:000827e0       ??$_Emplace_reallocate@UScanRegion@ScannerEngine@kmp@@@?$vector@UScanRegion@ScannerEngine@kmp@@V?$allocator@UScanRegion@ScannerEngine@kmp@@@std@@@std@@AEAAPEAUScanRegion@ScannerEngine@kmp@@QEAU234@$$QEAU234@@Z 00000001800837e0 f i KenshiMP.Scanner:scanner_engine.obj
 0001:00082cc0       ??$log_@AEAY08$$CBDAEB_KAEB_KPEBDPEBDPEBD@logger@spdlog@@IEAAXUsource_loc@1@W4level_enum@level@1@V?$basic_string_view@D@v11@fmt@@AEAY08$$CBDAEB_K4$$QEAPEBD55@Z 0000000180083cc0 f i KenshiMP.Scanner:scanner_engine.obj
 0001:00082f40       ??$log_@PEBDAEA_KAEA_K_K@logger@spdlog@@IEAAXUsource_loc@1@W4level_enum@level@1@V?$basic_string_view@D@v11@fmt@@$$QEAPEBDAEA_K4$$QEA_K@Z 0000000180083f40 f i KenshiMP.Scanner:scanner_engine.obj
 0001:00083180       ??1?$_Alloc_construct_ptr@V?$allocator@U?$_List_node@U?$pair@$$CB_KV?$vector@_KV?$allocator@_K@std@@@std@@@std@@PEAX@std@@@std@@@std@@QEAA@XZ 0000000180084180 f   KenshiMP.Scanner:string_analyzer.obj
 0001:00083350       ??1?$vector@UScanRegion@ScannerEngine@kmp@@V?$allocator@UScanRegion@ScannerEngine@kmp@@@std@@@std@@QEAA@XZ 0000000180084350 f i KenshiMP.Scanner:scanner_engine.obj
 0001:000833e0       ?BatchScan@ScannerEngine@kmp@@QEBAXAEAV?$vector@UBatchEntry@kmp@@V?$allocator@UBatchEntry@kmp@@@std@@@std@@@Z 00000001800843e0 f   KenshiMP.Scanner:scanner_engine.obj
 0001:00083a20       ?EnumerateSections@ScannerEngine@kmp@@AEAA_NXZ 0000000180084a20 f   KenshiMP.Scanner:scanner_engine.obj
 0001:00083bc0       ?Find@ScannerEngine@kmp@@QEBA?AUScanResult@2@AEBUParsedPattern@2@@Z 0000000180084bc0 f   KenshiMP.Scanner:scanner_engine.obj
 0001:00083d80       ?FindComplex@ScannerEngine@kmp@@QEBA?AUScanResult@2@AEBUComplexPattern@2@@Z 0000000180084d80 f   KenshiMP.Scanner:scanner_engine.obj
 0001:00084080       ?GetScanRegions@ScannerEngine@kmp@@AEBA?AV?$vector@UScanRegion@ScannerEngine@kmp@@V?$allocator@UScanRegion@ScannerEngine@kmp@@@std@@@std@@XZ 0000000180085080 f   KenshiMP.Scanner:scanner_engine.obj
 0001:00084200       ?Init@ScannerEngine@kmp@@QEAA_NPEBD@Z 0000000180085200 f   KenshiMP.Scanner:scanner_engine.obj
 0001:00084540       ?Parse@ScannerEngine@kmp@@SA?AV?$optional@UParsedPattern@kmp@@@std@@PEBD@Z 0000000180085540 f   KenshiMP.Scanner:scanner_engine.obj
 0001:00084e80       ?ScanRegionSSE2@ScannerEngine@kmp@@AEBA_K_K0AEBUParsedPattern@2@@Z 0000000180085e80 f   KenshiMP.Scanner:scanner_engine.obj
 0001:00085110       ?_Change_array@?$vector@UPESection@kmp@@V?$allocator@UPESection@kmp@@@std@@@std@@AEAAXQEAUPESection@kmp@@_K1@Z 0000000180086110 f i KenshiMP.Scanner:scanner_engine.obj
 0001:000853e0       ??$_Emplace_reallocate@AEBUFunctionEntry@kmp@@@?$vector@UFunctionEntry@kmp@@V?$allocator@UFunctionEntry@kmp@@@std@@@std@@AEAAPEAUFunctionEntry@kmp@@QEAU23@AEBU23@@Z 00000001800863e0 f i KenshiMP.Scanner:pdata_enumerator.obj
 0001:00086e20       ??$log_@AEA_KAEA_KAEA_KAEA_KAEA_K@logger@spdlog@@IEAAXUsource_loc@1@W4level_enum@level@1@V?$basic_string_view@D@v11@fmt@@AEA_K3333@Z 0000000180087e20 f i KenshiMP.Scanner:pdata_enumerator.obj
 0001:00087080       ??$swap@UFunctionEntry@kmp@@$0A@@std@@YAXAEAUFunctionEntry@kmp@@0@Z 0000000180088080 f i KenshiMP.Scanner:pdata_enumerator.obj
 0001:00087210       ??0FunctionEntry@kmp@@QEAA@$$QEAU01@@Z 0000000180088210 f i KenshiMP.Scanner:pdata_enumerator.obj
 0001:000872d0       ??1_Reallocation_guard@?$vector@UFunctionEntry@kmp@@V?$allocator@UFunctionEntry@kmp@@@std@@@std@@QEAA@XZ 00000001800882d0 f i KenshiMP.Scanner:pdata_enumerator.obj
 0001:00087380       ??4FunctionEntry@kmp@@QEAAAEAU01@$$QEAU01@@Z 0000000180088380 f i KenshiMP.Scanner:pdata_enumerator.obj
 0001:00087410       ?Enumerate@PDataEnumerator@kmp@@QEAA_NXZ 0000000180088410 f   KenshiMP.Scanner:pdata_enumerator.obj
 0001:00087be0       ?FindContaining@PDataEnumerator@kmp@@QEBAPEBUFunctionEntry@2@_K@Z 0000000180088be0 f   KenshiMP.Scanner:pdata_enumerator.obj
 0001:00087c50       ?FindFunction@PDataEnumerator@kmp@@QEBAPEBUFunctionEntry@2@_K@Z 0000000180088c50 f   KenshiMP.Scanner:pdata_enumerator.obj
 0001:00087cc0       ?Init@PDataEnumerator@kmp@@QEAA_N_K0@Z 0000000180088cc0 f   KenshiMP.Scanner:pdata_enumerator.obj
 0001:00087e10       ?_Change_array@?$vector@UFunctionEntry@kmp@@V?$allocator@UFunctionEntry@kmp@@@std@@@std@@AEAAXQEAUFunctionEntry@kmp@@_K1@Z 0000000180088e10 f i KenshiMP.Scanner:pdata_enumerator.obj
 0001:00087ee0       ??$_Emplace_reallocate@AEBUXRef@GameString@kmp@@@?$vector@UXRef@GameString@kmp@@V?$allocator@UXRef@GameString@kmp@@@std@@@std@@AEAAPEAUXRef@GameString@kmp@@QEAU234@AEBU234@@Z 0000000180088ee0 f i KenshiMP.Scanner:string_analyzer.obj
 0001:00088070       ??$_Emplace_reallocate@UGameString@kmp@@@?$vector@UGameString@kmp@@V?$allocator@UGameString@kmp@@@std@@@std@@AEAAPEAUGameString@kmp@@QEAU23@$$QEAU23@@Z 0000000180089070 f i KenshiMP.Scanner:string_analyzer.obj
 0001:00088250       ??$_Emplace_reallocate@ULabeledFunction@kmp@@@?$vector@ULabeledFunction@kmp@@V?$allocator@ULabeledFunction@kmp@@@std@@@std@@AEAAPEAULabeledFunction@kmp@@QEAU23@$$QEAU23@@Z 0000000180089250 f i KenshiMP.Scanner:string_analyzer.obj
 0001:00089f60       ??$_Try_emplace@AEB_K$$V@?$_Hash@V?$_Umap_traits@_KV?$vector@_KV?$allocator@_K@std@@@std@@V?$_Uhash_compare@_KU?$hash@_K@std@@U?$equal_to@_K@2@@2@V?$allocator@U?$pair@$$CB_KV?$vector@_KV?$allocator@_K@std@@@std@@@std@@@2@$0A@@std@@@std@@IEAA?AU?$pair@PEAU?$_List_node@U?$pair@$$CB_KV?$vector@_KV?$allocator@_K@std@@@std@@@std@@PEAX@std@@_N@1@AEB_K@Z 000000018008af60 f i KenshiMP.Scanner:string_analyzer.obj
 0001:0008a230       ??$_Try_emplace@AEB_K$$V@?$_Hash@V?$_Umap_traits@_K_KV?$_Uhash_compare@_KU?$hash@_K@std@@U?$equal_to@_K@2@@std@@V?$allocator@U?$pair@$$CB_K_K@std@@@2@$0A@@std@@@std@@IEAA?AU?$pair@PEAU?$_List_node@U?$pair@$$CB_K_K@std@@PEAX@std@@_N@1@AEB_K@Z 000000018008b230 f i KenshiMP.Scanner:string_analyzer.obj
 0001:0008a500       ??$_Uninitialized_move@PEAUGameString@kmp@@V?$allocator@UGameString@kmp@@@std@@@std@@YAPEAUGameString@kmp@@QEAU12@0PEAU12@AEAV?$allocator@UGameString@kmp@@@0@@Z 000000018008b500 f i KenshiMP.Scanner:string_analyzer.obj
 0001:0008a5d0       ??$_Uninitialized_move@PEAUXRef@GameString@kmp@@V?$allocator@UXRef@GameString@kmp@@@std@@@std@@YAPEAUXRef@GameString@kmp@@QEAU123@0PEAU123@AEAV?$allocator@UXRef@GameString@kmp@@@0@@Z 000000018008b5d0 f i KenshiMP.Scanner:string_analyzer.obj
 0001:0008a650       ??$swap@ULabeledFunction@kmp@@$0A@@std@@YAXAEAULabeledFunction@kmp@@0@Z 000000018008b650 f i KenshiMP.Scanner:string_analyzer.obj
 0001:0008a830       ??0LabeledFunction@kmp@@QEAA@$$QEAU01@@Z 000000018008b830 f i KenshiMP.Scanner:string_analyzer.obj
 0001:0008a910       ??1?$_List_node_emplace_op2@V?$allocator@U?$_List_node@U?$pair@$$CB_KV?$vector@_KV?$allocator@_K@std@@@std@@@std@@PEAX@std@@@std@@@std@@QEAA@XZ 000000018008b910 f i KenshiMP.Scanner:string_analyzer.obj
 0001:0008a950       ??1?$unordered_map@_K_KU?$hash@_K@std@@U?$equal_to@_K@2@V?$allocator@U?$pair@$$CB_K_K@std@@@2@@std@@QEAA@XZ 000000018008b950 f i KenshiMP.Scanner:string_analyzer.obj
 0001:0008a9b0       ??1?$unordered_set@_KU?$hash@_K@std@@U?$equal_to@_K@2@V?$allocator@_K@2@@std@@QEAA@XZ 000000018008b9b0 f i KenshiMP.Scanner:string_analyzer.obj
 0001:0008aa10       ??1_Reallocation_guard@?$vector@UXRef@GameString@kmp@@V?$allocator@UXRef@GameString@kmp@@@std@@@std@@QEAA@XZ 000000018008ba10 f i KenshiMP.Scanner:string_analyzer.obj
 0001:0008aab0       ??4LabeledFunction@kmp@@QEAAAEAU01@$$QEAU01@@Z 000000018008bab0 f i KenshiMP.Scanner:string_analyzer.obj
 0001:0008ab50       ?ClassifyString@StringAnalyzer@kmp@@AEBA?AW4StringCategory@2@AEBV?$basic_string@DU?$char_traits@D@std@@V?$allocator@D@2@@std@@@Z 000000018008bb50 f   KenshiMP.Scanner:string_analyzer.obj
 0001:0008b170       ?ExtractClassMethod@StringAnalyzer@kmp@@AEBA?AU?$pair@V?$basic_string@DU?$char_traits@D@std@@V?$allocator@D@2@@std@@V12@@std@@AEBV?$basic_string@DU?$char_traits@D@std@@V?$allocator@D@2@@4@@Z 000000018008c170 f   KenshiMP.Scanner:string_analyzer.obj
 0001:0008b650       ?FindFunctionsReferencingString@StringAnalyzer@kmp@@QEBA?AV?$vector@_KV?$allocator@_K@std@@@std@@AEBV?$basic_string@DU?$char_traits@D@std@@V?$allocator@D@2@@4@@Z 000000018008c650 f   KenshiMP.Scanner:string_analyzer.obj
 0001:0008b920       ?FindLabeledFunction@StringAnalyzer@kmp@@QEBAPEBULabeledFunction@2@AEBV?$basic_string@DU?$char_traits@D@std@@V?$allocator@D@2@@std@@@Z 000000018008c920 f   KenshiMP.Scanner:string_analyzer.obj
 0001:0008bb10       ?FindStrings@StringAnalyzer@kmp@@QEBA?AV?$vector@PEBUGameString@kmp@@V?$allocator@PEBUGameString@kmp@@@std@@@std@@AEBV?$basic_string@DU?$char_traits@D@std@@V?$allocator@D@2@@4@@Z 000000018008cb10 f   KenshiMP.Scanner:string_analyzer.obj
 0001:0008bbe0       ?GenerateLabel@StringAnalyzer@kmp@@AEBA?AV?$basic_string@DU?$char_traits@D@std@@V?$allocator@D@2@@std@@AEBV?$vector@V?$basic_string@DU?$char_traits@D@std@@V?$allocator@D@2@@std@@V?$allocator@V?$basic_string@DU?$char_traits@D@std@@V?$allocator@D@2@@std@@@2@@4@@Z 000000018008cbe0 f   KenshiMP.Scanner:string_analyzer.obj
 0001:0008c220       ?Init@StringAnalyzer@kmp@@QEAA_N_K0PEBVPDataEnumerator@2@@Z 000000018008d220 f   KenshiMP.Scanner:string_analyzer.obj
 0001:0008c330       ?LabelFunctions@StringAnalyzer@kmp@@QEAA_KXZ 000000018008d330 f   KenshiMP.Scanner:string_analyzer.obj
 0001:0008cb70       ?ResolveXrefs@StringAnalyzer@kmp@@QEAA_KXZ 000000018008db70 f   KenshiMP.Scanner:string_analyzer.obj
 0001:0008d1d0       ?ScanStrings@StringAnalyzer@kmp@@QEAA_KH@Z 000000018008e1d0 f   KenshiMP.Scanner:string_analyzer.obj
 0001:0008d760       ?ScanWideStrings@StringAnalyzer@kmp@@QEAA_KH@Z 000000018008e760 f   KenshiMP.Scanner:string_analyzer.obj
 0001:0008dd50       ?_Change_array@?$vector@UGameString@kmp@@V?$allocator@UGameString@kmp@@@std@@@std@@AEAAXQEAUGameString@kmp@@_K1@Z 000000018008ed50 f i KenshiMP.Scanner:string_analyzer.obj
 0001:0008de60       ?_Change_array@?$vector@UXRef@GameString@kmp@@V?$allocator@UXRef@GameString@kmp@@@std@@@std@@AEAAXQEAUXRef@GameString@kmp@@_K1@Z 000000018008ee60 f i KenshiMP.Scanner:string_analyzer.obj
 0001:0008df60       ?_Forced_rehash@?$_Hash@V?$_Umap_traits@_KUCallNode@kmp@@V?$_Uhash_compare@_KU?$hash@_K@std@@U?$equal_to@_K@2@@std@@V?$allocator@U?$pair@$$CB_KUCallNode@kmp@@@std@@@4@$0A@@std@@@std@@IEAAX_K@Z 000000018008ef60 f i KenshiMP.Scanner:call_graph.obj
 0001:0008df60       ?_Forced_rehash@?$_Hash@V?$_Umap_traits@_KV?$vector@_KV?$allocator@_K@std@@@std@@V?$_Uhash_compare@_KU?$hash@_K@std@@U?$equal_to@_K@2@@2@V?$allocator@U?$pair@$$CB_KV?$vector@_KV?$allocator@_K@std@@@std@@@std@@@2@$0A@@std@@@std@@IEAAX_K@Z 000000018008ef60 f i KenshiMP.Scanner:string_analyzer.obj
 0001:0008e220       ?_Unchecked_erase@?$_Hash@V?$_Umap_traits@_KV?$vector@_KV?$allocator@_K@std@@@std@@V?$_Uhash_compare@_KU?$hash@_K@std@@U?$equal_to@_K@2@@2@V?$allocator@U?$pair@$$CB_KV?$vector@_KV?$allocator@_K@std@@@std@@@std@@@2@$0A@@std@@@std@@AEAAPEAU?$_List_node@U?$pair@$$CB_KV?$vector@_KV?$allocator@_K@std@@@std@@@std@@PEAX@2@PEAU32@QEAU32@@Z 000000018008f220 f i KenshiMP.Scanner:string_analyzer.obj
 0001:0008e4a0       ?clear@?$_Hash@V?$_Umap_traits@_KV?$vector@_KV?$allocator@_K@std@@@std@@V?$_Uhash_compare@_KU?$hash@_K@std@@U?$equal_to@_K@2@@2@V?$allocator@U?$pair@$$CB_KV?$vector@_KV?$allocator@_K@std@@@std@@@std@@@2@$0A@@std@@@std@@QEAAXXZ 000000018008f4a0 f i KenshiMP.Scanner:string_analyzer.obj
 0001:0008e570       ??$_Emplace_reallocate@UVTableInfo@kmp@@@?$vector@UVTableInfo@kmp@@V?$allocator@UVTableInfo@kmp@@@std@@@std@@AEAAPEAUVTableInfo@kmp@@QEAU23@$$QEAU23@@Z 000000018008f570 f i KenshiMP.Scanner:vtable_scanner.obj
 0001:0008e810       ??$_Resize_reallocate@U_Value_init_tag@std@@@?$vector@UVTableSlot@kmp@@V?$allocator@UVTableSlot@kmp@@@std@@@std@@AEAAX_KAEBU_Value_init_tag@1@@Z 000000018008f810 f i KenshiMP.Scanner:vtable_scanner.obj
 0001:0008ea70       ??$_Uninitialized_value_construct_n@V?$allocator@UVTableSlot@kmp@@@std@@@std@@YAPEAUVTableSlot@kmp@@PEAU12@_KAEAV?$allocator@UVTableSlot@kmp@@@0@@Z 000000018008fa70 f i KenshiMP.Scanner:vtable_scanner.obj
 0001:0008ead0       ??0VTableInfo@kmp@@QEAA@$$QEAU01@@Z 000000018008fad0 f i KenshiMP.Scanner:vtable_scanner.obj
 0001:0008ebd0       ??1?$unique_ptr@$$BY0A@UVTableCandidate@kmp@@U?$default_delete@$$BY0A@UVTableCandidate@kmp@@@std@@@std@@QEAA@XZ 000000018008fbd0 f i KenshiMP.Scanner:vtable_scanner.obj
 0001:0008ebe0       ?DemangleName@VTableScanner@kmp@@AEBA?AV?$basic_string@DU?$char_traits@D@std@@V?$allocator@D@2@@std@@PEBD@Z 000000018008fbe0 f   KenshiMP.Scanner:vtable_scanner.obj
 0001:0008f1b0       ?FindByClassName@VTableScanner@kmp@@QEBAPEBUVTableInfo@2@AEBV?$basic_string@DU?$char_traits@D@std@@V?$allocator@D@2@@std@@@Z 00000001800901b0 f   KenshiMP.Scanner:vtable_scanner.obj
 0001:0008f2e0       ?GetVirtualFunction@VTableScanner@kmp@@QEBA_KAEBV?$basic_string@DU?$char_traits@D@std@@V?$allocator@D@2@@std@@H@Z 00000001800902e0 f   KenshiMP.Scanner:vtable_scanner.obj
 0001:0008f320       ?Init@VTableScanner@kmp@@QEAA_N_K0PEBVPDataEnumerator@2@@Z 0000000180090320 f   KenshiMP.Scanner:vtable_scanner.obj
 0001:0008f460       ?ReadBaseClasses@VTableScanner@kmp@@AEAA?AV?$vector@V?$basic_string@DU?$char_traits@D@std@@V?$allocator@D@2@@std@@V?$allocator@V?$basic_string@DU?$char_traits@D@std@@V?$allocator@D@2@@std@@@2@@std@@H@Z 0000000180090460 f   KenshiMP.Scanner:vtable_scanner.obj
 0001:0008f5d0       ?ReadCOL@VTableScanner@kmp@@AEAA_N_KAEAUVTableInfo@2@@Z 00000001800905d0 f   KenshiMP.Scanner:vtable_scanner.obj
 0001:0008fbc0       ?ScanVTables@VTableScanner@kmp@@QEAA_KXZ 0000000180090bc0 f   KenshiMP.Scanner:vtable_scanner.obj
 0001:000902f0       ??$_Try_emplace@AEB_K$$V@?$_Hash@V?$_Umap_traits@_KUCallNode@kmp@@V?$_Uhash_compare@_KU?$hash@_K@std@@U?$equal_to@_K@2@@std@@V?$allocator@U?$pair@$$CB_KUCallNode@kmp@@@std@@@4@$0A@@std@@@std@@IEAA?AU?$pair@PEAU?$_List_node@U?$pair@$$CB_KUCallNode@kmp@@@std@@PEAX@std@@_N@1@AEB_K@Z 00000001800912f0 f i KenshiMP.Scanner:call_graph.obj
 0001:00090580       ??$emplace@AEA_KUCallNode@kmp@@@?$_Hash@V?$_Umap_traits@_KUCallNode@kmp@@V?$_Uhash_compare@_KU?$hash@_K@std@@U?$equal_to@_K@2@@std@@V?$allocator@U?$pair@$$CB_KUCallNode@kmp@@@std@@@4@$0A@@std@@@std@@QEAA?AU?$pair@V?$_List_iterator@V?$_List_val@U?$_List_simple_types@U?$pair@$$CB_KUCallNode@kmp@@@std@@@std@@@std@@@std@@_N@1@AEA_K$$QEAUCallNode@kmp@@@Z 0000000180091580 f i KenshiMP.Scanner:call_graph.obj
 0001:00090880       ??1?$_Alloc_construct_ptr@V?$allocator@U?$_List_node@U?$pair@$$CB_KUCallNode@kmp@@@std@@PEAX@std@@@std@@@std@@QEAA@XZ 0000000180091880 f i KenshiMP.Scanner:call_graph.obj
 0001:000908a0       ??1?$_List_node_emplace_op2@V?$allocator@U?$_List_node@U?$pair@$$CB_KUCallNode@kmp@@@std@@PEAX@std@@@std@@@std@@QEAA@XZ 00000001800918a0 f i KenshiMP.Scanner:call_graph.obj
 0001:00090900       ?AnalyzeFunction@CallGraphAnalyzer@kmp@@QEBA?AV?$vector@UCallEdge@kmp@@V?$allocator@UCallEdge@kmp@@@std@@@std@@_K0@Z 0000000180091900 f   KenshiMP.Scanner:call_graph.obj
 0001:00090c20       ?BuildFullGraph@CallGraphAnalyzer@kmp@@QEAA_KXZ 0000000180091c20 f   KenshiMP.Scanner:call_graph.obj
 0001:00090ff0       ?BuildGraphFor@CallGraphAnalyzer@kmp@@QEAA_KAEBV?$vector@_KV?$allocator@_K@std@@@std@@@Z 0000000180091ff0 f   KenshiMP.Scanner:call_graph.obj
 0001:00091410       ?GetOrCreateNode@CallGraphAnalyzer@kmp@@AEAAAEAUCallNode@2@_K@Z 0000000180092410 f   KenshiMP.Scanner:call_graph.obj
 0001:000915f0       ?Init@CallGraphAnalyzer@kmp@@QEAA_N_K0PEBVPDataEnumerator@2@@Z 00000001800925f0 f   KenshiMP.Scanner:call_graph.obj
 0001:000916e0       ?PropagateLabels@CallGraphAnalyzer@kmp@@QEAA_KAEBV?$unordered_map@_KV?$basic_string@DU?$char_traits@D@std@@V?$allocator@D@2@@std@@U?$hash@_K@2@U?$equal_to@_K@2@V?$allocator@U?$pair@$$CB_KV?$basic_string@DU?$char_traits@D@std@@V?$allocator@D@2@@std@@@std@@@2@@std@@H@Z 00000001800926e0 f   KenshiMP.Scanner:call_graph.obj
 0001:00092340       ?_Change_array@?$vector@UCallEdge@kmp@@V?$allocator@UCallEdge@kmp@@@std@@@std@@AEAAXQEAUCallEdge@kmp@@_K1@Z 0000000180093340 f i KenshiMP.Scanner:call_graph.obj
 0001:000923f0       ?_Rehash_for_1@?$_Hash@V?$_Umap_traits@_KUCallNode@kmp@@V?$_Uhash_compare@_KU?$hash@_K@std@@U?$equal_to@_K@2@@std@@V?$allocator@U?$pair@$$CB_KUCallNode@kmp@@@std@@@4@$0A@@std@@@std@@IEAAXXZ 00000001800933f0 f i KenshiMP.Scanner:call_graph.obj
 0001:000924b0       ?_Unchecked_erase@?$_Hash@V?$_Umap_traits@_KUCallNode@kmp@@V?$_Uhash_compare@_KU?$hash@_K@std@@U?$equal_to@_K@2@@std@@V?$allocator@U?$pair@$$CB_KUCallNode@kmp@@@std@@@4@$0A@@std@@@std@@AEAAPEAU?$_List_node@U?$pair@$$CB_KUCallNode@kmp@@@std@@PEAX@2@PEAU32@QEAU32@@Z 00000001800934b0 f i KenshiMP.Scanner:call_graph.obj
 0001:00092780       ?clear@?$_Hash@V?$_Umap_traits@_KUCallNode@kmp@@V?$_Uhash_compare@_KU?$hash@_K@std@@U?$equal_to@_K@2@@std@@V?$allocator@U?$pair@$$CB_KUCallNode@kmp@@@std@@@4@$0A@@std@@@std@@QEAAXXZ 0000000180093780 f i KenshiMP.Scanner:call_graph.obj
 0001:00092860       ?find@?$_Hash@V?$_Umap_traits@_KUCallNode@kmp@@V?$_Uhash_compare@_KU?$hash@_K@std@@U?$equal_to@_K@2@@std@@V?$allocator@U?$pair@$$CB_KUCallNode@kmp@@@std@@@4@$0A@@std@@@std@@QEAA?AV?$_List_iterator@V?$_List_val@U?$_List_simple_types@U?$pair@$$CB_KUCallNode@kmp@@@std@@@std@@@std@@@2@AEB_K@Z 0000000180093860 f i KenshiMP.Scanner:call_graph.obj
 0001:00092930       enet_address_set_host      0000000180093930 f   enet:win32.obj
 0001:00092a20       enet_deinitialize          0000000180093a20 f   enet:win32.obj
 0001:00092a40       enet_host_random_seed      0000000180093a40 f   enet:win32.obj
 0001:00092a50       enet_initialize            0000000180093a50 f   enet:win32.obj
 0001:00092ae0       enet_socket_bind           0000000180093ae0 f   enet:win32.obj
 0001:00092b80       enet_socket_create         0000000180093b80 f   enet:win32.obj
 0001:00092ba0       enet_socket_destroy        0000000180093ba0 f   enet:win32.obj
 0001:00092bb0       enet_socket_get_address    0000000180093bb0 f   enet:win32.obj
 0001:00092c30       enet_socket_receive        0000000180093c30 f   enet:win32.obj
 0001:00092d20       enet_socket_send           0000000180093d20 f   enet:win32.obj
 0001:00092df0       enet_socket_set_option     0000000180093df0 f   enet:win32.obj
 0001:00092f00       enet_socket_wait           0000000180093f00 f   enet:win32.obj
 0001:00093010       enet_time_get              0000000180094010 f   enet:win32.obj
 0001:00093030       enet_packet_create         0000000180094030 f   enet:packet.obj
 0001:000930e0       enet_packet_destroy        00000001800940e0 f   enet:packet.obj
 0001:00093120       enet_host_bandwidth_throttle 0000000180094120 f   enet:host.obj
 0001:000934b0       enet_host_connect          00000001800944b0 f   enet:host.obj
 0001:00093710       enet_host_create           0000000180094710 f   enet:host.obj
 0001:00093a00       enet_host_destroy          0000000180094a00 f   enet:host.obj
 0001:00093a90       enet_host_flush            0000000180094a90 f   enet:protocol.obj
 0001:00093ac0       enet_host_service          0000000180094ac0 f   enet:protocol.obj
 0001:000944e0       enet_protocol_command_size 00000001800954e0 f   enet:protocol.obj
 0001:00096450       enet_peer_disconnect       0000000180097450 f   enet:peer.obj
 0001:00096530       enet_peer_dispatch_incoming_reliable_commands 0000000180097530 f   enet:peer.obj
 0001:00096760       enet_peer_dispatch_incoming_unreliable_commands 0000000180097760 f   enet:peer.obj
 0001:00096900       enet_peer_has_outgoing_commands 0000000180097900 f   enet:peer.obj
 0001:00096930       enet_peer_on_connect       0000000180097930 f   enet:peer.obj
 0001:00096960       enet_peer_on_disconnect    0000000180097960 f   enet:peer.obj
 0001:00096990       enet_peer_ping             0000000180097990 f   enet:peer.obj
 0001:00096a00       enet_peer_queue_acknowledgement 0000000180097a00 f   enet:peer.obj
 0001:00096ad0       enet_peer_queue_incoming_command 0000000180097ad0 f   enet:peer.obj
 0001:00096dd0       enet_peer_queue_outgoing_command 0000000180097dd0 f   enet:peer.obj
 0001:00096e70       enet_peer_receive          0000000180097e70 f   enet:peer.obj
 0001:00096fd0       enet_peer_reset            0000000180097fd0 f   enet:peer.obj
 0001:00097140       enet_peer_reset_queues     0000000180098140 f   enet:peer.obj
 0001:00097330       enet_peer_send             0000000180098330 f   enet:peer.obj
 0001:00097620       enet_peer_setup_outgoing_command 0000000180098620 f   enet:peer.obj
 0001:00097750       enet_peer_throttle         0000000180098750 f   enet:peer.obj
 0001:000977e0       enet_peer_timeout          00000001800987e0 f   enet:peer.obj
 0001:00097820       enet_free                  0000000180098820 f   enet:callbacks.obj
 0001:00097830       enet_malloc                0000000180098830 f   enet:callbacks.obj
 0001:00097860       enet_list_clear            0000000180098860 f   enet:list.obj
 0001:00097870       enet_list_insert           0000000180098870 f   enet:list.obj
 0001:00097890       enet_list_move             0000000180098890 f   enet:list.obj
 0001:000978c0       enet_list_remove           00000001800988c0 f   enet:list.obj
 0001:000978e0       ??$?0Vlocale_ref@detail@v11@fmt@@$0A@@?$digit_grouping@D@detail@v11@fmt@@QEAA@Vlocale_ref@123@_N@Z 00000001800988e0 f i spdlog:bundled_fmtlib_format.obj
 0001:00097b10       ??$?RUmonostate@v11@fmt@@$0A@@dynamic_spec_getter@detail@v11@fmt@@QEAA_KUmonostate@23@@Z 0000000180098b10 f i spdlog:bundled_fmtlib_format.obj
 0001:00097b90       ??$?XH@bigint@detail@v11@fmt@@QEAAAEAV0123@H@Z 0000000180098b90 f i spdlog:bundled_fmtlib_format.obj
 0001:00097c10       ??$append@D@?$buffer@D@detail@v11@fmt@@QEAAXPEBD0@Z 0000000180098c10 f i spdlog:bundled_fmtlib_format.obj
 0001:00097d00       ??$apply@V?$basic_appender@D@v11@fmt@@D@?$digit_grouping@D@detail@v11@fmt@@QEBA?AV?$basic_appender@D@23@V423@V?$basic_string_view@D@23@@Z 0000000180098d00 f i spdlog:bundled_fmtlib_format.obj
 0001:00097f00       ??$decimal_point@D@detail@v11@fmt@@YADVlocale_ref@012@@Z 0000000180098f00 f i spdlog:bundled_fmtlib_format.obj
 0001:00097f90       ??$do_format_base2e@D_K@detail@v11@fmt@@YAPEADHPEAD_KH_N@Z 0000000180098f90 f i spdlog:bundled_fmtlib_format.obj
 0001:00098000       ??$do_format_decimal@DI@detail@v11@fmt@@YAPEADPEADIH@Z 0000000180099000 f i spdlog:bundled_fmtlib_format.obj
 0001:00098070       ??$do_format_decimal@D_K@detail@v11@fmt@@YAPEADPEAD_KH@Z 0000000180099070 f i spdlog:bundled_fmtlib_format.obj
 0001:00098110       ??$do_write_float@DV?$basic_appender@D@v11@fmt@@U?$decimal_fp@M@dragonbox@detail@23@V?$digit_grouping@D@623@@detail@v11@fmt@@YA?AV?$basic_appender@D@12@V312@AEBU?$decimal_fp@M@dragonbox@012@AEBUformat_specs@12@W4sign@12@HVlocale_ref@012@@Z 0000000180099110 f i spdlog:bundled_fmtlib_format.obj
 0001:000987b0       ??$do_write_float@DV?$basic_appender@D@v11@fmt@@U?$decimal_fp@N@dragonbox@detail@23@V?$digit_grouping@D@623@@detail@v11@fmt@@YA?AV?$basic_appender@D@12@V312@AEBU?$decimal_fp@N@dragonbox@012@AEBUformat_specs@12@W4sign@12@HVlocale_ref@012@@Z 00000001800997b0 f i spdlog:bundled_fmtlib_format.obj
 0001:00098e60       ??$do_write_float@DV?$basic_appender@D@v11@fmt@@Ubig_decimal_fp@detail@23@V?$digit_grouping@D@523@@detail@v11@fmt@@YA?AV?$basic_appender@D@12@V312@AEBUbig_decimal_fp@012@AEBUformat_specs@12@W4sign@12@HVlocale_ref@012@@Z 0000000180099e60 f i spdlog:bundled_fmtlib_format.obj
 0001:000994d0       ??$fill@DV?$basic_appender@D@v11@fmt@@@detail@v11@fmt@@YA?AV?$basic_appender@D@12@V312@_KAEBVbasic_specs@12@@Z 000000018009a4d0 f i spdlog:bundled_fmtlib_format.obj
 0001:00099590       ??$fill_n@V?$basic_appender@D@v11@fmt@@HD@detail@v11@fmt@@YA?AV?$basic_appender@D@12@V312@HAEBD@Z 000000018009a590 f i spdlog:bundled_fmtlib_format.obj
 0001:00099630       ??$for_each_codepoint@V<lambda_483a4e98e75f553c4c436b2e13054df5>@@@detail@v11@fmt@@YAXV?$basic_string_view@D@12@V<lambda_483a4e98e75f553c4c436b2e13054df5>@@@Z 000000018009a630 f i spdlog:bundled_fmtlib_format.obj
 0001:000999d0       ??$for_each_codepoint@V<lambda_b76dc1071ff2aa2602ecc82e2a395051>@@@detail@v11@fmt@@YAXV?$basic_string_view@D@12@V<lambda_b76dc1071ff2aa2602ecc82e2a395051>@@@Z 000000018009a9d0 f i spdlog:bundled_fmtlib_format.obj
 0001:00099e00       ??$format_base2e@DV?$basic_appender@D@v11@fmt@@_K$0A@@detail@v11@fmt@@YA?AV?$basic_appender@D@12@HV312@_KH_N@Z 000000018009ae00 f i spdlog:bundled_fmtlib_format.obj
 0001:00099f20       ??$format_decimal@DIV?$basic_appender@D@v11@fmt@@$0A@@detail@v11@fmt@@YA?AV?$basic_appender@D@12@V312@IH@Z 000000018009af20 f i spdlog:bundled_fmtlib_format.obj
 0001:0009a020       ??$format_decimal@D_KV?$basic_appender@D@v11@fmt@@$0A@@detail@v11@fmt@@YA?AV?$basic_appender@D@12@V312@_KH@Z 000000018009b020 f i spdlog:bundled_fmtlib_format.obj
 0001:0009a140       ??$format_float@N@detail@v11@fmt@@YAHNHAEBUformat_specs@12@_NAEAV?$buffer@D@012@@Z 000000018009b140 f i spdlog:bundled_fmtlib_format.obj
 0001:0009a6a0       ??$format_hexfloat@N$0A@@detail@v11@fmt@@YAXNUformat_specs@12@AEAV?$buffer@D@012@@Z 000000018009b6a0 f i spdlog:bundled_fmtlib_format.obj
 0001:0009a9b0       ??$get_dynamic_spec@Vcontext@v11@fmt@@@detail@v11@fmt@@YAHW4arg_id_kind@12@AEBT?$arg_ref@D@012@AEAVcontext@12@@Z 000000018009b9b0 f i spdlog:bundled_fmtlib_format.obj
 0001:0009abf0       ??$get_id@D@?$basic_format_args@Vcontext@v11@fmt@@@v11@fmt@@QEBAHV?$basic_string_view@D@12@@Z 000000018009bbf0 f i spdlog:bundled_fmtlib_format.obj
 0001:0009acc0       ??$multiply@Vuint128_fallback@detail@v11@fmt@@$0A@@bigint@detail@v11@fmt@@AEAAXVuint128_fallback@123@@Z 000000018009bcc0 f i spdlog:bundled_fmtlib_format.obj
 0001:0009aec0       ??$parse_arg_id@DAEAUid_adapter@?7???$parse_replacement_field@DAEAU?$format_handler@D@detail@v11@fmt@@@detail@v11@fmt@@YAPEBDPEBD0AEAU?$format_handler@D@234@@Z@@detail@v11@fmt@@YAPEBDPEBD0AEAUid_adapter@?7???$parse_replacement_field@DAEAU?$format_handler@D@detail@v11@fmt@@@012@YAPEBD00AEAU?$format_handler@D@012@@Z@@Z 000000018009bec0 f i spdlog:bundled_fmtlib_format.obj
 0001:0009b090       ??$parse_format_string@DU?$format_handler@D@detail@v11@fmt@@@detail@v11@fmt@@YAXV?$basic_string_view@D@12@$$QEAU?$format_handler@D@012@@Z 000000018009c090 f i spdlog:bundled_fmtlib_format.obj
 0001:0009b1a0       ??$parse_replacement_field@DAEAU?$format_handler@D@detail@v11@fmt@@@detail@v11@fmt@@YAPEBDPEBD0AEAU?$format_handler@D@012@@Z 000000018009c1a0 f i spdlog:bundled_fmtlib_format.obj
 0001:0009b3b0       ??$shorter_interval_case@M@dragonbox@detail@v11@fmt@@YA?AU?$decimal_fp@M@0123@H@Z 000000018009c3b0 f i spdlog:bundled_fmtlib_format.obj
 0001:0009b510       ??$thousands_sep@D@detail@v11@fmt@@YA?AU?$thousands_sep_result@D@012@Vlocale_ref@012@@Z 000000018009c510 f i spdlog:bundled_fmtlib_format.obj
 0001:0009b710       ??$to_decimal@M@dragonbox@detail@v11@fmt@@YA?AU?$decimal_fp@M@0123@M@Z 000000018009c710 f i spdlog:bundled_fmtlib_format.obj
 0001:0009b990       ??$to_decimal@N@dragonbox@detail@v11@fmt@@YA?AU?$decimal_fp@N@0123@N@Z 000000018009c990 f i spdlog:bundled_fmtlib_format.obj
 0001:0009bca0       ??$use_facet@V?$numpunct@D@std@@@std@@YAAEBV?$numpunct@D@0@AEBVlocale@0@@Z 000000018009cca0 f i spdlog:bundled_fmtlib_format.obj
 0001:0009be50       ??$visit@AEAU?$loc_writer@D@detail@v11@fmt@@@?$basic_format_arg@Vcontext@v11@fmt@@@v11@fmt@@QEBA_NAEAU?$loc_writer@D@detail@12@@Z 000000018009ce50 f i spdlog:bundled_fmtlib_format.obj
 0001:0009c1b0       ??$visit@U?$arg_formatter@D@detail@v11@fmt@@@?$basic_format_arg@Vcontext@v11@fmt@@@v11@fmt@@QEBAX$$QEAU?$arg_formatter@D@detail@12@@Z 000000018009d1b0 f i spdlog:bundled_fmtlib_format.obj
 0001:0009c790       ??$visit@U?$default_arg_formatter@D@detail@v11@fmt@@@?$basic_format_arg@Vcontext@v11@fmt@@@v11@fmt@@QEBAX$$QEAU?$default_arg_formatter@D@detail@12@@Z 000000018009d790 f i spdlog:bundled_fmtlib_format.obj
 0001:0009ccf0       ??$visit@Udynamic_spec_getter@detail@v11@fmt@@@?$basic_format_arg@Vcontext@v11@fmt@@@v11@fmt@@QEBA_K$$QEAUdynamic_spec_getter@detail@12@@Z 000000018009dcf0 f i spdlog:bundled_fmtlib_format.obj
 0001:0009d130       ??$write@DH$0A@@detail@v11@fmt@@YA?AV?$basic_appender@D@12@V312@HAEBUformat_specs@12@Vlocale_ref@012@@Z 000000018009e130 f i spdlog:bundled_fmtlib_format.obj
 0001:0009d210       ??$write@DV?$basic_appender@D@v11@fmt@@@detail@v11@fmt@@YA?AV?$basic_appender@D@12@V312@V?$basic_string_view@D@12@AEBUformat_specs@12@@Z 000000018009e210 f i spdlog:bundled_fmtlib_format.obj
 0001:0009d530       ??$write@DV?$basic_appender@D@v11@fmt@@H$0A@@detail@v11@fmt@@YA?AV?$basic_appender@D@12@V312@H@Z 000000018009e530 f i spdlog:bundled_fmtlib_format.obj
 0001:0009d650       ??$write@DV?$basic_appender@D@v11@fmt@@_J$0A@@detail@v11@fmt@@YA?AV?$basic_appender@D@12@V312@_J@Z 000000018009e650 f i spdlog:bundled_fmtlib_format.obj
 0001:0009d790       ??$write@DV?$basic_appender@D@v11@fmt@@_N$0A@@detail@v11@fmt@@YA?AV?$basic_appender@D@12@V312@_NAEBUformat_specs@12@Vlocale_ref@012@@Z 000000018009e790 f i spdlog:bundled_fmtlib_format.obj
 0001:0009d8d0       ??$write_bytes@D$01V?$basic_appender@D@v11@fmt@@@detail@v11@fmt@@YA?AV?$basic_appender@D@12@V312@V?$basic_string_view@D@12@AEBUformat_specs@12@@Z 000000018009e8d0 f i spdlog:bundled_fmtlib_format.obj
 0001:0009d9c0       ??$write_char@DV?$basic_appender@D@v11@fmt@@@detail@v11@fmt@@YA?AV?$basic_appender@D@12@V312@DAEBUformat_specs@12@@Z 000000018009e9c0 f i spdlog:bundled_fmtlib_format.obj
 0001:0009da10       ??$write_codepoint@$01DV?$basic_appender@D@v11@fmt@@@detail@v11@fmt@@YA?AV?$basic_appender@D@12@V312@DI@Z 000000018009ea10 f i spdlog:bundled_fmtlib_format.obj
 0001:0009daf0       ??$write_escaped_cp@V?$basic_appender@D@v11@fmt@@D@detail@v11@fmt@@YA?AV?$basic_appender@D@12@V312@AEBU?$find_escape_result@D@012@@Z 000000018009eaf0 f i spdlog:bundled_fmtlib_format.obj
 0001:0009de10       ??$write_escaped_string@DV?$basic_appender@D@v11@fmt@@@detail@v11@fmt@@YA?AV?$basic_appender@D@12@V312@V?$basic_string_view@D@12@@Z 000000018009ee10 f i spdlog:bundled_fmtlib_format.obj
 0001:0009df30       ??$write_exponent@DV?$basic_appender@D@v11@fmt@@@detail@v11@fmt@@YA?AV?$basic_appender@D@12@HV312@@Z 000000018009ef30 f i spdlog:bundled_fmtlib_format.obj
 0001:0009e110       ??$write_float@DV?$basic_appender@D@v11@fmt@@M@detail@v11@fmt@@YA?AV?$basic_appender@D@12@V312@MUformat_specs@12@Vlocale_ref@012@@Z 000000018009f110 f i spdlog:bundled_fmtlib_format.obj
 0001:0009e3f0       ??$write_float@DV?$basic_appender@D@v11@fmt@@N@detail@v11@fmt@@YA?AV?$basic_appender@D@12@V312@NUformat_specs@12@Vlocale_ref@012@@Z 000000018009f3f0 f i spdlog:bundled_fmtlib_format.obj
 0001:0009e3f0       ??$write_float@DV?$basic_appender@D@v11@fmt@@O@detail@v11@fmt@@YA?AV?$basic_appender@D@12@V312@OUformat_specs@12@Vlocale_ref@012@@Z 000000018009f3f0 f i spdlog:bundled_fmtlib_format.obj
 0001:0009e6d0       ??$write_int@DV?$basic_appender@D@v11@fmt@@I@detail@v11@fmt@@YA?AV?$basic_appender@D@12@V312@U?$write_int_arg@I@012@AEBUformat_specs@12@@Z 000000018009f6d0 f i spdlog:bundled_fmtlib_format.obj
 0001:0009ea10       ??$write_int@DV?$basic_appender@D@v11@fmt@@_K@detail@v11@fmt@@YA?AV?$basic_appender@D@12@V312@U?$write_int_arg@_K@012@AEBUformat_specs@12@@Z 000000018009fa10 f i spdlog:bundled_fmtlib_format.obj
 0001:0009ed60       ??$write_int@V?$basic_appender@D@v11@fmt@@_KD@detail@v11@fmt@@YA?AV?$basic_appender@D@12@V312@_KIAEBUformat_specs@12@AEBV?$digit_grouping@D@012@@Z 000000018009fd60 f i spdlog:bundled_fmtlib_format.obj
 0001:0009f0e0       ??$write_nonfinite@DV?$basic_appender@D@v11@fmt@@@detail@v11@fmt@@YA?AV?$basic_appender@D@12@V312@_NUformat_specs@12@W4sign@12@@Z 00000001800a00e0 f i spdlog:bundled_fmtlib_format.obj
 0001:0009f260       ??$write_padded@D$00V?$basic_appender@D@v11@fmt@@AEAV<lambda_c51efee74ff4681438c162b442061aa4>@@@detail@v11@fmt@@YA?AV?$basic_appender@D@12@V312@AEBUformat_specs@12@_K2AEAV<lambda_c51efee74ff4681438c162b442061aa4>@@@Z 00000001800a0260 f i spdlog:bundled_fmtlib_format.obj
 0001:0009f470       ??$write_padded@D$01V?$basic_appender@D@v11@fmt@@AEAV<lambda_03dff6a7c8d10ffcb95f84cc343a7542>@@@detail@v11@fmt@@YA?AV?$basic_appender@D@12@V312@AEBUformat_specs@12@_K2AEAV<lambda_03dff6a7c8d10ffcb95f84cc343a7542>@@@Z 00000001800a0470 f i spdlog:bundled_fmtlib_format.obj
 0001:0009f470       ??$write_padded@D$01V?$basic_appender@D@v11@fmt@@AEAV<lambda_30a14aa6e853934f61a0755213616063>@@@detail@v11@fmt@@YA?AV?$basic_appender@D@12@V312@AEBUformat_specs@12@_K2AEAV<lambda_30a14aa6e853934f61a0755213616063>@@@Z 00000001800a0470 f i spdlog:bundled_fmtlib_format.obj
 0001:0009f5e0       ??$write_ptr@DV?$basic_appender@D@v11@fmt@@_K@detail@v11@fmt@@YA?AV?$basic_appender@D@12@V312@_KPEBUformat_specs@12@@Z 00000001800a05e0 f i spdlog:bundled_fmtlib_format.obj
 0001:0009f7e0       ??$write_significand@V?$basic_appender@D@v11@fmt@@ID$0A@@detail@v11@fmt@@YA?AV?$basic_appender@D@12@V312@IHHD@Z 00000001800a07e0 f i spdlog:bundled_fmtlib_format.obj
 0001:0009f900       ??$write_significand@V?$basic_appender@D@v11@fmt@@_KD$0A@@detail@v11@fmt@@YA?AV?$basic_appender@D@12@V312@_KHHD@Z 00000001800a0900 f i spdlog:bundled_fmtlib_format.obj
 0001:0009fa50       ??0?$digit_grouping@D@detail@v11@fmt@@QEAA@V?$basic_string@DU?$char_traits@D@std@@V?$allocator@D@2@@std@@0@Z 00000001800a0a50 f i spdlog:bundled_fmtlib_format.obj
 0001:0009fb80       ??0?$format_facet@Vlocale@std@@@v11@fmt@@QEAA@AEAVlocale@std@@@Z 00000001800a0b80 f i spdlog:bundled_fmtlib_format.obj
 0001:0009fdf0       ??0_System_error@std@@IEAA@Verror_code@1@AEBV?$basic_string@DU?$char_traits@D@std@@V?$allocator@D@2@@1@@Z 00000001800a0df0 f i spdlog:bundled_fmtlib_format.obj
 0001:000a0000       ??0format_error@v11@fmt@@QEAA@AEBV012@@Z 00000001800a1000 f i spdlog:bundled_fmtlib_format.obj
 0001:000a0040       ??1?$_Tidy_guard@V?$numpunct@D@std@@@std@@QEAA@XZ 00000001800a1040 f i spdlog:bundled_fmtlib_format.obj
 0001:000a0080       ??1?$format_facet@Vlocale@std@@@v11@fmt@@UEAA@XZ 00000001800a1080 f i spdlog:bundled_fmtlib_format.obj
 0001:000a00c0       ??1?$loc_writer@D@detail@v11@fmt@@QEAA@XZ 00000001800a10c0 f i spdlog:bundled_fmtlib_format.obj
 0001:000a00f0       ??R<lambda_015e08c4eeae12937dfaa6a8b8486869>@@QEBA@V?$basic_appender@D@v11@fmt@@@Z 00000001800a10f0 f i spdlog:bundled_fmtlib_format.obj
 0001:000a0250       ??R<lambda_0a275191910424bed30539d0d15a6575>@@QEBA@V?$basic_appender@D@v11@fmt@@@Z 00000001800a1250 f i spdlog:bundled_fmtlib_format.obj
 0001:000a0410       ??R<lambda_4ac5702ec99ce2a091e3f399284ead78>@@QEBA@V?$basic_appender@D@v11@fmt@@@Z 00000001800a1410 f i spdlog:bundled_fmtlib_format.obj
 0001:000a0630       ??R<lambda_5d2de5333a30d7b9062f4940944f7a78>@@QEBA@V?$basic_appender@D@v11@fmt@@@Z 00000001800a1630 f i spdlog:bundled_fmtlib_format.obj
 0001:000a0740       ??R<lambda_65204d0adb1b119942a9794e0508c006>@@QEBA@PEBD0@Z 00000001800a1740 f i spdlog:bundled_fmtlib_format.obj
 0001:000a0980       ??R<lambda_993fb0498e2b09e560b0a05c866c7fde>@@QEBA@V?$basic_appender@D@v11@fmt@@@Z 00000001800a1980 f i spdlog:bundled_fmtlib_format.obj
 0001:000a0af0       ??R<lambda_99e3899953c1c95f17e11534e485c594>@@QEBA@IPEAD@Z 00000001800a1af0 f i spdlog:bundled_fmtlib_format.obj
 0001:000a0bd0       ??R<lambda_b39264e6191d5f29e8fb13f698c9f3b9>@@QEBA@V?$basic_appender@D@v11@fmt@@@Z 00000001800a1bd0 f i spdlog:bundled_fmtlib_format.obj
 0001:000a0df0       ??R<lambda_b6574e5b14e697d3ac294e0f663abb87>@@QEBA@V?$basic_appender@D@v11@fmt@@@Z 00000001800a1df0 f i spdlog:bundled_fmtlib_format.obj
 0001:000a0fb0       ??R<lambda_b6beea8e0e5c8de73924ba3d304b6c54>@@QEBA@V?$basic_appender@D@v11@fmt@@@Z 00000001800a1fb0 f i spdlog:bundled_fmtlib_format.obj
 0001:000a11d0       ??R<lambda_cf4285671d04032e330fcc1afd33a15e>@@QEBA@V?$basic_appender@D@v11@fmt@@@Z 00000001800a21d0 f i spdlog:bundled_fmtlib_format.obj
 0001:000a12e0       ??R<lambda_d89279ccd78d7754d6b84e1a860d2c9a>@@QEBA@V?$basic_appender@D@v11@fmt@@@Z 00000001800a22e0 f i spdlog:bundled_fmtlib_format.obj
 0001:000a1440       ??R<lambda_e054a3e140a844d3e4660ecd7f0e9c46>@@QEBA@V?$basic_appender@D@v11@fmt@@@Z 00000001800a2440 f i spdlog:bundled_fmtlib_format.obj
 0001:000a15b0       ??R<lambda_facf53dbb888d6df37c2a09e1b109994>@@QEBA@V?$basic_appender@D@v11@fmt@@@Z 00000001800a25b0 f i spdlog:bundled_fmtlib_format.obj
 0001:000a1830       ??R?$default_arg_formatter@D@detail@v11@fmt@@QEAAXUmonostate@23@@Z 00000001800a2830 f i spdlog:bundled_fmtlib_format.obj
 0001:000a18b0       ??_3bigint@detail@v11@fmt@@QEAAAEAV0123@H@Z 00000001800a28b0 f i spdlog:bundled_fmtlib_format.obj
 0001:000a1970       ??_E?$format_facet@Vlocale@std@@@v11@fmt@@UEAAPEAXI@Z 00000001800a2970 f i spdlog:bundled_fmtlib_format.obj
 0001:000a1970       ??_G?$format_facet@Vlocale@std@@@v11@fmt@@UEAAPEAXI@Z 00000001800a2970 f i spdlog:bundled_fmtlib_format.obj
 0001:000a19d0       ??_E?$numpunct@D@std@@MEAAPEAXI@Z 00000001800a29d0 f i spdlog:bundled_fmtlib_format.obj
 0001:000a19d0       ??_G?$numpunct@D@std@@MEAAPEAXI@Z 00000001800a29d0 f i spdlog:bundled_fmtlib_format.obj
 0001:000a1a30       ??_E_System_error@std@@UEAAPEAXI@Z 00000001800a2a30 f i spdlog:bundled_fmtlib_format.obj
 0001:000a1a30       ??_Esystem_error@std@@UEAAPEAXI@Z 00000001800a2a30 f i spdlog:bundled_fmtlib_format.obj
 0001:000a1a30       ??_G_System_error@std@@UEAAPEAXI@Z 00000001800a2a30 f i spdlog:bundled_fmtlib_format.obj
 0001:000a1a30       ??_Gsystem_error@std@@UEAAPEAXI@Z 00000001800a2a30 f i spdlog:bundled_fmtlib_format.obj
 0001:000a1a80       ?_Init@?$numpunct@D@std@@IEAAXAEBV_Locinfo@2@_N@Z 00000001800a2a80 f i spdlog:bundled_fmtlib_format.obj
 0001:000a1c10       ?add_compare@detail@v11@fmt@@YAHAEBVbigint@123@00@Z 00000001800a2c10 f i spdlog:bundled_fmtlib_format.obj
 0001:000a1d90       ?adjust_precision@detail@v11@fmt@@YAXAEAHH@Z 00000001800a2d90 f i spdlog:bundled_fmtlib_format.obj
 0001:000a1e30       ?assign_pow10@bigint@detail@v11@fmt@@QEAAXH@Z 00000001800a2e30 f i spdlog:bundled_fmtlib_format.obj
 0001:000a1f70       ?compare@detail@v11@fmt@@YAHAEBVbigint@123@0@Z 00000001800a2f70 f i spdlog:bundled_fmtlib_format.obj
 0001:000a2060       ?count_separators@?$digit_grouping@D@detail@v11@fmt@@QEBAHH@Z 00000001800a3060 f i spdlog:bundled_fmtlib_format.obj
 0001:000a20f0       ?default_error_condition@error_category@std@@UEBA?AVerror_condition@2@H@Z 00000001800a30f0 f i spdlog:bundled_fmtlib_format.obj
 0001:000a2100       ?divmod_assign@bigint@detail@v11@fmt@@QEAAHAEBV1234@@Z 00000001800a3100 f i spdlog:bundled_fmtlib_format.obj
 0001:000a2390       ?do_decimal_point@?$numpunct@D@std@@MEBADXZ 00000001800a3390 f i spdlog:bundled_fmtlib_format.obj
 0001:000a23a0       ?do_falsename@?$numpunct@D@std@@MEBA?AV?$basic_string@DU?$char_traits@D@std@@V?$allocator@D@2@@2@XZ 00000001800a33a0 f i spdlog:bundled_fmtlib_format.obj
 0001:000a23f0       ?do_grouping@?$numpunct@D@std@@MEBA?AV?$basic_string@DU?$char_traits@D@std@@V?$allocator@D@2@@2@XZ 00000001800a33f0 f i spdlog:bundled_fmtlib_format.obj
 0001:000a2440       ?do_put@?$format_facet@Vlocale@std@@@v11@fmt@@MEBA_NV?$basic_appender@D@23@Vloc_value@23@AEBUformat_specs@23@@Z 00000001800a3440 f   spdlog:bundled_fmtlib_format.obj
 0001:000a24f0       ?do_thousands_sep@?$numpunct@D@std@@MEBADXZ 00000001800a34f0 f i spdlog:bundled_fmtlib_format.obj
 0001:000a2500       ?do_truename@?$numpunct@D@std@@MEBA?AV?$basic_string@DU?$char_traits@D@std@@V?$allocator@D@2@@2@XZ 00000001800a3500 f i spdlog:bundled_fmtlib_format.obj
 0001:000a2550       ?equivalent@error_category@std@@UEBA_NAEBVerror_code@2@H@Z 00000001800a3550 f i spdlog:bundled_fmtlib_format.obj
 0001:000a2570       ?equivalent@error_category@std@@UEBA_NHAEBVerror_condition@2@@Z 00000001800a3570 f i spdlog:bundled_fmtlib_format.obj
 0001:000a25b0       ?format_dragon@detail@v11@fmt@@YAXU?$basic_fp@Vuint128_fallback@detail@v11@fmt@@@123@IHAEAV?$buffer@D@123@AEAH@Z 00000001800a35b0 f i spdlog:bundled_fmtlib_format.obj
 0001:000a37d0       ?format_error_code@detail@v11@fmt@@YAXAEAV?$buffer@D@123@HV?$basic_string_view@D@23@@Z 00000001800a47d0 f   spdlog:bundled_fmtlib_format.obj
 0001:000a3940       ?format_system_error@v11@fmt@@YAXAEAV?$buffer@D@detail@12@HPEBD@Z 00000001800a4940 f   spdlog:bundled_fmtlib_format.obj
 0001:000a3b70       ?get_cached_power@?$cache_accessor@N@dragonbox@detail@v11@fmt@@SA?AVuint128_fallback@345@H@Z 00000001800a4b70 f i spdlog:bundled_fmtlib_format.obj
 0001:000a3c70       ?grow@?$basic_memory_buffer@H$0BPE@U?$allocator@H@detail@v11@fmt@@@v11@fmt@@CAXAEAV?$buffer@H@detail@23@_K@Z 00000001800a4c70 f i spdlog:bundled_fmtlib_format.obj
 0001:000a3c70       ?grow@?$basic_memory_buffer@I$0CA@U?$allocator@I@detail@v11@fmt@@@v11@fmt@@CAXAEAV?$buffer@I@detail@23@_K@Z 00000001800a4c70 f i spdlog:bundled_fmtlib_format.obj
 0001:000a3d60       ?grow@?$counting_buffer@D@detail@v11@fmt@@CAXAEAV?$buffer@D@234@_K@Z 00000001800a4d60 f i spdlog:bundled_fmtlib_format.obj
 0001:000a3d80       ?is_printable@detail@v11@fmt@@YA_NI@Z 00000001800a4d80 f   spdlog:bundled_fmtlib_format.obj
 0001:000a3fe0       ?message@_Generic_error_category@std@@UEBA?AV?$basic_string@DU?$char_traits@D@std@@V?$allocator@D@2@@2@H@Z 00000001800a4fe0 f i spdlog:bundled_fmtlib_format.obj
 0001:000a4040       ?name@_Generic_error_category@std@@UEBAPEBDXZ 00000001800a5040 f i spdlog:bundled_fmtlib_format.obj
 0001:000a4050       ?on_format_specs@?$format_handler@D@detail@v11@fmt@@QEAAPEBDHPEBD0@Z 00000001800a5050 f i spdlog:bundled_fmtlib_format.obj
 0001:000a4260       ?on_replacement_field@?$format_handler@D@detail@v11@fmt@@QEAAXHPEBD@Z 00000001800a5260 f i spdlog:bundled_fmtlib_format.obj
 0001:000a42f0       ?remove_leading_zeros@bigint@detail@v11@fmt@@AEAAXXZ 00000001800a52f0 f i spdlog:bundled_fmtlib_format.obj
 0001:000a4360       ?remove_trailing_zeros@dragonbox@detail@v11@fmt@@YAHAEA_K@Z 00000001800a5360 f i spdlog:bundled_fmtlib_format.obj
 0001:000a4450       ?report_error@v11@fmt@@YAXPEBD@Z 00000001800a5450 f   spdlog:bundled_fmtlib_format.obj
 0001:000a44c0       ?square@bigint@detail@v11@fmt@@QEAAXXZ 00000001800a54c0 f i spdlog:bundled_fmtlib_format.obj
 0001:000a4700       ?try_resize@?$buffer@D@detail@v11@fmt@@QEAAX_K@Z 00000001800a5700 f i spdlog:bundled_fmtlib_format.obj
 0001:000a4740       ?vformat@v11@fmt@@YA?AV?$basic_string@DU?$char_traits@D@std@@V?$allocator@D@2@@std@@V?$basic_string_view@D@12@V?$basic_format_args@Vcontext@v11@fmt@@@12@@Z 00000001800a5740 f   spdlog:bundled_fmtlib_format.obj
 0001:000a48a0       ?vformat_to@detail@v11@fmt@@YAXAEAV?$buffer@D@123@V?$basic_string_view@D@23@V?$basic_format_args@Vcontext@v11@fmt@@@23@Vlocale_ref@123@@Z 00000001800a58a0 f   spdlog:bundled_fmtlib_format.obj
 0001:000a4970       ?write_loc@detail@v11@fmt@@YA_NV?$basic_appender@D@23@Vloc_value@23@AEBUformat_specs@23@Vlocale_ref@123@@Z 00000001800a5970 f   spdlog:bundled_fmtlib_format.obj
 0001:000a4c50       fprintf                    00000001800a5c50 f i spdlog:bundled_fmtlib_format.obj
 0001:000a4ca0       ??$_Assign_counted_range@PEAVlog_msg_buffer@details@spdlog@@@?$vector@Vlog_msg_buffer@details@spdlog@@V?$allocator@Vlog_msg_buffer@details@spdlog@@@std@@@std@@AEAAXPEAVlog_msg_buffer@details@spdlog@@_K@Z 00000001800a5ca0 f i spdlog:spdlog.obj
 0001:000a4f50       ??$_Emplace_reallocate@V?$unique_ptr@Vflag_formatter@details@spdlog@@U?$default_delete@Vflag_formatter@details@spdlog@@@std@@@std@@@?$vector@V?$unique_ptr@Vflag_formatter@details@spdlog@@U?$default_delete@Vflag_formatter@details@spdlog@@@std@@@std@@V?$allocator@V?$unique_ptr@Vflag_formatter@details@spdlog@@U?$default_delete@Vflag_formatter@details@spdlog@@@std@@@std@@@2@@std@@AEAAPEAV?$unique_ptr@Vflag_formatter@details@spdlog@@U?$default_delete@Vflag_formatter@details@spdlog@@@std@@@1@QEAV21@$$QEAV21@@Z 00000001800a5f50 f i spdlog:spdlog.obj
 0001:000a5130       ??$_Erase_tree@V?$allocator@U?$_Tree_node@U?$pair@$$CBV?$basic_string@DU?$char_traits@D@std@@V?$allocator@D@2@@std@@V12@@std@@PEAX@std@@@std@@@?$_Tree_val@U?$_Tree_simple_types@U?$pair@$$CBV?$basic_string@DU?$char_traits@D@std@@V?$allocator@D@2@@std@@V12@@std@@@std@@@std@@QEAAXAEAV?$allocator@U?$_Tree_node@U?$pair@$$CBV?$basic_string@DU?$char_traits@D@std@@V?$allocator@D@2@@std@@V12@@std@@PEAX@std@@@1@PEAU?$_Tree_node@U?$pair@$$CBV?$basic_string@DU?$char_traits@D@std@@V?$allocator@D@2@@std@@V12@@std@@PEAX@1@@Z 00000001800a6130 f i spdlog:spdlog.obj
 0001:000a51c0       ??$_Free_non_head@V?$allocator@U?$_List_node@U?$pair@$$CBV?$basic_string@DU?$char_traits@D@std@@V?$allocator@D@2@@std@@V?$shared_ptr@Vlogger@spdlog@@@2@@std@@PEAX@std@@@std@@@?$_List_node@U?$pair@$$CBV?$basic_string@DU?$char_traits@D@std@@V?$allocator@D@2@@std@@V?$shared_ptr@Vlogger@spdlog@@@2@@std@@PEAX@std@@SAXAEAV?$allocator@U?$_List_node@U?$pair@$$CBV?$basic_string@DU?$char_traits@D@std@@V?$allocator@D@2@@std@@V?$shared_ptr@Vlogger@spdlog@@@2@@std@@PEAX@std@@@1@PEAU01@@Z 00000001800a61c0 f i spdlog:spdlog.obj
 0001:000a5260       ??$_Try_emplace@AEBD$$V@?$_Hash@V?$_Umap_traits@DV?$unique_ptr@Vcustom_flag_formatter@spdlog@@U?$default_delete@Vcustom_flag_formatter@spdlog@@@std@@@std@@V?$_Uhash_compare@DU?$hash@D@std@@U?$equal_to@D@2@@2@V?$allocator@U?$pair@$$CBDV?$unique_ptr@Vcustom_flag_formatter@spdlog@@U?$default_delete@Vcustom_flag_formatter@spdlog@@@std@@@std@@@std@@@2@$0A@@std@@@std@@IEAA?AU?$pair@PEAU?$_List_node@U?$pair@$$CBDV?$unique_ptr@Vcustom_flag_formatter@spdlog@@U?$default_delete@Vcustom_flag_formatter@spdlog@@@std@@@std@@@std@@PEAX@std@@_N@1@AEBD@Z 00000001800a6260 f i spdlog:spdlog.obj
 0001:000a54d0       ??$_Try_emplace@AEBV?$basic_string@DU?$char_traits@D@std@@V?$allocator@D@2@@std@@$$V@?$_Hash@V?$_Umap_traits@V?$basic_string@DU?$char_traits@D@std@@V?$allocator@D@2@@std@@V?$shared_ptr@Vlogger@spdlog@@@2@V?$_Uhash_compare@V?$basic_string@DU?$char_traits@D@std@@V?$allocator@D@2@@std@@U?$hash@V?$basic_string@DU?$char_traits@D@std@@V?$allocator@D@2@@std@@@2@U?$equal_to@V?$basic_string@DU?$char_traits@D@std@@V?$allocator@D@2@@std@@@2@@2@V?$allocator@U?$pair@$$CBV?$basic_string@DU?$char_traits@D@std@@V?$allocator@D@2@@std@@V?$shared_ptr@Vlogger@spdlog@@@2@@std@@@2@$0A@@std@@@std@@IEAA?AU?$pair@PEAU?$_List_node@U?$pair@$$CBV?$basic_string@DU?$char_traits@D@std@@V?$allocator@D@2@@std@@V?$shared_ptr@Vlogger@spdlog@@@2@@std@@PEAX@std@@_N@1@AEBV?$basic_string@DU?$char_traits@D@std@@V?$allocator@D@2@@1@@Z 00000001800a64d0 f i spdlog:spdlog.obj
 0001:000a5720       ??$_Try_emplace@V?$basic_string@DU?$char_traits@D@std@@V?$allocator@D@2@@std@@$$V@?$_Hash@V?$_Umap_traits@V?$basic_string@DU?$char_traits@D@std@@V?$allocator@D@2@@std@@V?$shared_ptr@Vlogger@spdlog@@@2@V?$_Uhash_compare@V?$basic_string@DU?$char_traits@D@std@@V?$allocator@D@2@@std@@U?$hash@V?$basic_string@DU?$char_traits@D@std@@V?$allocator@D@2@@std@@@2@U?$equal_to@V?$basic_string@DU?$char_traits@D@std@@V?$allocator@D@2@@std@@@2@@2@V?$allocator@U?$pair@$$CBV?$basic_string@DU?$char_traits@D@std@@V?$allocator@D@2@@std@@V?$shared_ptr@Vlogger@spdlog@@@2@@std@@@2@$0A@@std@@@std@@IEAA?AU?$pair@PEAU?$_List_node@U?$pair@$$CBV?$basic_string@DU?$char_traits@D@std@@V?$allocator@D@2@@std@@V?$shared_ptr@Vlogger@spdlog@@@2@@std@@PEAX@std@@_N@1@$$QEAV?$basic_string@DU?$char_traits@D@std@@V?$allocator@D@2@@1@@Z 00000001800a6720 f i spdlog:spdlog.obj
 0001:000a5990       ??$_Uninitialized_copy_n@PEAVlog_msg_buffer@details@spdlog@@V?$allocator@Vlog_msg_buffer@details@spdlog@@@std@@@std@@YAPEAVlog_msg_buffer@details@spdlog@@PEAV123@_K0AEAV?$allocator@Vlog_msg_buffer@details@spdlog@@@0@@Z 00000001800a6990 f i spdlog:spdlog.obj
 0001:000a5ab0       ??$append_int@H@fmt_helper@details@spdlog@@YAXHAEAV?$basic_memory_buffer@D$0PK@U?$allocator@D@detail@v11@fmt@@@v11@fmt@@@Z 00000001800a6ab0 f i spdlog:spdlog.obj
 0001:000a5b80       ??$append_int@I@fmt_helper@details@spdlog@@YAXIAEAV?$basic_memory_buffer@D$0PK@U?$allocator@D@detail@v11@fmt@@@v11@fmt@@@Z 00000001800a6b80 f i spdlog:spdlog.obj
 0001:000a5c30       ??$append_int@_J@fmt_helper@details@spdlog@@YAX_JAEAV?$basic_memory_buffer@D$0PK@U?$allocator@D@detail@v11@fmt@@@v11@fmt@@@Z 00000001800a6c30 f i spdlog:spdlog.obj
 0001:000a5d40       ??$append_int@_K@fmt_helper@details@spdlog@@YAX_KAEAV?$basic_memory_buffer@D$0PK@U?$allocator@D@detail@v11@fmt@@@v11@fmt@@@Z 00000001800a6d40 f i spdlog:spdlog.obj
 0001:000a5e10       ??$handle_flag_@Unull_scoped_padder@details@spdlog@@@pattern_formatter@spdlog@@AEAAXDUpadding_info@details@1@@Z 00000001800a6e10 f i spdlog:spdlog.obj
 0001:000a7260       ??$handle_flag_@Vscoped_padder@details@spdlog@@@pattern_formatter@spdlog@@AEAAXDUpadding_info@details@1@@Z 00000001800a8260 f i spdlog:spdlog.obj
 0001:000a86b0       ??$make_unique@V?$a_formatter@Unull_scoped_padder@details@spdlog@@@details@spdlog@@AEAUpadding_info@23@$0A@@std@@YA?AV?$unique_ptr@V?$a_formatter@Unull_scoped_padder@details@spdlog@@@details@spdlog@@U?$default_delete@V?$a_formatter@Unull_scoped_padder@details@spdlog@@@details@spdlog@@@std@@@0@AEAUpadding_info@details@spdlog@@@Z 00000001800a96b0 f i spdlog:spdlog.obj
 0001:000a8710       ??$make_unique@V?$a_formatter@Vscoped_padder@details@spdlog@@@details@spdlog@@AEAUpadding_info@23@$0A@@std@@YA?AV?$unique_ptr@V?$a_formatter@Vscoped_padder@details@spdlog@@@details@spdlog@@U?$default_delete@V?$a_formatter@Vscoped_padder@details@spdlog@@@details@spdlog@@@std@@@0@AEAUpadding_info@details@spdlog@@@Z 00000001800a9710 f i spdlog:spdlog.obj
 0001:000a8770       ??$make_unique@V?$elapsed_formatter@Unull_scoped_padder@details@spdlog@@V?$duration@_JU?$ratio@$00$00@std@@@chrono@std@@@details@spdlog@@AEAUpadding_info@23@$0A@@std@@YA?AV?$unique_ptr@V?$elapsed_formatter@Unull_scoped_padder@details@spdlog@@V?$duration@_JU?$ratio@$00$00@std@@@chrono@std@@@details@spdlog@@U?$default_delete@V?$elapsed_formatter@Unull_scoped_padder@details@spdlog@@V?$duration@_JU?$ratio@$00$00@std@@@chrono@std@@@details@spdlog@@@std@@@0@AEAUpadding_info@details@spdlog@@@Z 00000001800a9770 f i spdlog:spdlog.obj
 0001:000a87f0       ??$make_unique@V?$elapsed_formatter@Unull_scoped_padder@details@spdlog@@V?$duration@_JU?$ratio@$00$0DOI@@std@@@chrono@std@@@details@spdlog@@AEAUpadding_info@23@$0A@@std@@YA?AV?$unique_ptr@V?$elapsed_formatter@Unull_scoped_padder@details@spdlog@@V?$duration@_JU?$ratio@$00$0DOI@@std@@@chrono@std@@@details@spdlog@@U?$default_delete@V?$elapsed_formatter@Unull_scoped_padder@details@spdlog@@V?$duration@_JU?$ratio@$00$0DOI@@std@@@chrono@std@@@details@spdlog@@@std@@@0@AEAUpadding_info@details@spdlog@@@Z 00000001800a97f0 f i spdlog:spdlog.obj
 0001:000a8870       ??$make_unique@V?$elapsed_formatter@Unull_scoped_padder@details@spdlog@@V?$duration@_JU?$ratio@$00$0PECEA@@std@@@chrono@std@@@details@spdlog@@AEAUpadding_info@23@$0A@@std@@YA?AV?$unique_ptr@V?$elapsed_formatter@Unull_scoped_padder@details@spdlog@@V?$duration@_JU?$ratio@$00$0PECEA@@std@@@chrono@std@@@details@spdlog@@U?$default_delete@V?$elapsed_formatter@Unull_scoped_padder@details@spdlog@@V?$duration@_JU?$ratio@$00$0PECEA@@std@@@chrono@std@@@details@spdlog@@@std@@@0@AEAUpadding_info@details@spdlog@@@Z 00000001800a9870 f i spdlog:spdlog.obj
 0001:000a88f0       ??$make_unique@V?$elapsed_formatter@Vscoped_padder@details@spdlog@@V?$duration@_JU?$ratio@$00$00@std@@@chrono@std@@@details@spdlog@@AEAUpadding_info@23@$0A@@std@@YA?AV?$unique_ptr@V?$elapsed_formatter@Vscoped_padder@details@spdlog@@V?$duration@_JU?$ratio@$00$00@std@@@chrono@std@@@details@spdlog@@U?$default_delete@V?$elapsed_formatter@Vscoped_padder@details@spdlog@@V?$duration@_JU?$ratio@$00$00@std@@@chrono@std@@@details@spdlog@@@std@@@0@AEAUpadding_info@details@spdlog@@@Z 00000001800a98f0 f i spdlog:spdlog.obj
 0001:000a8970       ??$make_unique@V?$elapsed_formatter@Vscoped_padder@details@spdlog@@V?$duration@_JU?$ratio@$00$0DOI@@std@@@chrono@std@@@details@spdlog@@AEAUpadding_info@23@$0A@@std@@YA?AV?$unique_ptr@V?$elapsed_formatter@Vscoped_padder@details@spdlog@@V?$duration@_JU?$ratio@$00$0DOI@@std@@@chrono@std@@@details@spdlog@@U?$default_delete@V?$elapsed_formatter@Vscoped_padder@details@spdlog@@V?$duration@_JU?$ratio@$00$0DOI@@std@@@chrono@std@@@details@spdlog@@@std@@@0@AEAUpadding_info@details@spdlog@@@Z 00000001800a9970 f i spdlog:spdlog.obj
 0001:000a89f0       ??$make_unique@V?$elapsed_formatter@Vscoped_padder@details@spdlog@@V?$duration@_JU?$ratio@$00$0PECEA@@std@@@chrono@std@@@details@spdlog@@AEAUpadding_info@23@$0A@@std@@YA?AV?$unique_ptr@V?$elapsed_formatter@Vscoped_padder@details@spdlog@@V?$duration@_JU?$ratio@$00$0PECEA@@std@@@chrono@std@@@details@spdlog@@U?$default_delete@V?$elapsed_formatter@Vscoped_padder@details@spdlog@@V?$duration@_JU?$ratio@$00$0PECEA@@std@@@chrono@std@@@details@spdlog@@@std@@@0@AEAUpadding_info@details@spdlog@@@Z 00000001800a99f0 f i spdlog:spdlog.obj
 0001:000a8a70       ??$make_unique@V?$level_formatter@Unull_scoped_padder@details@spdlog@@@details@spdlog@@AEAUpadding_info@23@$0A@@std@@YA?AV?$unique_ptr@V?$level_formatter@Unull_scoped_padder@details@spdlog@@@details@spdlog@@U?$default_delete@V?$level_formatter@Unull_scoped_padder@details@spdlog@@@details@spdlog@@@std@@@0@AEAUpadding_info@details@spdlog@@@Z 00000001800a9a70 f i spdlog:spdlog.obj
 0001:000a8ad0       ??$make_unique@V?$level_formatter@Vscoped_padder@details@spdlog@@@details@spdlog@@AEAUpadding_info@23@$0A@@std@@YA?AV?$unique_ptr@V?$level_formatter@Vscoped_padder@details@spdlog@@@details@spdlog@@U?$default_delete@V?$level_formatter@Vscoped_padder@details@spdlog@@@details@spdlog@@@std@@@0@AEAUpadding_info@details@spdlog@@@Z 00000001800a9ad0 f i spdlog:spdlog.obj
 0001:000a8b30       ??$make_unique@V?$mdc_formatter@Unull_scoped_padder@details@spdlog@@@details@spdlog@@AEAUpadding_info@23@$0A@@std@@YA?AV?$unique_ptr@V?$mdc_formatter@Unull_scoped_padder@details@spdlog@@@details@spdlog@@U?$default_delete@V?$mdc_formatter@Unull_scoped_padder@details@spdlog@@@details@spdlog@@@std@@@0@AEAUpadding_info@details@spdlog@@@Z 00000001800a9b30 f i spdlog:spdlog.obj
 0001:000a8b90       ??$make_unique@V?$mdc_formatter@Vscoped_padder@details@spdlog@@@details@spdlog@@AEAUpadding_info@23@$0A@@std@@YA?AV?$unique_ptr@V?$mdc_formatter@Vscoped_padder@details@spdlog@@@details@spdlog@@U?$default_delete@V?$mdc_formatter@Vscoped_padder@details@spdlog@@@details@spdlog@@@std@@@0@AEAUpadding_info@details@spdlog@@@Z 00000001800a9b90 f i spdlog:spdlog.obj
 0001:000a8bf0       ??$make_unique@V?$short_level_formatter@Unull_scoped_padder@details@spdlog@@@details@spdlog@@AEAUpadding_info@23@$0A@@std@@YA?AV?$unique_ptr@V?$short_level_formatter@Unull_scoped_padder@details@spdlog@@@details@spdlog@@U?$default_delete@V?$short_level_formatter@Unull_scoped_padder@details@spdlog@@@details@spdlog@@@std@@@0@AEAUpadding_info@details@spdlog@@@Z 00000001800a9bf0 f i spdlog:spdlog.obj
 0001:000a8c50       ??$make_unique@V?$short_level_formatter@Vscoped_padder@details@spdlog@@@details@spdlog@@AEAUpadding_info@23@$0A@@std@@YA?AV?$unique_ptr@V?$short_level_formatter@Vscoped_padder@details@spdlog@@@details@spdlog@@U?$default_delete@V?$short_level_formatter@Vscoped_padder@details@spdlog@@@details@spdlog@@@std@@@0@AEAUpadding_info@details@spdlog@@@Z 00000001800a9c50 f i spdlog:spdlog.obj
 0001:000a8cb0       ??$make_unique@V?$source_funcname_formatter@Unull_scoped_padder@details@spdlog@@@details@spdlog@@AEAUpadding_info@23@$0A@@std@@YA?AV?$unique_ptr@V?$source_funcname_formatter@Unull_scoped_padder@details@spdlog@@@details@spdlog@@U?$default_delete@V?$source_funcname_formatter@Unull_scoped_padder@details@spdlog@@@details@spdlog@@@std@@@0@AEAUpadding_info@details@spdlog@@@Z 00000001800a9cb0 f i spdlog:spdlog.obj
 0001:000a8d10       ??$make_unique@V?$source_funcname_formatter@Vscoped_padder@details@spdlog@@@details@spdlog@@AEAUpadding_info@23@$0A@@std@@YA?AV?$unique_ptr@V?$source_funcname_formatter@Vscoped_padder@details@spdlog@@@details@spdlog@@U?$default_delete@V?$source_funcname_formatter@Vscoped_padder@details@spdlog@@@details@spdlog@@@std@@@0@AEAUpadding_info@details@spdlog@@@Z 00000001800a9d10 f i spdlog:spdlog.obj
 0001:000a8d70       ??$make_unique@V?$t_formatter@Unull_scoped_padder@details@spdlog@@@details@spdlog@@AEAUpadding_info@23@$0A@@std@@YA?AV?$unique_ptr@V?$t_formatter@Unull_scoped_padder@details@spdlog@@@details@spdlog@@U?$default_delete@V?$t_formatter@Unull_scoped_padder@details@spdlog@@@details@spdlog@@@std@@@0@AEAUpadding_info@details@spdlog@@@Z 00000001800a9d70 f i spdlog:spdlog.obj
 0001:000a8dd0       ??$make_unique@V?$t_formatter@Vscoped_padder@details@spdlog@@@details@spdlog@@AEAUpadding_info@23@$0A@@std@@YA?AV?$unique_ptr@V?$t_formatter@Vscoped_padder@details@spdlog@@@details@spdlog@@U?$default_delete@V?$t_formatter@Vscoped_padder@details@spdlog@@@details@spdlog@@@std@@@0@AEAUpadding_info@details@spdlog@@@Z 00000001800a9dd0 f i spdlog:spdlog.obj
 0001:000a8e30       ??$make_unique@V?$v_formatter@Unull_scoped_padder@details@spdlog@@@details@spdlog@@AEAUpadding_info@23@$0A@@std@@YA?AV?$unique_ptr@V?$v_formatter@Unull_scoped_padder@details@spdlog@@@details@spdlog@@U?$default_delete@V?$v_formatter@Unull_scoped_padder@details@spdlog@@@details@spdlog@@@std@@@0@AEAUpadding_info@details@spdlog@@@Z 00000001800a9e30 f i spdlog:spdlog.obj
 0001:000a8e90       ??$make_unique@V?$v_formatter@Vscoped_padder@details@spdlog@@@details@spdlog@@AEAUpadding_info@23@$0A@@std@@YA?AV?$unique_ptr@V?$v_formatter@Vscoped_padder@details@spdlog@@@details@spdlog@@U?$default_delete@V?$v_formatter@Vscoped_padder@details@spdlog@@@details@spdlog@@@std@@@0@AEAUpadding_info@details@spdlog@@@Z 00000001800a9e90 f i spdlog:spdlog.obj
 0001:000a8ef0       ??$make_unique@Vch_formatter@details@spdlog@@D$0A@@std@@YA?AV?$unique_ptr@Vch_formatter@details@spdlog@@U?$default_delete@Vch_formatter@details@spdlog@@@std@@@0@$$QEAD@Z 00000001800a9ef0 f i spdlog:spdlog.obj
 0001:000a8f70       ??$make_unique@Vcolor_start_formatter@details@spdlog@@AEAUpadding_info@23@$0A@@std@@YA?AV?$unique_ptr@Vcolor_start_formatter@details@spdlog@@U?$default_delete@Vcolor_start_formatter@details@spdlog@@@std@@@0@AEAUpadding_info@details@spdlog@@@Z 00000001800a9f70 f i spdlog:spdlog.obj
 0001:000a8fd0       ??$make_unique@Vcolor_stop_formatter@details@spdlog@@AEAUpadding_info@23@$0A@@std@@YA?AV?$unique_ptr@Vcolor_stop_formatter@details@spdlog@@U?$default_delete@Vcolor_stop_formatter@details@spdlog@@@std@@@0@AEAUpadding_info@details@spdlog@@@Z 00000001800a9fd0 f i spdlog:spdlog.obj
 0001:000a9030       ??$make_unique@Vfull_formatter@details@spdlog@@AEAUpadding_info@23@$0A@@std@@YA?AV?$unique_ptr@Vfull_formatter@details@spdlog@@U?$default_delete@Vfull_formatter@details@spdlog@@@std@@@0@AEAUpadding_info@details@spdlog@@@Z 00000001800aa030 f i spdlog:spdlog.obj
 0001:000a90f0       ??$make_unique@Vpattern_formatter@spdlog@@AEBV?$basic_string@DU?$char_traits@D@std@@V?$allocator@D@2@@std@@$0A@@std@@YA?AV?$unique_ptr@Vpattern_formatter@spdlog@@U?$default_delete@Vpattern_formatter@spdlog@@@std@@@0@AEBV?$basic_string@DU?$char_traits@D@std@@V?$allocator@D@2@@0@@Z 00000001800aa0f0 f i spdlog:spdlog.obj
 0001:000a91c0       ??$pad3@I@fmt_helper@details@spdlog@@YAXIAEAV?$basic_memory_buffer@D$0PK@U?$allocator@D@detail@v11@fmt@@@v11@fmt@@@Z 00000001800aa1c0 f i spdlog:spdlog.obj
 0001:000a92d0       ??$pad_uint@_K@fmt_helper@details@spdlog@@YAX_KIAEAV?$basic_memory_buffer@D$0PK@U?$allocator@D@detail@v11@fmt@@@v11@fmt@@@Z 00000001800aa2d0 f i spdlog:spdlog.obj
 0001:000a9370       ??0?$base_sink@Vmutex@std@@@sinks@spdlog@@QEAA@XZ 00000001800aa370 f i spdlog:spdlog.obj
 0001:000a9420       ??0?$unordered_map@DV?$unique_ptr@Vcustom_flag_formatter@spdlog@@U?$default_delete@Vcustom_flag_formatter@spdlog@@@std@@@std@@U?$hash@D@2@U?$equal_to@D@2@V?$allocator@U?$pair@$$CBDV?$unique_ptr@Vcustom_flag_formatter@spdlog@@U?$default_delete@Vcustom_flag_formatter@spdlog@@@std@@@std@@@std@@@2@@std@@QEAA@$$QEAV01@@Z 00000001800aa420 f i spdlog:spdlog.obj
 0001:000a9550       ??0?$unordered_map@DV?$unique_ptr@Vcustom_flag_formatter@spdlog@@U?$default_delete@Vcustom_flag_formatter@spdlog@@@std@@@std@@U?$hash@D@2@U?$equal_to@D@2@V?$allocator@U?$pair@$$CBDV?$unique_ptr@Vcustom_flag_formatter@spdlog@@U?$default_delete@Vcustom_flag_formatter@spdlog@@@std@@@std@@@std@@@2@@std@@QEAA@XZ 00000001800aa550 f i spdlog:spdlog.obj
 0001:000a9650       ??0log_msg@details@spdlog@@QEAA@Usource_loc@2@V?$basic_string_view@D@v11@fmt@@W4level_enum@level@2@1@Z 00000001800aa650 f   spdlog:spdlog.obj
 0001:000a9710       ??0logger@spdlog@@QEAA@AEBV01@@Z 00000001800aa710 f   spdlog:spdlog.obj
 0001:000a9940       ??0pattern_formatter@spdlog@@QEAA@V?$basic_string@DU?$char_traits@D@std@@V?$allocator@D@2@@std@@W4pattern_time_type@1@0V?$unordered_map@DV?$unique_ptr@Vcustom_flag_formatter@spdlog@@U?$default_delete@Vcustom_flag_formatter@spdlog@@@std@@@std@@U?$hash@D@2@U?$equal_to@D@2@V?$allocator@U?$pair@$$CBDV?$unique_ptr@Vcustom_flag_formatter@spdlog@@U?$default_delete@Vcustom_flag_formatter@spdlog@@@std@@@std@@@std@@@2@@3@@Z 00000001800aa940 f   spdlog:spdlog.obj
 0001:000a9b30       ??0pattern_formatter@spdlog@@QEAA@W4pattern_time_type@1@V?$basic_string@DU?$char_traits@D@std@@V?$allocator@D@2@@std@@@Z 00000001800aab30 f   spdlog:spdlog.obj
 0001:000a9d30       ??0registry@details@spdlog@@AEAA@XZ 00000001800aad30 f   spdlog:spdlog.obj
 0001:000aa2b0       ??0spdlog_ex@spdlog@@QEAA@AEBV01@@Z 00000001800ab2b0 f i spdlog:spdlog.obj
 0001:000aa310       ??0spdlog_ex@spdlog@@QEAA@AEBV?$basic_string@DU?$char_traits@D@std@@V?$allocator@D@2@@std@@H@Z 00000001800ab310 f   spdlog:spdlog.obj
 0001:000aa4c0       ??0spdlog_ex@spdlog@@QEAA@V?$basic_string@DU?$char_traits@D@std@@V?$allocator@D@2@@std@@@Z 00000001800ab4c0 f   spdlog:spdlog.obj
 0001:000aa510       ??1?$_Alloc_construct_ptr@V?$allocator@U?$_List_node@U?$pair@$$CBV?$basic_string@DU?$char_traits@D@std@@V?$allocator@D@2@@std@@V?$shared_ptr@Vlogger@spdlog@@@2@@std@@PEAX@std@@@std@@@std@@QEAA@XZ 00000001800ab510 f i spdlog:spdlog.obj
 0001:000aa530       ??1?$_List_node_emplace_op2@V?$allocator@U?$_List_node@U?$pair@$$CBDV?$unique_ptr@Vcustom_flag_formatter@spdlog@@U?$default_delete@Vcustom_flag_formatter@spdlog@@@std@@@std@@@std@@PEAX@std@@@std@@@std@@QEAA@XZ 00000001800ab530 f i spdlog:spdlog.obj
 0001:000aa580       ??1?$_List_node_emplace_op2@V?$allocator@U?$_List_node@U?$pair@$$CBV?$basic_string@DU?$char_traits@D@std@@V?$allocator@D@2@@std@@V?$shared_ptr@Vlogger@spdlog@@@2@@std@@PEAX@std@@@std@@@std@@QEAA@XZ 00000001800ab580 f i spdlog:spdlog.obj
 0001:000aa620       ??1?$_Uninitialized_backout_al@V?$allocator@Vlog_msg_buffer@details@spdlog@@@std@@@std@@QEAA@XZ 00000001800ab620 f i spdlog:spdlog.obj
 0001:000aa670       ??1?$list@U?$pair@$$CBDV?$unique_ptr@Vcustom_flag_formatter@spdlog@@U?$default_delete@Vcustom_flag_formatter@spdlog@@@std@@@std@@@std@@V?$allocator@U?$pair@$$CBDV?$unique_ptr@Vcustom_flag_formatter@spdlog@@U?$default_delete@Vcustom_flag_formatter@spdlog@@@std@@@std@@@std@@@2@@std@@QEAA@XZ 00000001800ab670 f i spdlog:spdlog.obj
 0001:000aa6f0       ??1?$list@U?$pair@$$CBV?$basic_string@DU?$char_traits@D@std@@V?$allocator@D@2@@std@@V?$shared_ptr@Vlogger@spdlog@@@2@@std@@V?$allocator@U?$pair@$$CBV?$basic_string@DU?$char_traits@D@std@@V?$allocator@D@2@@std@@V?$shared_ptr@Vlogger@spdlog@@@2@@std@@@2@@std@@QEAA@XZ 00000001800ab6f0 f i spdlog:spdlog.obj
 0001:000aa720       ??1?$unique_ptr@V?$B_formatter@Unull_scoped_padder@details@spdlog@@@details@spdlog@@U?$default_delete@V?$B_formatter@Unull_scoped_padder@details@spdlog@@@details@spdlog@@@std@@@std@@QEAA@XZ 00000001800ab720 f i spdlog:spdlog.obj
 0001:000aa720       ??1?$unique_ptr@V?$B_formatter@Vscoped_padder@details@spdlog@@@details@spdlog@@U?$default_delete@V?$B_formatter@Vscoped_padder@details@spdlog@@@details@spdlog@@@std@@@std@@QEAA@XZ 00000001800ab720 f i spdlog:spdlog.obj
 0001:000aa720       ??1?$unique_ptr@V?$C_formatter@Unull_scoped_padder@details@spdlog@@@details@spdlog@@U?$default_delete@V?$C_formatter@Unull_scoped_padder@details@spdlog@@@details@spdlog@@@std@@@std@@QEAA@XZ 00000001800ab720 f i spdlog:spdlog.obj
 0001:000aa720       ??1?$unique_ptr@V?$C_formatter@Vscoped_padder@details@spdlog@@@details@spdlog@@U?$default_delete@V?$C_formatter@Vscoped_padder@details@spdlog@@@details@spdlog@@@std@@@std@@QEAA@XZ 00000001800ab720 f i spdlog:spdlog.obj
 0001:000aa720       ??1?$unique_ptr@V?$D_formatter@Unull_scoped_padder@details@spdlog@@@details@spdlog@@U?$default_delete@V?$D_formatter@Unull_scoped_padder@details@spdlog@@@details@spdlog@@@std@@@std@@QEAA@XZ 00000001800ab720 f i spdlog:spdlog.obj
 0001:000aa720       ??1?$unique_ptr@V?$D_formatter@Vscoped_padder@details@spdlog@@@details@spdlog@@U?$default_delete@V?$D_formatter@Vscoped_padder@details@spdlog@@@details@spdlog@@@std@@@std@@QEAA@XZ 00000001800ab720 f i spdlog:spdlog.obj
 0001:000aa720       ??1?$unique_ptr@V?$E_formatter@Unull_scoped_padder@details@spdlog@@@details@spdlog@@U?$default_delete@V?$E_formatter@Unull_scoped_padder@details@spdlog@@@details@spdlog@@@std@@@std@@QEAA@XZ 00000001800ab720 f i spdlog:spdlog.obj
 0001:000aa720       ??1?$unique_ptr@V?$E_formatter@Vscoped_padder@details@spdlog@@@details@spdlog@@U?$default_delete@V?$E_formatter@Vscoped_padder@details@spdlog@@@details@spdlog@@@std@@@std@@QEAA@XZ 00000001800ab720 f i spdlog:spdlog.obj
 0001:000aa720       ??1?$unique_ptr@V?$F_formatter@Unull_scoped_padder@details@spdlog@@@details@spdlog@@U?$default_delete@V?$F_formatter@Unull_scoped_padder@details@spdlog@@@details@spdlog@@@std@@@std@@QEAA@XZ 00000001800ab720 f i spdlog:spdlog.obj
 0001:000aa720       ??1?$unique_ptr@V?$F_formatter@Vscoped_padder@details@spdlog@@@details@spdlog@@U?$default_delete@V?$F_formatter@Vscoped_padder@details@spdlog@@@details@spdlog@@@std@@@std@@QEAA@XZ 00000001800ab720 f i spdlog:spdlog.obj
 0001:000aa720       ??1?$unique_ptr@V?$H_formatter@Unull_scoped_padder@details@spdlog@@@details@spdlog@@U?$default_delete@V?$H_formatter@Unull_scoped_padder@details@spdlog@@@details@spdlog@@@std@@@std@@QEAA@XZ 00000001800ab720 f i spdlog:spdlog.obj
 0001:000aa720       ??1?$unique_ptr@V?$H_formatter@Vscoped_padder@details@spdlog@@@details@spdlog@@U?$default_delete@V?$H_formatter@Vscoped_padder@details@spdlog@@@details@spdlog@@@std@@@std@@QEAA@XZ 00000001800ab720 f i spdlog:spdlog.obj
 0001:000aa720       ??1?$unique_ptr@V?$I_formatter@Unull_scoped_padder@details@spdlog@@@details@spdlog@@U?$default_delete@V?$I_formatter@Unull_scoped_padder@details@spdlog@@@details@spdlog@@@std@@@std@@QEAA@XZ 00000001800ab720 f i spdlog:spdlog.obj
 0001:000aa720       ??1?$unique_ptr@V?$I_formatter@Vscoped_padder@details@spdlog@@@details@spdlog@@U?$default_delete@V?$I_formatter@Vscoped_padder@details@spdlog@@@details@spdlog@@@std@@@std@@QEAA@XZ 00000001800ab720 f i spdlog:spdlog.obj
 0001:000aa720       ??1?$unique_ptr@V?$M_formatter@Unull_scoped_padder@details@spdlog@@@details@spdlog@@U?$default_delete@V?$M_formatter@Unull_scoped_padder@details@spdlog@@@details@spdlog@@@std@@@std@@QEAA@XZ 00000001800ab720 f i spdlog:spdlog.obj
 0001:000aa720       ??1?$unique_ptr@V?$M_formatter@Vscoped_padder@details@spdlog@@@details@spdlog@@U?$default_delete@V?$M_formatter@Vscoped_padder@details@spdlog@@@details@spdlog@@@std@@@std@@QEAA@XZ 00000001800ab720 f i spdlog:spdlog.obj
 0001:000aa720       ??1?$unique_ptr@V?$R_formatter@Unull_scoped_padder@details@spdlog@@@details@spdlog@@U?$default_delete@V?$R_formatter@Unull_scoped_padder@details@spdlog@@@details@spdlog@@@std@@@std@@QEAA@XZ 00000001800ab720 f i spdlog:spdlog.obj
 0001:000aa720       ??1?$unique_ptr@V?$R_formatter@Vscoped_padder@details@spdlog@@@details@spdlog@@U?$default_delete@V?$R_formatter@Vscoped_padder@details@spdlog@@@details@spdlog@@@std@@@std@@QEAA@XZ 00000001800ab720 f i spdlog:spdlog.obj
 0001:000aa720       ??1?$unique_ptr@V?$S_formatter@Unull_scoped_padder@details@spdlog@@@details@spdlog@@U?$default_delete@V?$S_formatter@Unull_scoped_padder@details@spdlog@@@details@spdlog@@@std@@@std@@QEAA@XZ 00000001800ab720 f i spdlog:spdlog.obj
 0001:000aa720       ??1?$unique_ptr@V?$S_formatter@Vscoped_padder@details@spdlog@@@details@spdlog@@U?$default_delete@V?$S_formatter@Vscoped_padder@details@spdlog@@@details@spdlog@@@std@@@std@@QEAA@XZ 00000001800ab720 f i spdlog:spdlog.obj
 0001:000aa720       ??1?$unique_ptr@V?$T_formatter@Unull_scoped_padder@details@spdlog@@@details@spdlog@@U?$default_delete@V?$T_formatter@Unull_scoped_padder@details@spdlog@@@details@spdlog@@@std@@@std@@QEAA@XZ 00000001800ab720 f i spdlog:spdlog.obj
 0001:000aa720       ??1?$unique_ptr@V?$T_formatter@Vscoped_padder@details@spdlog@@@details@spdlog@@U?$default_delete@V?$T_formatter@Vscoped_padder@details@spdlog@@@details@spdlog@@@std@@@std@@QEAA@XZ 00000001800ab720 f i spdlog:spdlog.obj
 0001:000aa720       ??1?$unique_ptr@V?$Y_formatter@Unull_scoped_padder@details@spdlog@@@details@spdlog@@U?$default_delete@V?$Y_formatter@Unull_scoped_padder@details@spdlog@@@details@spdlog@@@std@@@std@@QEAA@XZ 00000001800ab720 f i spdlog:spdlog.obj
 0001:000aa720       ??1?$unique_ptr@V?$Y_formatter@Vscoped_padder@details@spdlog@@@details@spdlog@@U?$default_delete@V?$Y_formatter@Vscoped_padder@details@spdlog@@@details@spdlog@@@std@@@std@@QEAA@XZ 00000001800ab720 f i spdlog:spdlog.obj
 0001:000aa720       ??1?$unique_ptr@V?$a_formatter@Unull_scoped_padder@details@spdlog@@@details@spdlog@@U?$default_delete@V?$a_formatter@Unull_scoped_padder@details@spdlog@@@details@spdlog@@@std@@@std@@QEAA@XZ 00000001800ab720 f i spdlog:spdlog.obj
 0001:000aa720       ??1?$unique_ptr@V?$a_formatter@Vscoped_padder@details@spdlog@@@details@spdlog@@U?$default_delete@V?$a_formatter@Vscoped_padder@details@spdlog@@@details@spdlog@@@std@@@std@@QEAA@XZ 00000001800ab720 f i spdlog:spdlog.obj
 0001:000aa720       ??1?$unique_ptr@V?$b_formatter@Unull_scoped_padder@details@spdlog@@@details@spdlog@@U?$default_delete@V?$b_formatter@Unull_scoped_padder@details@spdlog@@@details@spdlog@@@std@@@std@@QEAA@XZ 00000001800ab720 f i spdlog:spdlog.obj
 0001:000aa720       ??1?$unique_ptr@V?$b_formatter@Vscoped_padder@details@spdlog@@@details@spdlog@@U?$default_delete@V?$b_formatter@Vscoped_padder@details@spdlog@@@details@spdlog@@@std@@@std@@QEAA@XZ 00000001800ab720 f i spdlog:spdlog.obj
 0001:000aa720       ??1?$unique_ptr@V?$c_formatter@Unull_scoped_padder@details@spdlog@@@details@spdlog@@U?$default_delete@V?$c_formatter@Unull_scoped_padder@details@spdlog@@@details@spdlog@@@std@@@std@@QEAA@XZ 00000001800ab720 f i spdlog:spdlog.obj
 0001:000aa720       ??1?$unique_ptr@V?$c_formatter@Vscoped_padder@details@spdlog@@@details@spdlog@@U?$default_delete@V?$c_formatter@Vscoped_padder@details@spdlog@@@details@spdlog@@@std@@@std@@QEAA@XZ 00000001800ab720 f i spdlog:spdlog.obj
 0001:000aa720       ??1?$unique_ptr@V?$d_formatter@Unull_scoped_padder@details@spdlog@@@details@spdlog@@U?$default_delete@V?$d_formatter@Unull_scoped_padder@details@spdlog@@@details@spdlog@@@std@@@std@@QEAA@XZ 00000001800ab720 f i spdlog:spdlog.obj
 0001:000aa720       ??1?$unique_ptr@V?$d_formatter@Vscoped_padder@details@spdlog@@@details@spdlog@@U?$default_delete@V?$d_formatter@Vscoped_padder@details@spdlog@@@details@spdlog@@@std@@@std@@QEAA@XZ 00000001800ab720 f i spdlog:spdlog.obj
 0001:000aa720       ??1?$unique_ptr@V?$e_formatter@Unull_scoped_padder@details@spdlog@@@details@spdlog@@U?$default_delete@V?$e_formatter@Unull_scoped_padder@details@spdlog@@@details@spdlog@@@std@@@std@@QEAA@XZ 00000001800ab720 f i spdlog:spdlog.obj
 0001:000aa720       ??1?$unique_ptr@V?$e_formatter@Vscoped_padder@details@spdlog@@@details@spdlog@@U?$default_delete@V?$e_formatter@Vscoped_padder@details@spdlog@@@details@spdlog@@@std@@@std@@QEAA@XZ 00000001800ab720 f i spdlog:spdlog.obj
 0001:000aa720       ??1?$unique_ptr@V?$f_formatter@Unull_scoped_padder@details@spdlog@@@details@spdlog@@U?$default_delete@V?$f_formatter@Unull_scoped_padder@details@spdlog@@@details@spdlog@@@std@@@std@@QEAA@XZ 00000001800ab720 f i spdlog:spdlog.obj
 0001:000aa720       ??1?$unique_ptr@V?$f_formatter@Vscoped_padder@details@spdlog@@@details@spdlog@@U?$default_delete@V?$f_formatter@Vscoped_padder@details@spdlog@@@details@spdlog@@@std@@@std@@QEAA@XZ 00000001800ab720 f i spdlog:spdlog.obj
 0001:000aa720       ??1?$unique_ptr@V?$level_formatter@Unull_scoped_padder@details@spdlog@@@details@spdlog@@U?$default_delete@V?$level_formatter@Unull_scoped_padder@details@spdlog@@@details@spdlog@@@std@@@std@@QEAA@XZ 00000001800ab720 f i spdlog:spdlog.obj
 0001:000aa720       ??1?$unique_ptr@V?$level_formatter@Vscoped_padder@details@spdlog@@@details@spdlog@@U?$default_delete@V?$level_formatter@Vscoped_padder@details@spdlog@@@details@spdlog@@@std@@@std@@QEAA@XZ 00000001800ab720 f i spdlog:spdlog.obj
 0001:000aa720       ??1?$unique_ptr@V?$m_formatter@Unull_scoped_padder@details@spdlog@@@details@spdlog@@U?$default_delete@V?$m_formatter@Unull_scoped_padder@details@spdlog@@@details@spdlog@@@std@@@std@@QEAA@XZ 00000001800ab720 f i spdlog:spdlog.obj
 0001:000aa720       ??1?$unique_ptr@V?$m_formatter@Vscoped_padder@details@spdlog@@@details@spdlog@@U?$default_delete@V?$m_formatter@Vscoped_padder@details@spdlog@@@details@spdlog@@@std@@@std@@QEAA@XZ 00000001800ab720 f i spdlog:spdlog.obj
 0001:000aa720       ??1?$unique_ptr@V?$name_formatter@Unull_scoped_padder@details@spdlog@@@details@spdlog@@U?$default_delete@V?$name_formatter@Unull_scoped_padder@details@spdlog@@@details@spdlog@@@std@@@std@@QEAA@XZ 00000001800ab720 f i spdlog:spdlog.obj
 0001:000aa720       ??1?$unique_ptr@V?$name_formatter@Vscoped_padder@details@spdlog@@@details@spdlog@@U?$default_delete@V?$name_formatter@Vscoped_padder@details@spdlog@@@details@spdlog@@@std@@@std@@QEAA@XZ 00000001800ab720 f i spdlog:spdlog.obj
 0001:000aa720       ??1?$unique_ptr@V?$p_formatter@Unull_scoped_padder@details@spdlog@@@details@spdlog@@U?$default_delete@V?$p_formatter@Unull_scoped_padder@details@spdlog@@@details@spdlog@@@std@@@std@@QEAA@XZ 00000001800ab720 f i spdlog:spdlog.obj
 0001:000aa720       ??1?$unique_ptr@V?$p_formatter@Vscoped_padder@details@spdlog@@@details@spdlog@@U?$default_delete@V?$p_formatter@Vscoped_padder@details@spdlog@@@details@spdlog@@@std@@@std@@QEAA@XZ 00000001800ab720 f i spdlog:spdlog.obj
 0001:000aa720       ??1?$unique_ptr@V?$pid_formatter@Unull_scoped_padder@details@spdlog@@@details@spdlog@@U?$default_delete@V?$pid_formatter@Unull_scoped_padder@details@spdlog@@@details@spdlog@@@std@@@std@@QEAA@XZ 00000001800ab720 f i spdlog:spdlog.obj
 0001:000aa720       ??1?$unique_ptr@V?$pid_formatter@Vscoped_padder@details@spdlog@@@details@spdlog@@U?$default_delete@V?$pid_formatter@Vscoped_padder@details@spdlog@@@details@spdlog@@@std@@@std@@QEAA@XZ 00000001800ab720 f i spdlog:spdlog.obj
 0001:000aa720       ??1?$unique_ptr@V?$r_formatter@Unull_scoped_padder@details@spdlog@@@details@spdlog@@U?$default_delete@V?$r_formatter@Unull_scoped_padder@details@spdlog@@@details@spdlog@@@std@@@std@@QEAA@XZ 00000001800ab720 f i spdlog:spdlog.obj
 0001:000aa720       ??1?$unique_ptr@V?$r_formatter@Vscoped_padder@details@spdlog@@@details@spdlog@@U?$default_delete@V?$r_formatter@Vscoped_padder@details@spdlog@@@details@spdlog@@@std@@@std@@QEAA@XZ 00000001800ab720 f i spdlog:spdlog.obj
 0001:000aa720       ??1?$unique_ptr@V?$short_filename_formatter@Unull_scoped_padder@details@spdlog@@@details@spdlog@@U?$default_delete@V?$short_filename_formatter@Unull_scoped_padder@details@spdlog@@@details@spdlog@@@std@@@std@@QEAA@XZ 00000001800ab720 f i spdlog:spdlog.obj
 0001:000aa720       ??1?$unique_ptr@V?$short_filename_formatter@Vscoped_padder@details@spdlog@@@details@spdlog@@U?$default_delete@V?$short_filename_formatter@Vscoped_padder@details@spdlog@@@details@spdlog@@@std@@@std@@QEAA@XZ 00000001800ab720 f i spdlog:spdlog.obj
 0001:000aa720       ??1?$unique_ptr@V?$short_level_formatter@Unull_scoped_padder@details@spdlog@@@details@spdlog@@U?$default_delete@V?$short_level_formatter@Unull_scoped_padder@details@spdlog@@@details@spdlog@@@std@@@std@@QEAA@XZ 00000001800ab720 f i spdlog:spdlog.obj
 0001:000aa720       ??1?$unique_ptr@V?$short_level_formatter@Vscoped_padder@details@spdlog@@@details@spdlog@@U?$default_delete@V?$short_level_formatter@Vscoped_padder@details@spdlog@@@details@spdlog@@@std@@@std@@QEAA@XZ 00000001800ab720 f i spdlog:spdlog.obj
 0001:000aa720       ??1?$unique_ptr@V?$source_filename_formatter@Unull_scoped_padder@details@spdlog@@@details@spdlog@@U?$default_delete@V?$source_filename_formatter@Unull_scoped_padder@details@spdlog@@@details@spdlog@@@std@@@std@@QEAA@XZ 00000001800ab720 f i spdlog:spdlog.obj
 0001:000aa720       ??1?$unique_ptr@V?$source_filename_formatter@Vscoped_padder@details@spdlog@@@details@spdlog@@U?$default_delete@V?$source_filename_formatter@Vscoped_padder@details@spdlog@@@details@spdlog@@@std@@@std@@QEAA@XZ 00000001800ab720 f i spdlog:spdlog.obj
 0001:000aa720       ??1?$unique_ptr@V?$source_funcname_formatter@Unull_scoped_padder@details@spdlog@@@details@spdlog@@U?$default_delete@V?$source_funcname_formatter@Unull_scoped_padder@details@spdlog@@@details@spdlog@@@std@@@std@@QEAA@XZ 00000001800ab720 f i spdlog:spdlog.obj
 0001:000aa720       ??1?$unique_ptr@V?$source_funcname_formatter@Vscoped_padder@details@spdlog@@@details@spdlog@@U?$default_delete@V?$source_funcname_formatter@Vscoped_padder@details@spdlog@@@details@spdlog@@@std@@@std@@QEAA@XZ 00000001800ab720 f i spdlog:spdlog.obj
 0001:000aa720       ??1?$unique_ptr@V?$source_linenum_formatter@Unull_scoped_padder@details@spdlog@@@details@spdlog@@U?$default_delete@V?$source_linenum_formatter@Unull_scoped_padder@details@spdlog@@@details@spdlog@@@std@@@std@@QEAA@XZ 00000001800ab720 f i spdlog:spdlog.obj
 0001:000aa720       ??1?$unique_ptr@V?$source_linenum_formatter@Vscoped_padder@details@spdlog@@@details@spdlog@@U?$default_delete@V?$source_linenum_formatter@Vscoped_padder@details@spdlog@@@details@spdlog@@@std@@@std@@QEAA@XZ 00000001800ab720 f i spdlog:spdlog.obj
 0001:000aa720       ??1?$unique_ptr@V?$source_location_formatter@Unull_scoped_padder@details@spdlog@@@details@spdlog@@U?$default_delete@V?$source_location_formatter@Unull_scoped_padder@details@spdlog@@@details@spdlog@@@std@@@std@@QEAA@XZ 00000001800ab720 f i spdlog:spdlog.obj
 0001:000aa720       ??1?$unique_ptr@V?$source_location_formatter@Vscoped_padder@details@spdlog@@@details@spdlog@@U?$default_delete@V?$source_location_formatter@Vscoped_padder@details@spdlog@@@details@spdlog@@@std@@@std@@QEAA@XZ 00000001800ab720 f i spdlog:spdlog.obj
 0001:000aa720       ??1?$unique_ptr@V?$t_formatter@Unull_scoped_padder@details@spdlog@@@details@spdlog@@U?$default_delete@V?$t_formatter@Unull_scoped_padder@details@spdlog@@@details@spdlog@@@std@@@std@@QEAA@XZ 00000001800ab720 f i spdlog:spdlog.obj
 0001:000aa720       ??1?$unique_ptr@V?$t_formatter@Vscoped_padder@details@spdlog@@@details@spdlog@@U?$default_delete@V?$t_formatter@Vscoped_padder@details@spdlog@@@details@spdlog@@@std@@@std@@QEAA@XZ 00000001800ab720 f i spdlog:spdlog.obj
 0001:000aa720       ??1?$unique_ptr@V?$v_formatter@Unull_scoped_padder@details@spdlog@@@details@spdlog@@U?$default_delete@V?$v_formatter@Unull_scoped_padder@details@spdlog@@@details@spdlog@@@std@@@std@@QEAA@XZ 00000001800ab720 f i spdlog:spdlog.obj
 0001:000aa720       ??1?$unique_ptr@V?$v_formatter@Vscoped_padder@details@spdlog@@@details@spdlog@@U?$default_delete@V?$v_formatter@Vscoped_padder@details@spdlog@@@details@spdlog@@@std@@@std@@QEAA@XZ 00000001800ab720 f i spdlog:spdlog.obj
 0001:000aa720       ??1?$unique_ptr@Vcolor_start_formatter@details@spdlog@@U?$default_delete@Vcolor_start_formatter@details@spdlog@@@std@@@std@@QEAA@XZ 00000001800ab720 f i spdlog:spdlog.obj
 0001:000aa720       ??1?$unique_ptr@Vcolor_stop_formatter@details@spdlog@@U?$default_delete@Vcolor_stop_formatter@details@spdlog@@@std@@@std@@QEAA@XZ 00000001800ab720 f i spdlog:spdlog.obj
 0001:000aa740       ??1?$unique_ptr@V?$elapsed_formatter@Unull_scoped_padder@details@spdlog@@V?$duration@_JU?$ratio@$00$00@std@@@chrono@std@@@details@spdlog@@U?$default_delete@V?$elapsed_formatter@Unull_scoped_padder@details@spdlog@@V?$duration@_JU?$ratio@$00$00@std@@@chrono@std@@@details@spdlog@@@std@@@std@@QEAA@XZ 00000001800ab740 f i spdlog:spdlog.obj
 0001:000aa740       ??1?$unique_ptr@V?$elapsed_formatter@Unull_scoped_padder@details@spdlog@@V?$duration@_JU?$ratio@$00$0DLJKMKAA@@std@@@chrono@std@@@details@spdlog@@U?$default_delete@V?$elapsed_formatter@Unull_scoped_padder@details@spdlog@@V?$duration@_JU?$ratio@$00$0DLJKMKAA@@std@@@chrono@std@@@details@spdlog@@@std@@@std@@QEAA@XZ 00000001800ab740 f i spdlog:spdlog.obj
 0001:000aa740       ??1?$unique_ptr@V?$elapsed_formatter@Unull_scoped_padder@details@spdlog@@V?$duration@_JU?$ratio@$00$0DOI@@std@@@chrono@std@@@details@spdlog@@U?$default_delete@V?$elapsed_formatter@Unull_scoped_padder@details@spdlog@@V?$duration@_JU?$ratio@$00$0DOI@@std@@@chrono@std@@@details@spdlog@@@std@@@std@@QEAA@XZ 00000001800ab740 f i spdlog:spdlog.obj
 0001:000aa740       ??1?$unique_ptr@V?$elapsed_formatter@Unull_scoped_padder@details@spdlog@@V?$duration@_JU?$ratio@$00$0PECEA@@std@@@chrono@std@@@details@spdlog@@U?$default_delete@V?$elapsed_formatter@Unull_scoped_padder@details@spdlog@@V?$duration@_JU?$ratio@$00$0PECEA@@std@@@chrono@std@@@details@spdlog@@@std@@@std@@QEAA@XZ 00000001800ab740 f i spdlog:spdlog.obj
 0001:000aa740       ??1?$unique_ptr@V?$elapsed_formatter@Vscoped_padder@details@spdlog@@V?$duration@_JU?$ratio@$00$00@std@@@chrono@std@@@details@spdlog@@U?$default_delete@V?$elapsed_formatter@Vscoped_padder@details@spdlog@@V?$duration@_JU?$ratio@$00$00@std@@@chrono@std@@@details@spdlog@@@std@@@std@@QEAA@XZ 00000001800ab740 f i spdlog:spdlog.obj
 0001:000aa740       ??1?$unique_ptr@V?$elapsed_formatter@Vscoped_padder@details@spdlog@@V?$duration@_JU?$ratio@$00$0DLJKMKAA@@std@@@chrono@std@@@details@spdlog@@U?$default_delete@V?$elapsed_formatter@Vscoped_padder@details@spdlog@@V?$duration@_JU?$ratio@$00$0DLJKMKAA@@std@@@chrono@std@@@details@spdlog@@@std@@@std@@QEAA@XZ 00000001800ab740 f i spdlog:spdlog.obj
 0001:000aa740       ??1?$unique_ptr@V?$elapsed_formatter@Vscoped_padder@details@spdlog@@V?$duration@_JU?$ratio@$00$0DOI@@std@@@chrono@std@@@details@spdlog@@U?$default_delete@V?$elapsed_formatter@Vscoped_padder@details@spdlog@@V?$duration@_JU?$ratio@$00$0DOI@@std@@@chrono@std@@@details@spdlog@@@std@@@std@@QEAA@XZ 00000001800ab740 f i spdlog:spdlog.obj
 0001:000aa740       ??1?$unique_ptr@V?$elapsed_formatter@Vscoped_padder@details@spdlog@@V?$duration@_JU?$ratio@$00$0PECEA@@std@@@chrono@std@@@details@spdlog@@U?$default_delete@V?$elapsed_formatter@Vscoped_padder@details@spdlog@@V?$duration@_JU?$ratio@$00$0PECEA@@std@@@chrono@std@@@details@spdlog@@@std@@@std@@QEAA@XZ 00000001800ab740 f i spdlog:spdlog.obj
 0001:000aa740       ??1?$unique_ptr@Vch_formatter@details@spdlog@@U?$default_delete@Vch_formatter@details@spdlog@@@std@@@std@@QEAA@XZ 00000001800ab740 f i spdlog:spdlog.obj
 0001:000aa760       ??1?$unique_ptr@V?$z_formatter@Unull_scoped_padder@details@spdlog@@@details@spdlog@@U?$default_delete@V?$z_formatter@Unull_scoped_padder@details@spdlog@@@details@spdlog@@@std@@@std@@QEAA@XZ 00000001800ab760 f i spdlog:spdlog.obj
 0001:000aa760       ??1?$unique_ptr@V?$z_formatter@Vscoped_padder@details@spdlog@@@details@spdlog@@U?$default_delete@V?$z_formatter@Vscoped_padder@details@spdlog@@@details@spdlog@@@std@@@std@@QEAA@XZ 00000001800ab760 f i spdlog:spdlog.obj
 0001:000aa780       ??1?$unique_ptr@Vaggregate_formatter@details@spdlog@@U?$default_delete@Vaggregate_formatter@details@spdlog@@@std@@@std@@QEAA@XZ 00000001800ab780 f i spdlog:spdlog.obj
 0001:000aa7b0       ??1?$unique_ptr@Vfull_formatter@details@spdlog@@U?$default_delete@Vfull_formatter@details@spdlog@@@std@@@std@@QEAA@XZ 00000001800ab7b0 f i spdlog:spdlog.obj
 0001:000aa7f0       ??1?$unique_ptr@Vpattern_formatter@spdlog@@U?$default_delete@Vpattern_formatter@spdlog@@@std@@@std@@QEAA@XZ 00000001800ab7f0 f i spdlog:spdlog.obj
 0001:000aa850       ??1?$unique_ptr@Vperiodic_worker@details@spdlog@@U?$default_delete@Vperiodic_worker@details@spdlog@@@std@@@std@@QEAA@XZ 00000001800ab850 f i spdlog:spdlog.obj
 0001:000aa880       ??1?$unordered_map@DV?$unique_ptr@Vcustom_flag_formatter@spdlog@@U?$default_delete@Vcustom_flag_formatter@spdlog@@@std@@@std@@U?$hash@D@2@U?$equal_to@D@2@V?$allocator@U?$pair@$$CBDV?$unique_ptr@Vcustom_flag_formatter@spdlog@@U?$default_delete@Vcustom_flag_formatter@spdlog@@@std@@@std@@@std@@@2@@std@@QEAA@XZ 00000001800ab880 f i spdlog:spdlog.obj
 0001:000aa8a0       ??1?$unordered_map@V?$basic_string@DU?$char_traits@D@std@@V?$allocator@D@2@@std@@V?$shared_ptr@Vlogger@spdlog@@@2@U?$hash@V?$basic_string@DU?$char_traits@D@std@@V?$allocator@D@2@@std@@@2@U?$equal_to@V?$basic_string@DU?$char_traits@D@std@@V?$allocator@D@2@@std@@@2@V?$allocator@U?$pair@$$CBV?$basic_string@DU?$char_traits@D@std@@V?$allocator@D@2@@std@@V?$shared_ptr@Vlogger@spdlog@@@2@@std@@@2@@std@@QEAA@XZ 00000001800ab8a0 f i spdlog:spdlog.obj
 0001:000aa8e0       ??1?$vector@V?$unique_ptr@Vflag_formatter@details@spdlog@@U?$default_delete@Vflag_formatter@details@spdlog@@@std@@@std@@V?$allocator@V?$unique_ptr@Vflag_formatter@details@spdlog@@U?$default_delete@Vflag_formatter@details@spdlog@@@std@@@std@@@2@@std@@QEAA@XZ 00000001800ab8e0 f i spdlog:spdlog.obj
 0001:000aa990       ??1scoped_padder@details@spdlog@@QEAA@XZ 00000001800ab990 f i spdlog:spdlog.obj
 0001:000aaa10       ??1spdlog_ex@spdlog@@UEAA@XZ 00000001800aba10 f i spdlog:spdlog.obj
 0001:000aaa40       ??4?$circular_q@Vlog_msg_buffer@details@spdlog@@@details@spdlog@@QEAAAEAV012@$$QEAV012@@Z 00000001800aba40 f i spdlog:spdlog.obj
 0001:000aaaf0       ??4?$shared_ptr@Vlogger@spdlog@@@std@@QEAAAEAV01@$$QEAV01@@Z 00000001800abaf0 f i spdlog:spdlog.obj
 0001:000aab70       ??4?$shared_ptr@Vlogger@spdlog@@@std@@QEAAAEAV01@AEBV01@@Z 00000001800abb70 f i spdlog:spdlog.obj
 0001:000aac00       ??4log_msg_buffer@details@spdlog@@QEAAAEAV012@AEBV012@@Z 00000001800abc00 f   spdlog:spdlog.obj
 0001:000aac90       ??F?$_Tree_const_iterator@V?$_Tree_val@U?$_Tree_simple_types@U?$pair@$$CBV?$basic_string@DU?$char_traits@D@std@@V?$allocator@D@2@@std@@V12@@std@@@std@@@std@@@std@@QEAAAEAV01@XZ 00000001800abc90 f i spdlog:spdlog.obj
 0001:000aad20       ??R?$default_delete@Vflag_formatter@details@spdlog@@@std@@QEBAXPEAVflag_formatter@details@spdlog@@@Z 00000001800abd20 f i spdlog:spdlog.obj
 0001:000aad40       ??_E?$A_formatter@Unull_scoped_padder@details@spdlog@@@details@spdlog@@UEAAPEAXI@Z 00000001800abd40 f i spdlog:spdlog.obj
 0001:000aad40       ??_E?$A_formatter@Vscoped_padder@details@spdlog@@@details@spdlog@@UEAAPEAXI@Z 00000001800abd40 f i spdlog:spdlog.obj
 0001:000aad40       ??_E?$B_formatter@Unull_scoped_padder@details@spdlog@@@details@spdlog@@UEAAPEAXI@Z 00000001800abd40 f i spdlog:spdlog.obj
 0001:000aad40       ??_E?$B_formatter@Vscoped_padder@details@spdlog@@@details@spdlog@@UEAAPEAXI@Z 00000001800abd40 f i spdlog:spdlog.obj
 0001:000aad40       ??_E?$C_formatter@Unull_scoped_padder@details@spdlog@@@details@spdlog@@UEAAPEAXI@Z 00000001800abd40 f i spdlog:spdlog.obj
 0001:000aad40       ??_E?$C_formatter@Vscoped_padder@details@spdlog@@@details@spdlog@@UEAAPEAXI@Z 00000001800abd40 f i spdlog:spdlog.obj
 0001:000aad40       ??_E?$D_formatter@Unull_scoped_padder@details@spdlog@@@details@spdlog@@UEAAPEAXI@Z 00000001800abd40 f i spdlog:spdlog.obj
 0001:000aad40       ??_E?$D_formatter@Vscoped_padder@details@spdlog@@@details@spdlog@@UEAAPEAXI@Z 00000001800abd40 f i spdlog:spdlog.obj
 0001:000aad40       ??_E?$E_formatter@Unull_scoped_padder@details@spdlog@@@details@spdlog@@UEAAPEAXI@Z 00000001800abd40 f i spdlog:spdlog.obj
 0001:000aad40       ??_E?$E_formatter@Vscoped_padder@details@spdlog@@@details@spdlog@@UEAAPEAXI@Z 00000001800abd40 f i spdlog:spdlog.obj
 0001:000aad40       ??_E?$F_formatter@Unull_scoped_padder@details@spdlog@@@details@spdlog@@UEAAPEAXI@Z 00000001800abd40 f i spdlog:spdlog.obj
 0001:000aad40       ??_E?$F_formatter@Vscoped_padder@details@spdlog@@@details@spdlog@@UEAAPEAXI@Z 00000001800abd40 f i spdlog:spdlog.obj
 0001:000aad40       ??_E?$H_formatter@Unull_scoped_padder@details@spdlog@@@details@spdlog@@UEAAPEAXI@Z 00000001800abd40 f i spdlog:spdlog.obj
 0001:000aad40       ??_E?$H_formatter@Vscoped_padder@details@spdlog@@@details@spdlog@@UEAAPEAXI@Z 00000001800abd40 f i spdlog:spdlog.obj
 0001:000aad40       ??_E?$I_formatter@Unull_scoped_padder@details@spdlog@@@details@spdlog@@UEAAPEAXI@Z 00000001800abd40 f i spdlog:spdlog.obj
 0001:000aad40       ??_E?$I_formatter@Vscoped_padder@details@spdlog@@@details@spdlog@@UEAAPEAXI@Z 00000001800abd40 f i spdlog:spdlog.obj
 0001:000aad40       ??_E?$M_formatter@Unull_scoped_padder@details@spdlog@@@details@spdlog@@UEAAPEAXI@Z 00000001800abd40 f i spdlog:spdlog.obj
 0001:000aad40       ??_E?$M_formatter@Vscoped_padder@details@spdlog@@@details@spdlog@@UEAAPEAXI@Z 00000001800abd40 f i spdlog:spdlog.obj
 0001:000aad40       ??_E?$R_formatter@Unull_scoped_padder@details@spdlog@@@details@spdlog@@UEAAPEAXI@Z 00000001800abd40 f i spdlog:spdlog.obj
 0001:000aad40       ??_E?$R_formatter@Vscoped_padder@details@spdlog@@@details@spdlog@@UEAAPEAXI@Z 00000001800abd40 f i spdlog:spdlog.obj
 0001:000aad40       ??_E?$S_formatter@Unull_scoped_padder@details@spdlog@@@details@spdlog@@UEAAPEAXI@Z 00000001800abd40 f i spdlog:spdlog.obj
 0001:000aad40       ??_E?$S_formatter@Vscoped_padder@details@spdlog@@@details@spdlog@@UEAAPEAXI@Z 00000001800abd40 f i spdlog:spdlog.obj
 0001:000aad40       ??_E?$T_formatter@Unull_scoped_padder@details@spdlog@@@details@spdlog@@UEAAPEAXI@Z 00000001800abd40 f i spdlog:spdlog.obj
 0001:000aad40       ??_E?$T_formatter@Vscoped_padder@details@spdlog@@@details@spdlog@@UEAAPEAXI@Z 00000001800abd40 f i spdlog:spdlog.obj
 0001:000aad40       ??_E?$Y_formatter@Unull_scoped_padder@details@spdlog@@@details@spdlog@@UEAAPEAXI@Z 00000001800abd40 f i spdlog:spdlog.obj
 0001:000aad40       ??_E?$Y_formatter@Vscoped_padder@details@spdlog@@@details@spdlog@@UEAAPEAXI@Z 00000001800abd40 f i spdlog:spdlog.obj
 0001:000aad40       ??_E?$a_formatter@Unull_scoped_padder@details@spdlog@@@details@spdlog@@UEAAPEAXI@Z 00000001800abd40 f i spdlog:spdlog.obj
 0001:000aad40       ??_E?$a_formatter@Vscoped_padder@details@spdlog@@@details@spdlog@@UEAAPEAXI@Z 00000001800abd40 f i spdlog:spdlog.obj
 0001:000aad40       ??_E?$b_formatter@Unull_scoped_padder@details@spdlog@@@details@spdlog@@UEAAPEAXI@Z 00000001800abd40 f i spdlog:spdlog.obj
 0001:000aad40       ??_E?$b_formatter@Vscoped_padder@details@spdlog@@@details@spdlog@@UEAAPEAXI@Z 00000001800abd40 f i spdlog:spdlog.obj
 0001:000aad40       ??_E?$c_formatter@Unull_scoped_padder@details@spdlog@@@details@spdlog@@UEAAPEAXI@Z 00000001800abd40 f i spdlog:spdlog.obj
 0001:000aad40       ??_E?$c_formatter@Vscoped_padder@details@spdlog@@@details@spdlog@@UEAAPEAXI@Z 00000001800abd40 f i spdlog:spdlog.obj
 0001:000aad40       ??_E?$d_formatter@Unull_scoped_padder@details@spdlog@@@details@spdlog@@UEAAPEAXI@Z 00000001800abd40 f i spdlog:spdlog.obj
 0001:000aad40       ??_E?$d_formatter@Vscoped_padder@details@spdlog@@@details@spdlog@@UEAAPEAXI@Z 00000001800abd40 f i spdlog:spdlog.obj
 0001:000aad40       ??_E?$e_formatter@Unull_scoped_padder@details@spdlog@@@details@spdlog@@UEAAPEAXI@Z 00000001800abd40 f i spdlog:spdlog.obj
 0001:000aad40       ??_E?$e_formatter@Vscoped_padder@details@spdlog@@@details@spdlog@@UEAAPEAXI@Z 00000001800abd40 f i spdlog:spdlog.obj
 0001:000aad40       ??_E?$f_formatter@Unull_scoped_padder@details@spdlog@@@details@spdlog@@UEAAPEAXI@Z 00000001800abd40 f i spdlog:spdlog.obj
 0001:000aad40       ??_E?$f_formatter@Vscoped_padder@details@spdlog@@@details@spdlog@@UEAAPEAXI@Z 00000001800abd40 f i spdlog:spdlog.obj
 0001:000aad40       ??_E?$level_formatter@Unull_scoped_padder@details@spdlog@@@details@spdlog@@UEAAPEAXI@Z 00000001800abd40 f i spdlog:spdlog.obj
 0001:000aad40       ??_E?$level_formatter@Vscoped_padder@details@spdlog@@@details@spdlog@@UEAAPEAXI@Z 00000001800abd40 f i spdlog:spdlog.obj
 0001:000aad40       ??_E?$m_formatter@Unull_scoped_padder@details@spdlog@@@details@spdlog@@UEAAPEAXI@Z 00000001800abd40 f i spdlog:spdlog.obj
 0001:000aad40       ??_E?$m_formatter@Vscoped_padder@details@spdlog@@@details@spdlog@@UEAAPEAXI@Z 00000001800abd40 f i spdlog:spdlog.obj
 0001:000aad40       ??_E?$mdc_formatter@Unull_scoped_padder@details@spdlog@@@details@spdlog@@UEAAPEAXI@Z 00000001800abd40 f i spdlog:spdlog.obj
 0001:000aad40       ??_E?$mdc_formatter@Vscoped_padder@details@spdlog@@@details@spdlog@@UEAAPEAXI@Z 00000001800abd40 f i spdlog:spdlog.obj
 0001:000aad40       ??_E?$name_formatter@Unull_scoped_padder@details@spdlog@@@details@spdlog@@UEAAPEAXI@Z 00000001800abd40 f i spdlog:spdlog.obj
 0001:000aad40       ??_E?$name_formatter@Vscoped_padder@details@spdlog@@@details@spdlog@@UEAAPEAXI@Z 00000001800abd40 f i spdlog:spdlog.obj
 0001:000aad40       ??_E?$p_formatter@Unull_scoped_padder@details@spdlog@@@details@spdlog@@UEAAPEAXI@Z 00000001800abd40 f i spdlog:spdlog.obj
 0001:000aad40       ??_E?$p_formatter@Vscoped_padder@details@spdlog@@@details@spdlog@@UEAAPEAXI@Z 00000001800abd40 f i spdlog:spdlog.obj
 0001:000aad40       ??_E?$pid_formatter@Unull_scoped_padder@details@spdlog@@@details@spdlog@@UEAAPEAXI@Z 00000001800abd40 f i spdlog:spdlog.obj
 0001:000aad40       ??_E?$pid_formatter@Vscoped_padder@details@spdlog@@@details@spdlog@@UEAAPEAXI@Z 00000001800abd40 f i spdlog:spdlog.obj
 0001:000aad40       ??_E?$r_formatter@Unull_scoped_padder@details@spdlog@@@details@spdlog@@UEAAPEAXI@Z 00000001800abd40 f i spdlog:spdlog.obj
 0001:000aad40       ??_E?$r_formatter@Vscoped_padder@details@spdlog@@@details@spdlog@@UEAAPEAXI@Z 00000001800abd40 f i spdlog:spdlog.obj
 0001:000aad40       ??_E?$short_filename_formatter@Unull_scoped_padder@details@spdlog@@@details@spdlog@@UEAAPEAXI@Z 00000001800abd40 f i spdlog:spdlog.obj
 0001:000aad40       ??_E?$short_filename_formatter@Vscoped_padder@details@spdlog@@@details@spdlog@@UEAAPEAXI@Z 00000001800abd40 f i spdlog:spdlog.obj
 0001:000aad40       ??_E?$short_level_formatter@Unull_scoped_padder@details@spdlog@@@details@spdlog@@UEAAPEAXI@Z 00000001800abd40 f i spdlog:spdlog.obj
 0001:000aad40       ??_E?$short_level_formatter@Vscoped_padder@details@spdlog@@@details@spdlog@@UEAAPEAXI@Z 00000001800abd40 f i spdlog:spdlog.obj
 0001:000aad40       ??_E?$source_filename_formatter@Unull_scoped_padder@details@spdlog@@@details@spdlog@@UEAAPEAXI@Z 00000001800abd40 f i spdlog:spdlog.obj
 0001:000aad40       ??_E?$source_filename_formatter@Vscoped_padder@details@spdlog@@@details@spdlog@@UEAAPEAXI@Z 00000001800abd40 f i spdlog:spdlog.obj
 0001:000aad40       ??_E?$source_funcname_formatter@Unull_scoped_padder@details@spdlog@@@details@spdlog@@UEAAPEAXI@Z 00000001800abd40 f i spdlog:spdlog.obj
 0001:000aad40       ??_E?$source_funcname_formatter@Vscoped_padder@details@spdlog@@@details@spdlog@@UEAAPEAXI@Z 00000001800abd40 f i spdlog:spdlog.obj
 0001:000aad40       ??_E?$source_linenum_formatter@Unull_scoped_padder@details@spdlog@@@details@spdlog@@UEAAPEAXI@Z 00000001800abd40 f i spdlog:spdlog.obj
 0001:000aad40       ??_E?$source_linenum_formatter@Vscoped_padder@details@spdlog@@@details@spdlog@@UEAAPEAXI@Z 00000001800abd40 f i spdlog:spdlog.obj
 0001:000aad40       ??_E?$source_location_formatter@Unull_scoped_padder@details@spdlog@@@details@spdlog@@UEAAPEAXI@Z 00000001800abd40 f i spdlog:spdlog.obj
 0001:000aad40       ??_E?$source_location_formatter@Vscoped_padder@details@spdlog@@@details@spdlog@@UEAAPEAXI@Z 00000001800abd40 f i spdlog:spdlog.obj
 0001:000aad40       ??_E?$t_formatter@Unull_scoped_padder@details@spdlog@@@details@spdlog@@UEAAPEAXI@Z 00000001800abd40 f i spdlog:spdlog.obj
 0001:000aad40       ??_E?$t_formatter@Vscoped_padder@details@spdlog@@@details@spdlog@@UEAAPEAXI@Z 00000001800abd40 f i spdlog:spdlog.obj
 0001:000aad40       ??_E?$v_formatter@Unull_scoped_padder@details@spdlog@@@details@spdlog@@UEAAPEAXI@Z 00000001800abd40 f i spdlog:spdlog.obj
 0001:000aad40       ??_E?$v_formatter@Vscoped_padder@details@spdlog@@@details@spdlog@@UEAAPEAXI@Z 00000001800abd40 f i spdlog:spdlog.obj
 0001:000aad40       ??_Ecolor_start_formatter@details@spdlog@@UEAAPEAXI@Z 00000001800abd40 f i spdlog:spdlog.obj
 0001:000aad40       ??_Ecolor_stop_formatter@details@spdlog@@UEAAPEAXI@Z 00000001800abd40 f i spdlog:spdlog.obj
 0001:000aad40       ??_G?$A_formatter@Unull_scoped_padder@details@spdlog@@@details@spdlog@@UEAAPEAXI@Z 00000001800abd40 f i spdlog:spdlog.obj
 0001:000aad40       ??_G?$A_formatter@Vscoped_padder@details@spdlog@@@details@spdlog@@UEAAPEAXI@Z 00000001800abd40 f i spdlog:spdlog.obj
 0001:000aad40       ??_G?$B_formatter@Unull_scoped_padder@details@spdlog@@@details@spdlog@@UEAAPEAXI@Z 00000001800abd40 f i spdlog:spdlog.obj
 0001:000aad40       ??_G?$B_formatter@Vscoped_padder@details@spdlog@@@details@spdlog@@UEAAPEAXI@Z 00000001800abd40 f i spdlog:spdlog.obj
 0001:000aad40       ??_G?$C_formatter@Unull_scoped_padder@details@spdlog@@@details@spdlog@@UEAAPEAXI@Z 00000001800abd40 f i spdlog:spdlog.obj
 0001:000aad40       ??_G?$C_formatter@Vscoped_padder@details@spdlog@@@details@spdlog@@UEAAPEAXI@Z 00000001800abd40 f i spdlog:spdlog.obj
 0001:000aad40       ??_G?$D_formatter@Unull_scoped_padder@details@spdlog@@@details@spdlog@@UEAAPEAXI@Z 00000001800abd40 f i spdlog:spdlog.obj
 0001:000aad40       ??_G?$D_formatter@Vscoped_padder@details@spdlog@@@details@spdlog@@UEAAPEAXI@Z 00000001800abd40 f i spdlog:spdlog.obj
 0001:000aad40       ??_G?$E_formatter@Unull_scoped_padder@details@spdlog@@@details@spdlog@@UEAAPEAXI@Z 00000001800abd40 f i spdlog:spdlog.obj
 0001:000aad40       ??_G?$E_formatter@Vscoped_padder@details@spdlog@@@details@spdlog@@UEAAPEAXI@Z 00000001800abd40 f i spdlog:spdlog.obj
 0001:000aad40       ??_G?$F_formatter@Unull_scoped_padder@details@spdlog@@@details@spdlog@@UEAAPEAXI@Z 00000001800abd40 f i spdlog:spdlog.obj
 0001:000aad40       ??_G?$F_formatter@Vscoped_padder@details@spdlog@@@details@spdlog@@UEAAPEAXI@Z 00000001800abd40 f i spdlog:spdlog.obj
 0001:000aad40       ??_G?$H_formatter@Unull_scoped_padder@details@spdlog@@@details@spdlog@@UEAAPEAXI@Z 00000001800abd40 f i spdlog:spdlog.obj
 0001:000aad40       ??_G?$H_formatter@Vscoped_padder@details@spdlog@@@details@spdlog@@UEAAPEAXI@Z 00000001800abd40 f i spdlog:spdlog.obj
 0001:000aad40       ??_G?$I_formatter@Unull_scoped_padder@details@spdlog@@@details@spdlog@@UEAAPEAXI@Z 00000001800abd40 f i spdlog:spdlog.obj
 0001:000aad40       ??_G?$I_formatter@Vscoped_padder@details@spdlog@@@details@spdlog@@UEAAPEAXI@Z 00000001800abd40 f i spdlog:spdlog.obj
 0001:000aad40       ??_G?$M_formatter@Unull_scoped_padder@details@spdlog@@@details@spdlog@@UEAAPEAXI@Z 00000001800abd40 f i spdlog:spdlog.obj
 0001:000aad40       ??_G?$M_formatter@Vscoped_padder@details@spdlog@@@details@spdlog@@UEAAPEAXI@Z 00000001800abd40 f i spdlog:spdlog.obj
 0001:000aad40       ??_G?$R_formatter@Unull_scoped_padder@details@spdlog@@@details@spdlog@@UEAAPEAXI@Z 00000001800abd40 f i spdlog:spdlog.obj
 0001:000aad40       ??_G?$R_formatter@Vscoped_padder@details@spdlog@@@details@spdlog@@UEAAPEAXI@Z 00000001800abd40 f i spdlog:spdlog.obj
 0001:000aad40       ??_G?$S_formatter@Unull_scoped_padder@details@spdlog@@@details@spdlog@@UEAAPEAXI@Z 00000001800abd40 f i spdlog:spdlog.obj
 0001:000aad40       ??_G?$S_formatter@Vscoped_padder@details@spdlog@@@details@spdlog@@UEAAPEAXI@Z 00000001800abd40 f i spdlog:spdlog.obj
 0001:000aad40       ??_G?$T_formatter@Unull_scoped_padder@details@spdlog@@@details@spdlog@@UEAAPEAXI@Z 00000001800abd40 f i spdlog:spdlog.obj
 0001:000aad40       ??_G?$T_formatter@Vscoped_padder@details@spdlog@@@details@spdlog@@UEAAPEAXI@Z 00000001800abd40 f i spdlog:spdlog.obj
 0001:000aad40       ??_G?$Y_formatter@Unull_scoped_padder@details@spdlog@@@details@spdlog@@UEAAPEAXI@Z 00000001800abd40 f i spdlog:spdlog.obj
 0001:000aad40       ??_G?$Y_formatter@Vscoped_padder@details@spdlog@@@details@spdlog@@UEAAPEAXI@Z 00000001800abd40 f i spdlog:spdlog.obj
 0001:000aad40       ??_G?$a_formatter@Unull_scoped_padder@details@spdlog@@@details@spdlog@@UEAAPEAXI@Z 00000001800abd40 f i spdlog:spdlog.obj
 0001:000aad40       ??_G?$a_formatter@Vscoped_padder@details@spdlog@@@details@spdlog@@UEAAPEAXI@Z 00000001800abd40 f i spdlog:spdlog.obj
 0001:000aad40       ??_G?$b_formatter@Unull_scoped_padder@details@spdlog@@@details@spdlog@@UEAAPEAXI@Z 00000001800abd40 f i spdlog:spdlog.obj
 0001:000aad40       ??_G?$b_formatter@Vscoped_padder@details@spdlog@@@details@spdlog@@UEAAPEAXI@Z 00000001800abd40 f i spdlog:spdlog.obj
 0001:000aad40       ??_G?$c_formatter@Unull_scoped_padder@details@spdlog@@@details@spdlog@@UEAAPEAXI@Z 00000001800abd40 f i spdlog:spdlog.obj
 0001:000aad40       ??_G?$c_formatter@Vscoped_padder@details@spdlog@@@details@spdlog@@UEAAPEAXI@Z 00000001800abd40 f i spdlog:spdlog.obj
 0001:000aad40       ??_G?$d_formatter@Unull_scoped_padder@details@spdlog@@@details@spdlog@@UEAAPEAXI@Z 00000001800abd40 f i spdlog:spdlog.obj
 0001:000aad40       ??_G?$d_formatter@Vscoped_padder@details@spdlog@@@details@spdlog@@UEAAPEAXI@Z 00000001800abd40 f i spdlog:spdlog.obj
 0001:000aad40       ??_G?$e_formatter@Unull_scoped_padder@details@spdlog@@@details@spdlog@@UEAAPEAXI@Z 00000001800abd40 f i spdlog:spdlog.obj
 0001:000aad40       ??_G?$e_formatter@Vscoped_padder@details@spdlog@@@details@spdlog@@UEAAPEAXI@Z 00000001800abd40 f i spdlog:spdlog.obj
 0001:000aad40       ??_G?$f_formatter@Unull_scoped_padder@details@spdlog@@@details@spdlog@@UEAAPEAXI@Z 00000001800abd40 f i spdlog:spdlog.obj
 0001:000aad40       ??_G?$f_formatter@Vscoped_padder@details@spdlog@@@details@spdlog@@UEAAPEAXI@Z 00000001800abd40 f i spdlog:spdlog.obj
 0001:000aad40       ??_G?$level_formatter@Unull_scoped_padder@details@spdlog@@@details@spdlog@@UEAAPEAXI@Z 00000001800abd40 f i spdlog:spdlog.obj
 0001:000aad40       ??_G?$level_formatter@Vscoped_padder@details@spdlog@@@details@spdlog@@UEAAPEAXI@Z 00000001800abd40 f i spdlog:spdlog.obj
 0001:000aad40       ??_G?$m_formatter@Unull_scoped_padder@details@spdlog@@@details@spdlog@@UEAAPEAXI@Z 00000001800abd40 f i spdlog:spdlog.obj
 0001:000aad40       ??_G?$m_formatter@Vscoped_padder@details@spdlog@@@details@spdlog@@UEAAPEAXI@Z 00000001800abd40 f i spdlog:spdlog.obj
 0001:000aad40       ??_G?$mdc_formatter@Unull_scoped_padder@details@spdlog@@@details@spdlog@@UEAAPEAXI@Z 00000001800abd40 f i spdlog:spdlog.obj
 0001:000aad40       ??_G?$mdc_formatter@Vscoped_padder@details@spdlog@@@details@spdlog@@UEAAPEAXI@Z 00000001800abd40 f i spdlog:spdlog.obj
 0001:000aad40       ??_G?$name_formatter@Unull_scoped_padder@details@spdlog@@@details@spdlog@@UEAAPEAXI@Z 00000001800abd40 f i spdlog:spdlog.obj
 0001:000aad40       ??_G?$name_formatter@Vscoped_padder@details@spdlog@@@details@spdlog@@UEAAPEAXI@Z 00000001800abd40 f i spdlog:spdlog.obj
 0001:000aad40       ??_G?$p_formatter@Unull_scoped_padder@details@spdlog@@@details@spdlog@@UEAAPEAXI@Z 00000001800abd40 f i spdlog:spdlog.obj
 0001:000aad40       ??_G?$p_formatter@Vscoped_padder@details@spdlog@@@details@spdlog@@UEAAPEAXI@Z 00000001800abd40 f i spdlog:spdlog.obj
 0001:000aad40       ??_G?$pid_formatter@Unull_scoped_padder@details@spdlog@@@details@spdlog@@UEAAPEAXI@Z 00000001800abd40 f i spdlog:spdlog.obj
 0001:000aad40       ??_G?$pid_formatter@Vscoped_padder@details@spdlog@@@details@spdlog@@UEAAPEAXI@Z 00000001800abd40 f i spdlog:spdlog.obj
 0001:000aad40       ??_G?$r_formatter@Unull_scoped_padder@details@spdlog@@@details@spdlog@@UEAAPEAXI@Z 00000001800abd40 f i spdlog:spdlog.obj
 0001:000aad40       ??_G?$r_formatter@Vscoped_padder@details@spdlog@@@details@spdlog@@UEAAPEAXI@Z 00000001800abd40 f i spdlog:spdlog.obj
 0001:000aad40       ??_G?$short_filename_formatter@Unull_scoped_padder@details@spdlog@@@details@spdlog@@UEAAPEAXI@Z 00000001800abd40 f i spdlog:spdlog.obj
 0001:000aad40       ??_G?$short_filename_formatter@Vscoped_padder@details@spdlog@@@details@spdlog@@UEAAPEAXI@Z 00000001800abd40 f i spdlog:spdlog.obj
 0001:000aad40       ??_G?$short_level_formatter@Unull_scoped_padder@details@spdlog@@@details@spdlog@@UEAAPEAXI@Z 00000001800abd40 f i spdlog:spdlog.obj
 0001:000aad40       ??_G?$short_level_formatter@Vscoped_padder@details@spdlog@@@details@spdlog@@UEAAPEAXI@Z 00000001800abd40 f i spdlog:spdlog.obj
 0001:000aad40       ??_G?$source_filename_formatter@Unull_scoped_padder@details@spdlog@@@details@spdlog@@UEAAPEAXI@Z 00000001800abd40 f i spdlog:spdlog.obj
 0001:000aad40       ??_G?$source_filename_formatter@Vscoped_padder@details@spdlog@@@details@spdlog@@UEAAPEAXI@Z 00000001800abd40 f i spdlog:spdlog.obj
 0001:000aad40       ??_G?$source_funcname_formatter@Unull_scoped_padder@details@spdlog@@@details@spdlog@@UEAAPEAXI@Z 00000001800abd40 f i spdlog:spdlog.obj
 0001:000aad40       ??_G?$source_funcname_formatter@Vscoped_padder@details@spdlog@@@details@spdlog@@UEAAPEAXI@Z 00000001800abd40 f i spdlog:spdlog.obj
 0001:000aad40       ??_G?$source_linenum_formatter@Unull_scoped_padder@details@spdlog@@@details@spdlog@@UEAAPEAXI@Z 00000001800abd40 f i spdlog:spdlog.obj
 0001:000aad40       ??_G?$source_linenum_formatter@Vscoped_padder@details@spdlog@@@details@spdlog@@UEAAPEAXI@Z 00000001800abd40 f i spdlog:spdlog.obj
 0001:000aad40       ??_G?$source_location_formatter@Unull_scoped_padder@details@spdlog@@@details@spdlog@@UEAAPEAXI@Z 00000001800abd40 f i spdlog:spdlog.obj
 0001:000aad40       ??_G?$source_location_formatter@Vscoped_padder@details@spdlog@@@details@spdlog@@UEAAPEAXI@Z 00000001800abd40 f i spdlog:spdlog.obj
 0001:000aad40       ??_G?$t_formatter@Unull_scoped_padder@details@spdlog@@@details@spdlog@@UEAAPEAXI@Z 00000001800abd40 f i spdlog:spdlog.obj
 0001:000aad40       ??_G?$t_formatter@Vscoped_padder@details@spdlog@@@details@spdlog@@UEAAPEAXI@Z 00000001800abd40 f i spdlog:spdlog.obj
 0001:000aad40       ??_G?$v_formatter@Unull_scoped_padder@details@spdlog@@@details@spdlog@@UEAAPEAXI@Z 00000001800abd40 f i spdlog:spdlog.obj
 0001:000aad40       ??_G?$v_formatter@Vscoped_padder@details@spdlog@@@details@spdlog@@UEAAPEAXI@Z 00000001800abd40 f i spdlog:spdlog.obj
 0001:000aad40       ??_Gcolor_start_formatter@details@spdlog@@UEAAPEAXI@Z 00000001800abd40 f i spdlog:spdlog.obj
 0001:000aad40       ??_Gcolor_stop_formatter@details@spdlog@@UEAAPEAXI@Z 00000001800abd40 f i spdlog:spdlog.obj
 0001:000aad70       ??_E?$_Ref_count_obj2@V?$wincolor_stdout_sink@Uconsole_mutex@details@spdlog@@@sinks@spdlog@@@std@@UEAAPEAXI@Z 00000001800abd70 f i spdlog:spdlog.obj
 0001:000aad70       ??_G?$_Ref_count_obj2@V?$wincolor_stdout_sink@Uconsole_mutex@details@spdlog@@@sinks@spdlog@@@std@@UEAAPEAXI@Z 00000001800abd70 f i spdlog:spdlog.obj
 0001:000aada0       ??_E?$base_sink@Vmutex@std@@@sinks@spdlog@@UEAAPEAXI@Z 00000001800abda0 f i spdlog:spdlog.obj
 0001:000aada0       ??_G?$base_sink@Vmutex@std@@@sinks@spdlog@@UEAAPEAXI@Z 00000001800abda0 f i spdlog:spdlog.obj
 0001:000aadf0       ??_E?$elapsed_formatter@Unull_scoped_padder@details@spdlog@@V?$duration@_JU?$ratio@$00$00@std@@@chrono@std@@@details@spdlog@@UEAAPEAXI@Z 00000001800abdf0 f i spdlog:spdlog.obj
 0001:000aadf0       ??_E?$elapsed_formatter@Unull_scoped_padder@details@spdlog@@V?$duration@_JU?$ratio@$00$0DLJKMKAA@@std@@@chrono@std@@@details@spdlog@@UEAAPEAXI@Z 00000001800abdf0 f i spdlog:spdlog.obj
 0001:000aadf0       ??_E?$elapsed_formatter@Unull_scoped_padder@details@spdlog@@V?$duration@_JU?$ratio@$00$0DOI@@std@@@chrono@std@@@details@spdlog@@UEAAPEAXI@Z 00000001800abdf0 f i spdlog:spdlog.obj
 0001:000aadf0       ??_E?$elapsed_formatter@Unull_scoped_padder@details@spdlog@@V?$duration@_JU?$ratio@$00$0PECEA@@std@@@chrono@std@@@details@spdlog@@UEAAPEAXI@Z 00000001800abdf0 f i spdlog:spdlog.obj
 0001:000aadf0       ??_E?$elapsed_formatter@Vscoped_padder@details@spdlog@@V?$duration@_JU?$ratio@$00$00@std@@@chrono@std@@@details@spdlog@@UEAAPEAXI@Z 00000001800abdf0 f i spdlog:spdlog.obj
 0001:000aadf0       ??_E?$elapsed_formatter@Vscoped_padder@details@spdlog@@V?$duration@_JU?$ratio@$00$0DLJKMKAA@@std@@@chrono@std@@@details@spdlog@@UEAAPEAXI@Z 00000001800abdf0 f i spdlog:spdlog.obj
 0001:000aadf0       ??_E?$elapsed_formatter@Vscoped_padder@details@spdlog@@V?$duration@_JU?$ratio@$00$0DOI@@std@@@chrono@std@@@details@spdlog@@UEAAPEAXI@Z 00000001800abdf0 f i spdlog:spdlog.obj
 0001:000aadf0       ??_E?$elapsed_formatter@Vscoped_padder@details@spdlog@@V?$duration@_JU?$ratio@$00$0PECEA@@std@@@chrono@std@@@details@spdlog@@UEAAPEAXI@Z 00000001800abdf0 f i spdlog:spdlog.obj
 0001:000aadf0       ??_Ech_formatter@details@spdlog@@UEAAPEAXI@Z 00000001800abdf0 f i spdlog:spdlog.obj
 0001:000aadf0       ??_G?$elapsed_formatter@Unull_scoped_padder@details@spdlog@@V?$duration@_JU?$ratio@$00$00@std@@@chrono@std@@@details@spdlog@@UEAAPEAXI@Z 00000001800abdf0 f i spdlog:spdlog.obj
 0001:000aadf0       ??_G?$elapsed_formatter@Unull_scoped_padder@details@spdlog@@V?$duration@_JU?$ratio@$00$0DLJKMKAA@@std@@@chrono@std@@@details@spdlog@@UEAAPEAXI@Z 00000001800abdf0 f i spdlog:spdlog.obj
 0001:000aadf0       ??_G?$elapsed_formatter@Unull_scoped_padder@details@spdlog@@V?$duration@_JU?$ratio@$00$0DOI@@std@@@chrono@std@@@details@spdlog@@UEAAPEAXI@Z 00000001800abdf0 f i spdlog:spdlog.obj
 0001:000aadf0       ??_G?$elapsed_formatter@Unull_scoped_padder@details@spdlog@@V?$duration@_JU?$ratio@$00$0PECEA@@std@@@chrono@std@@@details@spdlog@@UEAAPEAXI@Z 00000001800abdf0 f i spdlog:spdlog.obj
 0001:000aadf0       ??_G?$elapsed_formatter@Vscoped_padder@details@spdlog@@V?$duration@_JU?$ratio@$00$00@std@@@chrono@std@@@details@spdlog@@UEAAPEAXI@Z 00000001800abdf0 f i spdlog:spdlog.obj
 0001:000aadf0       ??_G?$elapsed_formatter@Vscoped_padder@details@spdlog@@V?$duration@_JU?$ratio@$00$0DLJKMKAA@@std@@@chrono@std@@@details@spdlog@@UEAAPEAXI@Z 00000001800abdf0 f i spdlog:spdlog.obj
 0001:000aadf0       ??_G?$elapsed_formatter@Vscoped_padder@details@spdlog@@V?$duration@_JU?$ratio@$00$0DOI@@std@@@chrono@std@@@details@spdlog@@UEAAPEAXI@Z 00000001800abdf0 f i spdlog:spdlog.obj
 0001:000aadf0       ??_G?$elapsed_formatter@Vscoped_padder@details@spdlog@@V?$duration@_JU?$ratio@$00$0PECEA@@std@@@chrono@std@@@details@spdlog@@UEAAPEAXI@Z 00000001800abdf0 f i spdlog:spdlog.obj
 0001:000aadf0       ??_Gch_formatter@details@spdlog@@UEAAPEAXI@Z 00000001800abdf0 f i spdlog:spdlog.obj
 0001:000aae20       ??_E?$z_formatter@Unull_scoped_padder@details@spdlog@@@details@spdlog@@UEAAPEAXI@Z 00000001800abe20 f i spdlog:spdlog.obj
 0001:000aae20       ??_E?$z_formatter@Vscoped_padder@details@spdlog@@@details@spdlog@@UEAAPEAXI@Z 00000001800abe20 f i spdlog:spdlog.obj
 0001:000aae20       ??_G?$z_formatter@Unull_scoped_padder@details@spdlog@@@details@spdlog@@UEAAPEAXI@Z 00000001800abe20 f i spdlog:spdlog.obj
 0001:000aae20       ??_G?$z_formatter@Vscoped_padder@details@spdlog@@@details@spdlog@@UEAAPEAXI@Z 00000001800abe20 f i spdlog:spdlog.obj
 0001:000aae50       ??_Eaggregate_formatter@details@spdlog@@UEAAPEAXI@Z 00000001800abe50 f i spdlog:spdlog.obj
 0001:000aae50       ??_Gaggregate_formatter@details@spdlog@@UEAAPEAXI@Z 00000001800abe50 f i spdlog:spdlog.obj
 0001:000aae90       ??_Efull_formatter@details@spdlog@@UEAAPEAXI@Z 00000001800abe90 f i spdlog:spdlog.obj
 0001:000aae90       ??_Gfull_formatter@details@spdlog@@UEAAPEAXI@Z 00000001800abe90 f i spdlog:spdlog.obj
 0001:000aaee0       ??_Epattern_formatter@spdlog@@UEAAPEAXI@Z 00000001800abee0 f i spdlog:spdlog.obj
 0001:000aaee0       ??_Gpattern_formatter@spdlog@@UEAAPEAXI@Z 00000001800abee0 f i spdlog:spdlog.obj
 0001:000aaf50       ??_Espdlog_ex@spdlog@@UEAAPEAXI@Z 00000001800abf50 f i spdlog:spdlog.obj
 0001:000aaf50       ??_Gspdlog_ex@spdlog@@UEAAPEAXI@Z 00000001800abf50 f i spdlog:spdlog.obj
 0001:000aafa0       ?_Forced_rehash@?$_Hash@V?$_Umap_traits@DV?$unique_ptr@Vcustom_flag_formatter@spdlog@@U?$default_delete@Vcustom_flag_formatter@spdlog@@@std@@@std@@V?$_Uhash_compare@DU?$hash@D@std@@U?$equal_to@D@2@@2@V?$allocator@U?$pair@$$CBDV?$unique_ptr@Vcustom_flag_formatter@spdlog@@U?$default_delete@Vcustom_flag_formatter@spdlog@@@std@@@std@@@std@@@2@$0A@@std@@@std@@IEAAX_K@Z 00000001800abfa0 f i spdlog:spdlog.obj
 0001:000ab140       ?_Rehash_for_1@?$_Hash@V?$_Umap_traits@V?$basic_string@DU?$char_traits@D@std@@V?$allocator@D@2@@std@@V?$shared_ptr@Vlogger@spdlog@@@2@V?$_Uhash_compare@V?$basic_string@DU?$char_traits@D@std@@V?$allocator@D@2@@std@@U?$hash@V?$basic_string@DU?$char_traits@D@std@@V?$allocator@D@2@@std@@@2@U?$equal_to@V?$basic_string@DU?$char_traits@D@std@@V?$allocator@D@2@@std@@@2@@2@V?$allocator@U?$pair@$$CBV?$basic_string@DU?$char_traits@D@std@@V?$allocator@D@2@@std@@V?$shared_ptr@Vlogger@spdlog@@@2@@std@@@2@$0A@@std@@@std@@IEAAXXZ 00000001800ac140 f i spdlog:spdlog.obj
 0001:000ab200       ?basename@?$short_filename_formatter@Unull_scoped_padder@details@spdlog@@@details@spdlog@@SAPEBDPEBD@Z 00000001800ac200 f i spdlog:spdlog.obj
 0001:000ab270       ?clone@logger@spdlog@@UEAA?AV?$shared_ptr@Vlogger@spdlog@@@std@@V?$basic_string@DU?$char_traits@D@std@@V?$allocator@D@2@@4@@Z 00000001800ac270 f   spdlog:spdlog.obj
 0001:000ab320       ?clone@pattern_formatter@spdlog@@UEBA?AV?$unique_ptr@Vformatter@spdlog@@U?$default_delete@Vformatter@spdlog@@@std@@@std@@XZ 00000001800ac320 f   spdlog:spdlog.obj
 0001:000ab490       ?compile_pattern_@pattern_formatter@spdlog@@AEAAXAEBV?$basic_string@DU?$char_traits@D@std@@V?$allocator@D@2@@std@@@Z 00000001800ac490 f   spdlog:spdlog.obj
 0001:000ab760       ?create_dir@os@details@spdlog@@YA_NAEBV?$basic_string@DU?$char_traits@D@std@@V?$allocator@D@2@@std@@@Z 00000001800ac760 f   spdlog:spdlog.obj
 0001:000abb70       ?default_logger_raw@spdlog@@YAPEAVlogger@1@XZ 00000001800acb70 f   spdlog:spdlog.obj
 0001:000abb90       ?dir_name@os@details@spdlog@@YA?AV?$basic_string@DU?$char_traits@D@std@@V?$allocator@D@2@@std@@AEBV45@@Z 00000001800acb90 f   spdlog:spdlog.obj
 0001:000abe90       ?enable@backtracer@details@spdlog@@QEAAX_K@Z 00000001800ace90 f   spdlog:spdlog.obj
 0001:000ac0c0       ?enabled@backtracer@details@spdlog@@QEBA_NXZ 00000001800ad0c0 f   spdlog:spdlog.obj
 0001:000ac0d0       ?err_handler_@logger@spdlog@@IEAAXAEBV?$basic_string@DU?$char_traits@D@std@@V?$allocator@D@2@@std@@@Z 00000001800ad0d0 f   spdlog:spdlog.obj
 0001:000ac290       ?filename_to_str@os@details@spdlog@@YA?AV?$basic_string@DU?$char_traits@D@std@@V?$allocator@D@2@@std@@AEBV45@@Z 00000001800ad290 f   spdlog:spdlog.obj
 0001:000ac2b0       ?find@?$_Hash@V?$_Umap_traits@V?$basic_string@DU?$char_traits@D@std@@V?$allocator@D@2@@std@@W4level_enum@level@spdlog@@V?$_Uhash_compare@V?$basic_string@DU?$char_traits@D@std@@V?$allocator@D@2@@std@@U?$hash@V?$basic_string@DU?$char_traits@D@std@@V?$allocator@D@2@@std@@@2@U?$equal_to@V?$basic_string@DU?$char_traits@D@std@@V?$allocator@D@2@@std@@@2@@2@V?$allocator@U?$pair@$$CBV?$basic_string@DU?$char_traits@D@std@@V?$allocator@D@2@@std@@W4level_enum@level@spdlog@@@std@@@2@$0A@@std@@@std@@QEAA?AV?$_List_iterator@V?$_List_val@U?$_List_simple_types@U?$pair@$$CBV?$basic_string@DU?$char_traits@D@std@@V?$allocator@D@2@@std@@W4level_enum@level@spdlog@@@std@@@std@@@std@@@2@AEBV?$basic_string@DU?$char_traits@D@std@@V?$allocator@D@2@@2@@Z 00000001800ad2b0 f i spdlog:spdlog.obj
 0001:000ac3b0       ?flush@?$base_sink@Vmutex@std@@@sinks@spdlog@@UEAAXXZ 00000001800ad3b0 f i spdlog:spdlog.obj
 0001:000ac420       ?flush_@logger@spdlog@@MEAAXXZ 00000001800ad420 f   spdlog:spdlog.obj
 0001:000ac490       ?flush_on@spdlog@@YAXW4level_enum@level@1@@Z 00000001800ad490 f   spdlog:spdlog.obj
 0001:000ac520       ?fopen_s@os@details@spdlog@@YA_NPEAPEAU_iobuf@@AEBV?$basic_string@DU?$char_traits@D@std@@V?$allocator@D@2@@std@@1@Z 00000001800ad520 f   spdlog:spdlog.obj
 0001:000ac570       ?format@?$A_formatter@Unull_scoped_padder@details@spdlog@@@details@spdlog@@UEAAXAEBUlog_msg@23@AEBUtm@@AEAV?$basic_memory_buffer@D$0PK@U?$allocator@D@detail@v11@fmt@@@v11@fmt@@@Z 00000001800ad570 f i spdlog:spdlog.obj
 0001:000ac5a0       ?format@?$A_formatter@Vscoped_padder@details@spdlog@@@details@spdlog@@UEAAXAEBUlog_msg@23@AEBUtm@@AEAV?$basic_memory_buffer@D$0PK@U?$allocator@D@detail@v11@fmt@@@v11@fmt@@@Z 00000001800ad5a0 f i spdlog:spdlog.obj
 0001:000ac6e0       ?format@?$B_formatter@Unull_scoped_padder@details@spdlog@@@details@spdlog@@UEAAXAEBUlog_msg@23@AEBUtm@@AEAV?$basic_memory_buffer@D$0PK@U?$allocator@D@detail@v11@fmt@@@v11@fmt@@@Z 00000001800ad6e0 f i spdlog:spdlog.obj
 0001:000ac710       ?format@?$B_formatter@Vscoped_padder@details@spdlog@@@details@spdlog@@UEAAXAEBUlog_msg@23@AEBUtm@@AEAV?$basic_memory_buffer@D$0PK@U?$allocator@D@detail@v11@fmt@@@v11@fmt@@@Z 00000001800ad710 f i spdlog:spdlog.obj
 0001:000ac850       ?format@?$C_formatter@Unull_scoped_padder@details@spdlog@@@details@spdlog@@UEAAXAEBUlog_msg@23@AEBUtm@@AEAV?$basic_memory_buffer@D$0PK@U?$allocator@D@detail@v11@fmt@@@v11@fmt@@@Z 00000001800ad850 f i spdlog:spdlog.obj
 0001:000ac880       ?format@?$C_formatter@Vscoped_padder@details@spdlog@@@details@spdlog@@UEAAXAEBUlog_msg@23@AEBUtm@@AEAV?$basic_memory_buffer@D$0PK@U?$allocator@D@detail@v11@fmt@@@v11@fmt@@@Z 00000001800ad880 f i spdlog:spdlog.obj
 0001:000ac9b0       ?format@?$D_formatter@Unull_scoped_padder@details@spdlog@@@details@spdlog@@UEAAXAEBUlog_msg@23@AEBUtm@@AEAV?$basic_memory_buffer@D$0PK@U?$allocator@D@detail@v11@fmt@@@v11@fmt@@@Z 00000001800ad9b0 f i spdlog:spdlog.obj
 0001:000aca60       ?format@?$D_formatter@Vscoped_padder@details@spdlog@@@details@spdlog@@UEAAXAEBUlog_msg@23@AEBUtm@@AEAV?$basic_memory_buffer@D$0PK@U?$allocator@D@detail@v11@fmt@@@v11@fmt@@@Z 00000001800ada60 f i spdlog:spdlog.obj
 0001:000acc20       ?format@?$E_formatter@Unull_scoped_padder@details@spdlog@@@details@spdlog@@UEAAXAEBUlog_msg@23@AEBUtm@@AEAV?$basic_memory_buffer@D$0PK@U?$allocator@D@detail@v11@fmt@@@v11@fmt@@@Z 00000001800adc20 f i spdlog:spdlog.obj
 0001:000acc50       ?format@?$E_formatter@Vscoped_padder@details@spdlog@@@details@spdlog@@UEAAXAEBUlog_msg@23@AEBUtm@@AEAV?$basic_memory_buffer@D$0PK@U?$allocator@D@detail@v11@fmt@@@v11@fmt@@@Z 00000001800adc50 f i spdlog:spdlog.obj
 0001:000acd90       ?format@?$F_formatter@Unull_scoped_padder@details@spdlog@@@details@spdlog@@UEAAXAEBUlog_msg@23@AEBUtm@@AEAV?$basic_memory_buffer@D$0PK@U?$allocator@D@detail@v11@fmt@@@v11@fmt@@@Z 00000001800add90 f i spdlog:spdlog.obj
 0001:000acdd0       ?format@?$F_formatter@Vscoped_padder@details@spdlog@@@details@spdlog@@UEAAXAEBUlog_msg@23@AEBUtm@@AEAV?$basic_memory_buffer@D$0PK@U?$allocator@D@detail@v11@fmt@@@v11@fmt@@@Z 00000001800addd0 f i spdlog:spdlog.obj
 0001:000acf10       ?format@?$H_formatter@Unull_scoped_padder@details@spdlog@@@details@spdlog@@UEAAXAEBUlog_msg@23@AEBUtm@@AEAV?$basic_memory_buffer@D$0PK@U?$allocator@D@detail@v11@fmt@@@v11@fmt@@@Z 00000001800adf10 f i spdlog:spdlog.obj
 0001:000acf20       ?format@?$H_formatter@Vscoped_padder@details@spdlog@@@details@spdlog@@UEAAXAEBUlog_msg@23@AEBUtm@@AEAV?$basic_memory_buffer@D$0PK@U?$allocator@D@detail@v11@fmt@@@v11@fmt@@@Z 00000001800adf20 f i spdlog:spdlog.obj
 0001:000ad040       ?format@?$I_formatter@Unull_scoped_padder@details@spdlog@@@details@spdlog@@UEAAXAEBUlog_msg@23@AEBUtm@@AEAV?$basic_memory_buffer@D$0PK@U?$allocator@D@detail@v11@fmt@@@v11@fmt@@@Z 00000001800ae040 f i spdlog:spdlog.obj
 0001:000ad060       ?format@?$I_formatter@Vscoped_padder@details@spdlog@@@details@spdlog@@UEAAXAEBUlog_msg@23@AEBUtm@@AEAV?$basic_memory_buffer@D$0PK@U?$allocator@D@detail@v11@fmt@@@v11@fmt@@@Z 00000001800ae060 f i spdlog:spdlog.obj
 0001:000ad180       ?format@?$M_formatter@Unull_scoped_padder@details@spdlog@@@details@spdlog@@UEAAXAEBUlog_msg@23@AEBUtm@@AEAV?$basic_memory_buffer@D$0PK@U?$allocator@D@detail@v11@fmt@@@v11@fmt@@@Z 00000001800ae180 f i spdlog:spdlog.obj
 0001:000ad190       ?format@?$M_formatter@Vscoped_padder@details@spdlog@@@details@spdlog@@UEAAXAEBUlog_msg@23@AEBUtm@@AEAV?$basic_memory_buffer@D$0PK@U?$allocator@D@detail@v11@fmt@@@v11@fmt@@@Z 00000001800ae190 f i spdlog:spdlog.obj
 0001:000ad2b0       ?format@?$R_formatter@Unull_scoped_padder@details@spdlog@@@details@spdlog@@UEAAXAEBUlog_msg@23@AEBUtm@@AEAV?$basic_memory_buffer@D$0PK@U?$allocator@D@detail@v11@fmt@@@v11@fmt@@@Z 00000001800ae2b0 f i spdlog:spdlog.obj
 0001:000ad310       ?format@?$R_formatter@Vscoped_padder@details@spdlog@@@details@spdlog@@UEAAXAEBUlog_msg@23@AEBUtm@@AEAV?$basic_memory_buffer@D$0PK@U?$allocator@D@detail@v11@fmt@@@v11@fmt@@@Z 00000001800ae310 f i spdlog:spdlog.obj
 0001:000ad480       ?format@?$S_formatter@Unull_scoped_padder@details@spdlog@@@details@spdlog@@UEAAXAEBUlog_msg@23@AEBUtm@@AEAV?$basic_memory_buffer@D$0PK@U?$allocator@D@detail@v11@fmt@@@v11@fmt@@@Z 00000001800ae480 f i spdlog:spdlog.obj
 0001:000ad490       ?format@?$S_formatter@Vscoped_padder@details@spdlog@@@details@spdlog@@UEAAXAEBUlog_msg@23@AEBUtm@@AEAV?$basic_memory_buffer@D$0PK@U?$allocator@D@detail@v11@fmt@@@v11@fmt@@@Z 00000001800ae490 f i spdlog:spdlog.obj
 0001:000ad5b0       ?format@?$T_formatter@Unull_scoped_padder@details@spdlog@@@details@spdlog@@UEAAXAEBUlog_msg@23@AEBUtm@@AEAV?$basic_memory_buffer@D$0PK@U?$allocator@D@detail@v11@fmt@@@v11@fmt@@@Z 00000001800ae5b0 f i spdlog:spdlog.obj
 0001:000ad640       ?format@?$T_formatter@Vscoped_padder@details@spdlog@@@details@spdlog@@UEAAXAEBUlog_msg@23@AEBUtm@@AEAV?$basic_memory_buffer@D$0PK@U?$allocator@D@detail@v11@fmt@@@v11@fmt@@@Z 00000001800ae640 f i spdlog:spdlog.obj
 0001:000ad7e0       ?format@?$Y_formatter@Unull_scoped_padder@details@spdlog@@@details@spdlog@@UEAAXAEBUlog_msg@23@AEBUtm@@AEAV?$basic_memory_buffer@D$0PK@U?$allocator@D@detail@v11@fmt@@@v11@fmt@@@Z 00000001800ae7e0 f i spdlog:spdlog.obj
 0001:000ad800       ?format@?$Y_formatter@Vscoped_padder@details@spdlog@@@details@spdlog@@UEAAXAEBUlog_msg@23@AEBUtm@@AEAV?$basic_memory_buffer@D$0PK@U?$allocator@D@detail@v11@fmt@@@v11@fmt@@@Z 00000001800ae800 f i spdlog:spdlog.obj
 0001:000ad920       ?format@?$a_formatter@Unull_scoped_padder@details@spdlog@@@details@spdlog@@UEAAXAEBUlog_msg@23@AEBUtm@@AEAV?$basic_memory_buffer@D$0PK@U?$allocator@D@detail@v11@fmt@@@v11@fmt@@@Z 00000001800ae920 f i spdlog:spdlog.obj
 0001:000ad950       ?format@?$a_formatter@Vscoped_padder@details@spdlog@@@details@spdlog@@UEAAXAEBUlog_msg@23@AEBUtm@@AEAV?$basic_memory_buffer@D$0PK@U?$allocator@D@detail@v11@fmt@@@v11@fmt@@@Z 00000001800ae950 f i spdlog:spdlog.obj
 0001:000ada90       ?format@?$b_formatter@Unull_scoped_padder@details@spdlog@@@details@spdlog@@UEAAXAEBUlog_msg@23@AEBUtm@@AEAV?$basic_memory_buffer@D$0PK@U?$allocator@D@detail@v11@fmt@@@v11@fmt@@@Z 00000001800aea90 f i spdlog:spdlog.obj
 0001:000adac0       ?format@?$b_formatter@Vscoped_padder@details@spdlog@@@details@spdlog@@UEAAXAEBUlog_msg@23@AEBUtm@@AEAV?$basic_memory_buffer@D$0PK@U?$allocator@D@detail@v11@fmt@@@v11@fmt@@@Z 00000001800aeac0 f i spdlog:spdlog.obj
 0001:000adc00       ?format@?$c_formatter@Unull_scoped_padder@details@spdlog@@@details@spdlog@@UEAAXAEBUlog_msg@23@AEBUtm@@AEAV?$basic_memory_buffer@D$0PK@U?$allocator@D@detail@v11@fmt@@@v11@fmt@@@Z 00000001800aec00 f i spdlog:spdlog.obj
 0001:000addf0       ?format@?$c_formatter@Vscoped_padder@details@spdlog@@@details@spdlog@@UEAAXAEBUlog_msg@23@AEBUtm@@AEAV?$basic_memory_buffer@D$0PK@U?$allocator@D@detail@v11@fmt@@@v11@fmt@@@Z 00000001800aedf0 f i spdlog:spdlog.obj
 0001:000ae100       ?format@?$d_formatter@Unull_scoped_padder@details@spdlog@@@details@spdlog@@UEAAXAEBUlog_msg@23@AEBUtm@@AEAV?$basic_memory_buffer@D$0PK@U?$allocator@D@detail@v11@fmt@@@v11@fmt@@@Z 00000001800af100 f i spdlog:spdlog.obj
 0001:000ae110       ?format@?$d_formatter@Vscoped_padder@details@spdlog@@@details@spdlog@@UEAAXAEBUlog_msg@23@AEBUtm@@AEAV?$basic_memory_buffer@D$0PK@U?$allocator@D@detail@v11@fmt@@@v11@fmt@@@Z 00000001800af110 f i spdlog:spdlog.obj
 0001:000ae230       ?format@?$e_formatter@Unull_scoped_padder@details@spdlog@@@details@spdlog@@UEAAXAEBUlog_msg@23@AEBUtm@@AEAV?$basic_memory_buffer@D$0PK@U?$allocator@D@detail@v11@fmt@@@v11@fmt@@@Z 00000001800af230 f i spdlog:spdlog.obj
 0001:000ae290       ?format@?$e_formatter@Vscoped_padder@details@spdlog@@@details@spdlog@@UEAAXAEBUlog_msg@23@AEBUtm@@AEAV?$basic_memory_buffer@D$0PK@U?$allocator@D@detail@v11@fmt@@@v11@fmt@@@Z 00000001800af290 f i spdlog:spdlog.obj
 0001:000ae3f0       ?format@?$elapsed_formatter@Unull_scoped_padder@details@spdlog@@V?$duration@_JU?$ratio@$00$00@std@@@chrono@std@@@details@spdlog@@UEAAXAEBUlog_msg@23@AEBUtm@@AEAV?$basic_memory_buffer@D$0PK@U?$allocator@D@detail@v11@fmt@@@v11@fmt@@@Z 00000001800af3f0 f i spdlog:spdlog.obj
 0001:000ae440       ?format@?$elapsed_formatter@Unull_scoped_padder@details@spdlog@@V?$duration@_JU?$ratio@$00$0DLJKMKAA@@std@@@chrono@std@@@details@spdlog@@UEAAXAEBUlog_msg@23@AEBUtm@@AEAV?$basic_memory_buffer@D$0PK@U?$allocator@D@detail@v11@fmt@@@v11@fmt@@@Z 00000001800af440 f i spdlog:spdlog.obj
 0001:000ae470       ?format@?$elapsed_formatter@Unull_scoped_padder@details@spdlog@@V?$duration@_JU?$ratio@$00$0DOI@@std@@@chrono@std@@@details@spdlog@@UEAAXAEBUlog_msg@23@AEBUtm@@AEAV?$basic_memory_buffer@D$0PK@U?$allocator@D@detail@v11@fmt@@@v11@fmt@@@Z 00000001800af470 f i spdlog:spdlog.obj
 0001:000ae4c0       ?format@?$elapsed_formatter@Unull_scoped_padder@details@spdlog@@V?$duration@_JU?$ratio@$00$0PECEA@@std@@@chrono@std@@@details@spdlog@@UEAAXAEBUlog_msg@23@AEBUtm@@AEAV?$basic_memory_buffer@D$0PK@U?$allocator@D@detail@v11@fmt@@@v11@fmt@@@Z 00000001800af4c0 f i spdlog:spdlog.obj
 0001:000ae510       ?format@?$elapsed_formatter@Vscoped_padder@details@spdlog@@V?$duration@_JU?$ratio@$00$00@std@@@chrono@std@@@details@spdlog@@UEAAXAEBUlog_msg@23@AEBUtm@@AEAV?$basic_memory_buffer@D$0PK@U?$allocator@D@detail@v11@fmt@@@v11@fmt@@@Z 00000001800af510 f i spdlog:spdlog.obj
 0001:000ae680       ?format@?$elapsed_formatter@Vscoped_padder@details@spdlog@@V?$duration@_JU?$ratio@$00$0DLJKMKAA@@std@@@chrono@std@@@details@spdlog@@UEAAXAEBUlog_msg@23@AEBUtm@@AEAV?$basic_memory_buffer@D$0PK@U?$allocator@D@detail@v11@fmt@@@v11@fmt@@@Z 00000001800af680 f i spdlog:spdlog.obj
 0001:000ae7d0       ?format@?$elapsed_formatter@Vscoped_padder@details@spdlog@@V?$duration@_JU?$ratio@$00$0DOI@@std@@@chrono@std@@@details@spdlog@@UEAAXAEBUlog_msg@23@AEBUtm@@AEAV?$basic_memory_buffer@D$0PK@U?$allocator@D@detail@v11@fmt@@@v11@fmt@@@Z 00000001800af7d0 f i spdlog:spdlog.obj
 0001:000ae940       ?format@?$elapsed_formatter@Vscoped_padder@details@spdlog@@V?$duration@_JU?$ratio@$00$0PECEA@@std@@@chrono@std@@@details@spdlog@@UEAAXAEBUlog_msg@23@AEBUtm@@AEAV?$basic_memory_buffer@D$0PK@U?$allocator@D@detail@v11@fmt@@@v11@fmt@@@Z 00000001800af940 f i spdlog:spdlog.obj
 0001:000aeab0       ?format@?$f_formatter@Unull_scoped_padder@details@spdlog@@@details@spdlog@@UEAAXAEBUlog_msg@23@AEBUtm@@AEAV?$basic_memory_buffer@D$0PK@U?$allocator@D@detail@v11@fmt@@@v11@fmt@@@Z 00000001800afab0 f i spdlog:spdlog.obj
 0001:000aeb10       ?format@?$f_formatter@Vscoped_padder@details@spdlog@@@details@spdlog@@UEAAXAEBUlog_msg@23@AEBUtm@@AEAV?$basic_memory_buffer@D$0PK@U?$allocator@D@detail@v11@fmt@@@v11@fmt@@@Z 00000001800afb10 f i spdlog:spdlog.obj
 0001:000aec70       ?format@?$level_formatter@Unull_scoped_padder@details@spdlog@@@details@spdlog@@UEAAXAEBUlog_msg@23@AEBUtm@@AEAV?$basic_memory_buffer@D$0PK@U?$allocator@D@detail@v11@fmt@@@v11@fmt@@@Z 00000001800afc70 f i spdlog:spdlog.obj
 0001:000aeca0       ?format@?$level_formatter@Vscoped_padder@details@spdlog@@@details@spdlog@@UEAAXAEBUlog_msg@23@AEBUtm@@AEAV?$basic_memory_buffer@D$0PK@U?$allocator@D@detail@v11@fmt@@@v11@fmt@@@Z 00000001800afca0 f i spdlog:spdlog.obj
 0001:000aedd0       ?format@?$m_formatter@Unull_scoped_padder@details@spdlog@@@details@spdlog@@UEAAXAEBUlog_msg@23@AEBUtm@@AEAV?$basic_memory_buffer@D$0PK@U?$allocator@D@detail@v11@fmt@@@v11@fmt@@@Z 00000001800afdd0 f i spdlog:spdlog.obj
 0001:000aede0       ?format@?$m_formatter@Vscoped_padder@details@spdlog@@@details@spdlog@@UEAAXAEBUlog_msg@23@AEBUtm@@AEAV?$basic_memory_buffer@D$0PK@U?$allocator@D@detail@v11@fmt@@@v11@fmt@@@Z 00000001800afde0 f i spdlog:spdlog.obj
 0001:000aef00       ?format@?$mdc_formatter@Unull_scoped_padder@details@spdlog@@@details@spdlog@@UEAAXAEBUlog_msg@23@AEBUtm@@AEAV?$basic_memory_buffer@D$0PK@U?$allocator@D@detail@v11@fmt@@@v11@fmt@@@Z 00000001800aff00 f i spdlog:spdlog.obj
 0001:000aef40       ?format@?$mdc_formatter@Vscoped_padder@details@spdlog@@@details@spdlog@@UEAAXAEBUlog_msg@23@AEBUtm@@AEAV?$basic_memory_buffer@D$0PK@U?$allocator@D@detail@v11@fmt@@@v11@fmt@@@Z 00000001800aff40 f i spdlog:spdlog.obj
 0001:000af040       ?format@?$name_formatter@Unull_scoped_padder@details@spdlog@@@details@spdlog@@UEAAXAEBUlog_msg@23@AEBUtm@@AEAV?$basic_memory_buffer@D$0PK@U?$allocator@D@detail@v11@fmt@@@v11@fmt@@@Z 00000001800b0040 f i spdlog:spdlog.obj
 0001:000af060       ?format@?$name_formatter@Vscoped_padder@details@spdlog@@@details@spdlog@@UEAAXAEBUlog_msg@23@AEBUtm@@AEAV?$basic_memory_buffer@D$0PK@U?$allocator@D@detail@v11@fmt@@@v11@fmt@@@Z 00000001800b0060 f i spdlog:spdlog.obj
 0001:000af180       ?format@?$p_formatter@Unull_scoped_padder@details@spdlog@@@details@spdlog@@UEAAXAEBUlog_msg@23@AEBUtm@@AEAV?$basic_memory_buffer@D$0PK@U?$allocator@D@detail@v11@fmt@@@v11@fmt@@@Z 00000001800b0180 f i spdlog:spdlog.obj
 0001:000af1c0       ?format@?$p_formatter@Vscoped_padder@details@spdlog@@@details@spdlog@@UEAAXAEBUlog_msg@23@AEBUtm@@AEAV?$basic_memory_buffer@D$0PK@U?$allocator@D@detail@v11@fmt@@@v11@fmt@@@Z 00000001800b01c0 f i spdlog:spdlog.obj
 0001:000af300       ?format@?$pid_formatter@Unull_scoped_padder@details@spdlog@@@details@spdlog@@UEAAXAEBUlog_msg@23@AEBUtm@@AEAV?$basic_memory_buffer@D$0PK@U?$allocator@D@detail@v11@fmt@@@v11@fmt@@@Z 00000001800b0300 f i spdlog:spdlog.obj
 0001:000af320       ?format@?$pid_formatter@Vscoped_padder@details@spdlog@@@details@spdlog@@UEAAXAEBUlog_msg@23@AEBUtm@@AEAV?$basic_memory_buffer@D$0PK@U?$allocator@D@detail@v11@fmt@@@v11@fmt@@@Z 00000001800b0320 f i spdlog:spdlog.obj
 0001:000af450       ?format@?$r_formatter@Unull_scoped_padder@details@spdlog@@@details@spdlog@@UEAAXAEBUlog_msg@23@AEBUtm@@AEAV?$basic_memory_buffer@D$0PK@U?$allocator@D@detail@v11@fmt@@@v11@fmt@@@Z 00000001800b0450 f i spdlog:spdlog.obj
 0001:000af5a0       ?format@?$r_formatter@Vscoped_padder@details@spdlog@@@details@spdlog@@UEAAXAEBUlog_msg@23@AEBUtm@@AEAV?$basic_memory_buffer@D$0PK@U?$allocator@D@detail@v11@fmt@@@v11@fmt@@@Z 00000001800b05a0 f i spdlog:spdlog.obj
 0001:000af7a0       ?format@?$short_filename_formatter@Unull_scoped_padder@details@spdlog@@@details@spdlog@@UEAAXAEBUlog_msg@23@AEBUtm@@AEAV?$basic_memory_buffer@D$0PK@U?$allocator@D@detail@v11@fmt@@@v11@fmt@@@Z 00000001800b07a0 f i spdlog:spdlog.obj
 0001:000af7f0       ?format@?$short_filename_formatter@Vscoped_padder@details@spdlog@@@details@spdlog@@UEAAXAEBUlog_msg@23@AEBUtm@@AEAV?$basic_memory_buffer@D$0PK@U?$allocator@D@detail@v11@fmt@@@v11@fmt@@@Z 00000001800b07f0 f i spdlog:spdlog.obj
 0001:000afa20       ?format@?$short_level_formatter@Unull_scoped_padder@details@spdlog@@@details@spdlog@@UEAAXAEBUlog_msg@23@AEBUtm@@AEAV?$basic_memory_buffer@D$0PK@U?$allocator@D@detail@v11@fmt@@@v11@fmt@@@Z 00000001800b0a20 f i spdlog:spdlog.obj
 0001:000afa50       ?format@?$short_level_formatter@Vscoped_padder@details@spdlog@@@details@spdlog@@UEAAXAEBUlog_msg@23@AEBUtm@@AEAV?$basic_memory_buffer@D$0PK@U?$allocator@D@detail@v11@fmt@@@v11@fmt@@@Z 00000001800b0a50 f i spdlog:spdlog.obj
 0001:000afb90       ?format@?$source_filename_formatter@Unull_scoped_padder@details@spdlog@@@details@spdlog@@UEAAXAEBUlog_msg@23@AEBUtm@@AEAV?$basic_memory_buffer@D$0PK@U?$allocator@D@detail@v11@fmt@@@v11@fmt@@@Z 00000001800b0b90 f i spdlog:spdlog.obj
 0001:000afbc0       ?format@?$source_filename_formatter@Vscoped_padder@details@spdlog@@@details@spdlog@@UEAAXAEBUlog_msg@23@AEBUtm@@AEAV?$basic_memory_buffer@D$0PK@U?$allocator@D@detail@v11@fmt@@@v11@fmt@@@Z 00000001800b0bc0 f i spdlog:spdlog.obj
 0001:000afd80       ?format@?$source_funcname_formatter@Unull_scoped_padder@details@spdlog@@@details@spdlog@@UEAAXAEBUlog_msg@23@AEBUtm@@AEAV?$basic_memory_buffer@D$0PK@U?$allocator@D@detail@v11@fmt@@@v11@fmt@@@Z 00000001800b0d80 f i spdlog:spdlog.obj
 0001:000afdb0       ?format@?$source_funcname_formatter@Vscoped_padder@details@spdlog@@@details@spdlog@@UEAAXAEBUlog_msg@23@AEBUtm@@AEAV?$basic_memory_buffer@D$0PK@U?$allocator@D@detail@v11@fmt@@@v11@fmt@@@Z 00000001800b0db0 f i spdlog:spdlog.obj
 0001:000aff70       ?format@?$source_linenum_formatter@Unull_scoped_padder@details@spdlog@@@details@spdlog@@UEAAXAEBUlog_msg@23@AEBUtm@@AEAV?$basic_memory_buffer@D$0PK@U?$allocator@D@detail@v11@fmt@@@v11@fmt@@@Z 00000001800b0f70 f i spdlog:spdlog.obj
 0001:000aff80       ?format@?$source_linenum_formatter@Vscoped_padder@details@spdlog@@@details@spdlog@@UEAAXAEBUlog_msg@23@AEBUtm@@AEAV?$basic_memory_buffer@D$0PK@U?$allocator@D@detail@v11@fmt@@@v11@fmt@@@Z 00000001800b0f80 f i spdlog:spdlog.obj
 0001:000b0130       ?format@?$source_location_formatter@Unull_scoped_padder@details@spdlog@@@details@spdlog@@UEAAXAEBUlog_msg@23@AEBUtm@@AEAV?$basic_memory_buffer@D$0PK@U?$allocator@D@detail@v11@fmt@@@v11@fmt@@@Z 00000001800b1130 f i spdlog:spdlog.obj
 0001:000b01a0       ?format@?$source_location_formatter@Vscoped_padder@details@spdlog@@@details@spdlog@@UEAAXAEBUlog_msg@23@AEBUtm@@AEAV?$basic_memory_buffer@D$0PK@U?$allocator@D@detail@v11@fmt@@@v11@fmt@@@Z 00000001800b11a0 f i spdlog:spdlog.obj
 0001:000b0420       ?format@?$t_formatter@Unull_scoped_padder@details@spdlog@@@details@spdlog@@UEAAXAEBUlog_msg@23@AEBUtm@@AEAV?$basic_memory_buffer@D$0PK@U?$allocator@D@detail@v11@fmt@@@v11@fmt@@@Z 00000001800b1420 f i spdlog:spdlog.obj
 0001:000b0430       ?format@?$t_formatter@Vscoped_padder@details@spdlog@@@details@spdlog@@UEAAXAEBUlog_msg@23@AEBUtm@@AEAV?$basic_memory_buffer@D$0PK@U?$allocator@D@detail@v11@fmt@@@v11@fmt@@@Z 00000001800b1430 f i spdlog:spdlog.obj
 0001:000b0570       ?format@?$v_formatter@Unull_scoped_padder@details@spdlog@@@details@spdlog@@UEAAXAEBUlog_msg@23@AEBUtm@@AEAV?$basic_memory_buffer@D$0PK@U?$allocator@D@detail@v11@fmt@@@v11@fmt@@@Z 00000001800b1570 f i spdlog:spdlog.obj
 0001:000b0590       ?format@?$v_formatter@Vscoped_padder@details@spdlog@@@details@spdlog@@UEAAXAEBUlog_msg@23@AEBUtm@@AEAV?$basic_memory_buffer@D$0PK@U?$allocator@D@detail@v11@fmt@@@v11@fmt@@@Z 00000001800b1590 f i spdlog:spdlog.obj
 0001:000b06b0       ?format@?$z_formatter@Unull_scoped_padder@details@spdlog@@@details@spdlog@@UEAAXAEBUlog_msg@23@AEBUtm@@AEAV?$basic_memory_buffer@D$0PK@U?$allocator@D@detail@v11@fmt@@@v11@fmt@@@Z 00000001800b16b0 f i spdlog:spdlog.obj
 0001:000b07d0       ?format@?$z_formatter@Vscoped_padder@details@spdlog@@@details@spdlog@@UEAAXAEBUlog_msg@23@AEBUtm@@AEAV?$basic_memory_buffer@D$0PK@U?$allocator@D@detail@v11@fmt@@@v11@fmt@@@Z 00000001800b17d0 f i spdlog:spdlog.obj
 0001:000b09d0       ?format@aggregate_formatter@details@spdlog@@UEAAXAEBUlog_msg@23@AEBUtm@@AEAV?$basic_memory_buffer@D$0PK@U?$allocator@D@detail@v11@fmt@@@v11@fmt@@@Z 00000001800b19d0 f i spdlog:spdlog.obj
 0001:000b09f0       ?format@ch_formatter@details@spdlog@@UEAAXAEBUlog_msg@23@AEBUtm@@AEAV?$basic_memory_buffer@D$0PK@U?$allocator@D@detail@v11@fmt@@@v11@fmt@@@Z 00000001800b19f0 f i spdlog:spdlog.obj
 0001:000b0a40       ?format@color_start_formatter@details@spdlog@@UEAAXAEBUlog_msg@23@AEBUtm@@AEAV?$basic_memory_buffer@D$0PK@U?$allocator@D@detail@v11@fmt@@@v11@fmt@@@Z 00000001800b1a40 f i spdlog:spdlog.obj
 0001:000b0a50       ?format@color_stop_formatter@details@spdlog@@UEAAXAEBUlog_msg@23@AEBUtm@@AEAV?$basic_memory_buffer@D$0PK@U?$allocator@D@detail@v11@fmt@@@v11@fmt@@@Z 00000001800b1a50 f i spdlog:spdlog.obj
 0001:000b0a60       ?format@full_formatter@details@spdlog@@UEAAXAEBUlog_msg@23@AEBUtm@@AEAV?$basic_memory_buffer@D$0PK@U?$allocator@D@detail@v11@fmt@@@v11@fmt@@@Z 00000001800b1a60 f i spdlog:spdlog.obj
 0001:000b10b0       ?format@pattern_formatter@spdlog@@UEAAXAEBUlog_msg@details@2@AEAV?$basic_memory_buffer@D$0PK@U?$allocator@D@detail@v11@fmt@@@v11@fmt@@@Z 00000001800b20b0 f   spdlog:spdlog.obj
 0001:000b11c0       ?format_mdc@?$mdc_formatter@Unull_scoped_padder@details@spdlog@@@details@spdlog@@QEAAXAEBV?$map@V?$basic_string@DU?$char_traits@D@std@@V?$allocator@D@2@@std@@V12@U?$less@V?$basic_string@DU?$char_traits@D@std@@V?$allocator@D@2@@std@@@2@V?$allocator@U?$pair@$$CBV?$basic_string@DU?$char_traits@D@std@@V?$allocator@D@2@@std@@V12@@std@@@2@@std@@AEAV?$basic_memory_buffer@D$0PK@U?$allocator@D@detail@v11@fmt@@@v11@fmt@@@Z 00000001800b21c0 f i spdlog:spdlog.obj
 0001:000b1300       ?format_mdc@?$mdc_formatter@Vscoped_padder@details@spdlog@@@details@spdlog@@QEAAXAEBV?$map@V?$basic_string@DU?$char_traits@D@std@@V?$allocator@D@2@@std@@V12@U?$less@V?$basic_string@DU?$char_traits@D@std@@V?$allocator@D@2@@std@@@2@V?$allocator@U?$pair@$$CBV?$basic_string@DU?$char_traits@D@std@@V?$allocator@D@2@@std@@V12@@std@@@2@@std@@AEAV?$basic_memory_buffer@D$0PK@U?$allocator@D@detail@v11@fmt@@@v11@fmt@@@Z 00000001800b2300 f i spdlog:spdlog.obj
 0001:000b1560       ?fwrite_bytes@os@details@spdlog@@YA_NPEBX_KPEAU_iobuf@@@Z 00000001800b2560 f   spdlog:spdlog.obj
 0001:000b1590       ?get_context@mdc@spdlog@@SAAEAV?$map@V?$basic_string@DU?$char_traits@D@std@@V?$allocator@D@2@@std@@V12@U?$less@V?$basic_string@DU?$char_traits@D@std@@V?$allocator@D@2@@std@@@2@V?$allocator@U?$pair@$$CBV?$basic_string@DU?$char_traits@D@std@@V?$allocator@D@2@@std@@V12@@std@@@2@@std@@XZ 00000001800b2590 f i spdlog:spdlog.obj
 0001:000b1600       ?initialize_logger@registry@details@spdlog@@QEAAXV?$shared_ptr@Vlogger@spdlog@@@std@@@Z 00000001800b2600 f   spdlog:spdlog.obj
 0001:000b1820       ?instance@registry@details@spdlog@@SAAEAV123@XZ 00000001800b2820 f   spdlog:spdlog.obj
 0001:000b18a0       ?log@?$base_sink@Vmutex@std@@@sinks@spdlog@@UEAAXAEBUlog_msg@details@3@@Z 00000001800b28a0 f i spdlog:spdlog.obj
 0001:000b1920       ?log_it_@logger@spdlog@@IEAAXAEBUlog_msg@details@2@_N1@Z 00000001800b2920 f   spdlog:spdlog.obj
 0001:000b1970       ?move@?$basic_memory_buffer@D$0PK@U?$allocator@D@detail@v11@fmt@@@v11@fmt@@AEAAXAEAV123@@Z 00000001800b2970 f i spdlog:spdlog.obj
 0001:000b1a00       ?pad2@fmt_helper@details@spdlog@@YAXHAEAV?$basic_memory_buffer@D$0PK@U?$allocator@D@detail@v11@fmt@@@v11@fmt@@@Z 00000001800b2a00 f i spdlog:spdlog.obj
 0001:000b1b20       ?push_back@?$vector@V?$unique_ptr@Vflag_formatter@details@spdlog@@U?$default_delete@Vflag_formatter@details@spdlog@@@std@@@std@@V?$allocator@V?$unique_ptr@Vflag_formatter@details@spdlog@@U?$default_delete@Vflag_formatter@details@spdlog@@@std@@@std@@@2@@std@@QEAAX$$QEAV?$unique_ptr@Vflag_formatter@details@spdlog@@U?$default_delete@Vflag_formatter@details@spdlog@@@std@@@2@@Z 00000001800b2b20 f i spdlog:spdlog.obj
 0001:000b1b50       ?push_back@backtracer@details@spdlog@@QEAAXAEBUlog_msg@23@@Z 00000001800b2b50 f   spdlog:spdlog.obj
 0001:000b1d50       ?register_logger_@registry@details@spdlog@@AEAAXV?$shared_ptr@Vlogger@spdlog@@@std@@@Z 00000001800b2d50 f   spdlog:spdlog.obj
 0001:000b1f90       ?set_default_logger@spdlog@@YAXV?$shared_ptr@Vlogger@spdlog@@@std@@@Z 00000001800b2f90 f   spdlog:spdlog.obj
 0001:000b2120       ?set_error_handler@logger@spdlog@@QEAAXV?$function@$$A6AXAEBV?$basic_string@DU?$char_traits@D@std@@V?$allocator@D@2@@std@@@Z@std@@@Z 00000001800b3120 f   spdlog:spdlog.obj
 0001:000b2190       ?set_formatter@?$base_sink@Vmutex@std@@@sinks@spdlog@@UEAAXV?$unique_ptr@Vformatter@spdlog@@U?$default_delete@Vformatter@spdlog@@@std@@@std@@@Z 00000001800b3190 f i spdlog:spdlog.obj
 0001:000b2230       ?set_formatter_@?$base_sink@Vmutex@std@@@sinks@spdlog@@MEAAXV?$unique_ptr@Vformatter@spdlog@@U?$default_delete@Vformatter@spdlog@@@std@@@std@@@Z 00000001800b3230 f i spdlog:spdlog.obj
 0001:000b2280       ?set_level@spdlog@@YAXW4level_enum@level@1@@Z 00000001800b3280 f   spdlog:spdlog.obj
 0001:000b2310       ?set_pattern@?$base_sink@Vmutex@std@@@sinks@spdlog@@UEAAXAEBV?$basic_string@DU?$char_traits@D@std@@V?$allocator@D@2@@std@@@Z 00000001800b3310 f i spdlog:spdlog.obj
 0001:000b2390       ?set_pattern_@?$base_sink@Vmutex@std@@@sinks@spdlog@@MEAAXAEBV?$basic_string@DU?$char_traits@D@std@@V?$allocator@D@2@@std@@@Z 00000001800b3390 f i spdlog:spdlog.obj
 0001:000b2430       ?sink_it_@logger@spdlog@@MEAAXAEBUlog_msg@details@2@@Z 00000001800b3430 f   spdlog:spdlog.obj
 0001:000b2510       ?sleep_for_millis@os@details@spdlog@@YAXI@Z 00000001800b3510 f   spdlog:spdlog.obj
 0001:000b2510       _Thrd_sleep_for            00000001800b3510 f   msvcprt:sharedmutex.obj
 0001:000b2520       ?throw_spdlog_ex@spdlog@@YAXAEBV?$basic_string@DU?$char_traits@D@std@@V?$allocator@D@2@@std@@H@Z 00000001800b3520 f   spdlog:spdlog.obj
 0001:000b2550       ?throw_spdlog_ex@spdlog@@YAXV?$basic_string@DU?$char_traits@D@std@@V?$allocator@D@2@@std@@@Z 00000001800b3550 f   spdlog:spdlog.obj
 0001:000b2590       ?utc_minutes_offset@os@details@spdlog@@YAHAEBUtm@@@Z 00000001800b3590 f   spdlog:spdlog.obj
 0001:000b2620       ?what@spdlog_ex@spdlog@@UEBAPEBDXZ 00000001800b3620 f   spdlog:spdlog.obj
 0001:000b2630       ??0?$basic_file_sink@Vmutex@std@@@sinks@spdlog@@QEAA@AEBV?$basic_string@DU?$char_traits@D@std@@V?$allocator@D@2@@std@@_NAEBUfile_event_handlers@2@@Z 00000001800b3630 f i spdlog:file_sinks.obj
 0001:000b26a0       ??0file_helper@details@spdlog@@QEAA@AEBUfile_event_handlers@2@@Z 00000001800b36a0 f   spdlog:file_sinks.obj
 0001:000b2790       ??1file_helper@details@spdlog@@QEAA@XZ 00000001800b3790 f   spdlog:file_sinks.obj
 0001:000b27c0       ?close@file_helper@details@spdlog@@QEAAXXZ 00000001800b37c0 f   spdlog:file_sinks.obj
 0001:000b2830       ?flush@file_helper@details@spdlog@@QEAAXXZ 00000001800b3830 f   spdlog:file_sinks.obj
 0001:000b28b0       ?flush_@?$basic_file_sink@Vmutex@std@@@sinks@spdlog@@MEAAXXZ 00000001800b38b0 f i spdlog:file_sinks.obj
 0001:000b28c0       ?open@file_helper@details@spdlog@@QEAAXAEBV?$basic_string@DU?$char_traits@D@std@@V?$allocator@D@2@@std@@_N@Z 00000001800b38c0 f   spdlog:file_sinks.obj
 0001:000b2cd0       ?sink_it_@?$basic_file_sink@Vmutex@std@@@sinks@spdlog@@MEAAXAEBUlog_msg@details@3@@Z 00000001800b3cd0 f i spdlog:file_sinks.obj
 0001:000b2dc0       ??1periodic_worker@details@spdlog@@QEAA@XZ 00000001800b3dc0 f   spdlog:async.obj
 0001:000b2e50       ??0?$wincolor_sink@Uconsole_mutex@details@spdlog@@@sinks@spdlog@@QEAA@PEAXW4color_mode@2@@Z 00000001800b3e50 f i spdlog:color_sinks.obj
 0001:000b2f40       ??0?$wincolor_stdout_sink@Uconsole_mutex@details@spdlog@@@sinks@spdlog@@QEAA@W4color_mode@2@@Z 00000001800b3f40 f i spdlog:color_sinks.obj
 0001:000b2f80       ??_E?$wincolor_sink@Uconsole_mutex@details@spdlog@@@sinks@spdlog@@UEAAPEAXI@Z 00000001800b3f80 f i spdlog:color_sinks.obj
 0001:000b2f80       ??_E?$wincolor_stdout_sink@Uconsole_mutex@details@spdlog@@@sinks@spdlog@@UEAAPEAXI@Z 00000001800b3f80 f i spdlog:color_sinks.obj
 0001:000b2f80       ??_G?$wincolor_sink@Uconsole_mutex@details@spdlog@@@sinks@spdlog@@UEAAPEAXI@Z 00000001800b3f80 f i spdlog:color_sinks.obj
 0001:000b2f80       ??_G?$wincolor_stdout_sink@Uconsole_mutex@details@spdlog@@@sinks@spdlog@@UEAAPEAXI@Z 00000001800b3f80 f i spdlog:color_sinks.obj
 0001:000b2fd0       ?flush@?$wincolor_sink@Uconsole_mutex@details@spdlog@@@sinks@spdlog@@UEAAXXZ 00000001800b3fd0 f i spdlog:color_sinks.obj
 0001:000b2fd0       InitializeBuffer           00000001800b3fd0 f i minhook.x64:buffer.obj
 0001:000b2fd0       _guard_check_icall_nop     00000001800b3fd0 f i MSVCRT:guard_support.obj
 0001:000b2fe0       ?log@?$wincolor_sink@Uconsole_mutex@details@spdlog@@@sinks@spdlog@@UEAAXAEBUlog_msg@details@3@@Z 00000001800b3fe0 f i spdlog:color_sinks.obj
 0001:000b31f0       ?set_formatter@?$wincolor_sink@Uconsole_mutex@details@spdlog@@@sinks@spdlog@@UEAAXV?$unique_ptr@Vformatter@spdlog@@U?$default_delete@Vformatter@spdlog@@@std@@@std@@@Z 00000001800b41f0 f i spdlog:color_sinks.obj
 0001:000b3290       ?set_pattern@?$wincolor_sink@Uconsole_mutex@details@spdlog@@@sinks@spdlog@@UEAAXAEBV?$basic_string@DU?$char_traits@D@std@@V?$allocator@D@2@@std@@@Z 00000001800b4290 f i spdlog:color_sinks.obj
 0001:000b33ad       D3D11CreateDeviceAndSwapChain 00000001800b43ad f   d3d11:d3d11.dll
 0001:000b39c0       MH_CreateHook              00000001800b49c0 f   minhook.x64:hook.obj
 0001:000b3c40       MH_DisableHook             00000001800b4c40 f   minhook.x64:hook.obj
 0001:000b3c50       MH_EnableHook              00000001800b4c50 f   minhook.x64:hook.obj
 0001:000b3c60       MH_Initialize              00000001800b4c60 f   minhook.x64:hook.obj
 0001:000b3d00       MH_RemoveHook              00000001800b4d00 f   minhook.x64:hook.obj
 0001:000b3eb0       MH_StatusToString          00000001800b4eb0 f   minhook.x64:hook.obj
 0001:000b41c0       AllocateBuffer             00000001800b51c0 f   minhook.x64:buffer.obj
 0001:000b41f0       FreeBuffer                 00000001800b51f0 f   minhook.x64:buffer.obj
 0001:000b44d0       IsExecutableAddress        00000001800b54d0 f   minhook.x64:buffer.obj
 0001:000b4510       CreateTrampolineFunction   00000001800b5510 f   minhook.x64:trampoline.obj
 0001:000b4910       hde64_disasm               00000001800b5910 f   minhook.x64:hde64.obj
 0001:000b50ae       __WSAFDIsSet               00000001800b60ae f   ws2_32:WS2_32.dll
 0001:000b50b4       CreateToolhelp32Snapshot   00000001800b60b4 f   kernel32:KERNEL32.dll
 0001:000b50ba       Thread32First              00000001800b60ba f   kernel32:KERNEL32.dll
 0001:000b50c0       Thread32Next               00000001800b60c0 f   kernel32:KERNEL32.dll
 0001:000b50c6       ?_Xlength_error@std@@YAXPEBD@Z 00000001800b60c6 f   msvcprt:MSVCP140.dll
 0001:000b50cc       ?_Xout_of_range@std@@YAXPEBD@Z 00000001800b60cc f   msvcprt:MSVCP140.dll
 0001:000b50d2       _Query_perf_counter        00000001800b60d2 f   msvcprt:MSVCP140.dll
 0001:000b50d8       _Query_perf_frequency      00000001800b60d8 f   msvcprt:MSVCP140.dll
 0001:000b50de       _Thrd_join                 00000001800b60de f   msvcprt:MSVCP140.dll
 0001:000b50e4       _Thrd_id                   00000001800b60e4 f   msvcprt:MSVCP140.dll
 0001:000b50ec       _Smtx_lock_exclusive       00000001800b60ec f   msvcprt:sharedmutex.obj
 0001:000b50f4       _Smtx_lock_shared          00000001800b60f4 f   msvcprt:sharedmutex.obj
 0001:000b50fc       _Smtx_unlock_exclusive     00000001800b60fc f   msvcprt:sharedmutex.obj
 0001:000b5104       _Smtx_unlock_shared        00000001800b6104 f   msvcprt:sharedmutex.obj
 0001:000b510b       _Mtx_lock                  00000001800b610b f   msvcprt:MSVCP140.dll
 0001:000b5111       _Mtx_unlock                00000001800b6111 f   msvcprt:MSVCP140.dll
 0001:000b5117       _Cnd_do_broadcast_at_thread_exit 00000001800b6117 f   msvcprt:MSVCP140.dll
 0001:000b511d       ?_Throw_Cpp_error@std@@YAXH@Z 00000001800b611d f   msvcprt:MSVCP140.dll
 0001:000b5123       ?_Xbad_function_call@std@@YAXXZ 00000001800b6123 f   msvcprt:MSVCP140.dll
 0001:000b5129       _Cnd_wait                  00000001800b6129 f   msvcprt:MSVCP140.dll
 0001:000b512f       _Cnd_broadcast             00000001800b612f f   msvcprt:MSVCP140.dll
 0001:000b5135       _Cnd_signal                00000001800b6135 f   msvcprt:MSVCP140.dll
 0001:000b513b       ??1_Lockit@std@@QEAA@XZ    00000001800b613b f   msvcprt:MSVCP140.dll
 0001:000b5141       ?_Xbad_alloc@std@@YAXXZ    00000001800b6141 f   msvcprt:MSVCP140.dll
 0001:000b5148       ?_Facet_Register@std@@YAXPEAV_Facet_base@1@@Z 00000001800b6148 f   msvcprt:locale0_implib.obj
 0001:000b5185       ?_Getgloballocale@locale@std@@CAPEAV_Locimp@12@XZ 00000001800b6185 f   msvcprt:MSVCP140.dll
 0001:000b518b       ??1?$basic_streambuf@DU?$char_traits@D@std@@@std@@UEAA@XZ 00000001800b618b f   msvcprt:MSVCP140.dll
 0001:000b5191       ?imbue@?$basic_streambuf@DU?$char_traits@D@std@@@std@@MEAAXAEBVlocale@2@@Z 00000001800b6191 f   msvcprt:MSVCP140.dll
 0001:000b5197       ?sync@?$basic_streambuf@DU?$char_traits@D@std@@@std@@MEAAHXZ 00000001800b6197 f   msvcprt:MSVCP140.dll
 0001:000b519d       ?setbuf@?$basic_streambuf@DU?$char_traits@D@std@@@std@@MEAAPEAV12@PEAD_J@Z 00000001800b619d f   msvcprt:MSVCP140.dll
 0001:000b51a3       ?xsputn@?$basic_streambuf@DU?$char_traits@D@std@@@std@@MEAA_JPEBD_J@Z 00000001800b61a3 f   msvcprt:MSVCP140.dll
 0001:000b51a9       ?xsgetn@?$basic_streambuf@DU?$char_traits@D@std@@@std@@MEAA_JPEAD_J@Z 00000001800b61a9 f   msvcprt:MSVCP140.dll
 0001:000b51af       ?uflow@?$basic_streambuf@DU?$char_traits@D@std@@@std@@MEAAHXZ 00000001800b61af f   msvcprt:MSVCP140.dll
 0001:000b51b5       ?showmanyc@?$basic_streambuf@DU?$char_traits@D@std@@@std@@MEAA_JXZ 00000001800b61b5 f   msvcprt:MSVCP140.dll
 0001:000b51bb       ?_Unlock@?$basic_streambuf@DU?$char_traits@D@std@@@std@@UEAAXXZ 00000001800b61bb f   msvcprt:MSVCP140.dll
 0001:000b51c1       ?_Lock@?$basic_streambuf@DU?$char_traits@D@std@@@std@@UEAAXXZ 00000001800b61c1 f   msvcprt:MSVCP140.dll
 0001:000b5f00       __std_find_first_of_trivial_pos_1 00000001800b6f00 f   msvcprt:vector_algorithms.obj
 0001:000b5fa0       __std_find_last_of_trivial_pos_1 00000001800b6fa0 f   msvcprt:vector_algorithms.obj
 0001:000b5fb0       __std_find_trivial_1       00000001800b6fb0 f   msvcprt:vector_algorithms.obj
 0001:000b5fc0       __std_search_1             00000001800b6fc0 f   msvcprt:vector_algorithms.obj
 0001:000b5fc5       ?_Xinvalid_argument@std@@YAXPEBD@Z 00000001800b6fc5 f   msvcprt:MSVCP140.dll
 0001:000b5fcb       _Xtime_get_ticks           00000001800b6fcb f   msvcprt:MSVCP140.dll
 0001:000b5fd1       ?uncaught_exception@std@@YA_NXZ 00000001800b6fd1 f   msvcprt:MSVCP140.dll
 0001:000b5fd7       ?_Fiopen@std@@YAPEAU_iobuf@@PEBDHH@Z 00000001800b6fd7 f   msvcprt:MSVCP140.dll
 0001:000b5fdd       ?_Syserror_map@std@@YAPEBDH@Z 00000001800b6fdd f   msvcprt:MSVCP140.dll
 0001:000b5fe3       ??1facet@locale@std@@MEAA@XZ 00000001800b6fe3 f   msvcprt:MSVCP140.dll
 0001:000b5fe9       ?_Init@locale@std@@CAPEAV_Locimp@12@_N@Z 00000001800b6fe9 f   msvcprt:MSVCP140.dll
 0001:000b5fef       ?_Incref@facet@locale@std@@UEAAXXZ 00000001800b6fef f   msvcprt:MSVCP140.dll
 0001:000b5ff5       ?_Decref@facet@locale@std@@UEAAPEAV_Facet_base@3@XZ 00000001800b6ff5 f   msvcprt:MSVCP140.dll
 0001:000b5ffc       ??_L@YAXPEAX_K1P6AX0@Z2@Z  00000001800b6ffc f   MSVCRT:ehvecctr.obj
 0001:000b606c       ??_M@YAXPEAX_K1P6AX0@Z@Z   00000001800b706c f   MSVCRT:ehvecdtr.obj
 0001:000b60d8       ?__ArrayUnwind@@YAXPEAX_K1P6AX0@Z@Z 00000001800b70d8 f   MSVCRT:ehvecdtr.obj
 0001:000b6134       ??2@YAPEAX_K@Z             00000001800b7134 f   MSVCRT:new_scalar.obj
 0001:000b6170       ??3@YAXPEAX_K@Z            00000001800b7170 f   MSVCRT:delete_scalar_size.obj
 0001:000b6170       ??_V@YAXPEAX@Z             00000001800b7170 f   MSVCRT:delete_array.obj
 0001:000b6178       __scrt_acquire_startup_lock 00000001800b7178 f   MSVCRT:utility.obj
 0001:000b61b4       __scrt_dllmain_after_initialize_c 00000001800b71b4 f   MSVCRT:utility.obj
 0001:000b61e8       __scrt_dllmain_before_initialize_c 00000001800b71e8 f   MSVCRT:utility.obj
 0001:000b6200       __scrt_dllmain_crt_thread_attach 00000001800b7200 f   MSVCRT:utility.obj
 0001:000b6228       __scrt_dllmain_crt_thread_detach 00000001800b7228 f   MSVCRT:utility.obj
 0001:000b6240       __scrt_dllmain_exception_filter 00000001800b7240 f   MSVCRT:utility.obj
 0001:000b62a0       __scrt_dllmain_uninitialize_c 00000001800b72a0 f   MSVCRT:utility.obj
 0001:000b62d0       __scrt_dllmain_uninitialize_critical 00000001800b72d0 f   MSVCRT:utility.obj
 0001:000b62e4       __scrt_initialize_crt      00000001800b72e4 f   MSVCRT:utility.obj
 0001:000b6320       __scrt_initialize_onexit_tables 00000001800b7320 f   MSVCRT:utility.obj
 0001:000b63ac       __scrt_is_nonwritable_in_current_image 00000001800b73ac f   MSVCRT:utility.obj
 0001:000b6444       __scrt_release_startup_lock 00000001800b7444 f   MSVCRT:utility.obj
 0001:000b6468       __scrt_uninitialize_crt    00000001800b7468 f   MSVCRT:utility.obj
 0001:000b6494       _onexit                    00000001800b7494 f   MSVCRT:utility.obj
 0001:000b64d0       atexit                     00000001800b74d0 f   MSVCRT:utility.obj
 0001:000b64e8       _Init_thread_abort         00000001800b74e8 f   MSVCRT:thread_safe_statics.obj
 0001:000b6524       _Init_thread_footer        00000001800b7524 f   MSVCRT:thread_safe_statics.obj
 0001:000b6590       _Init_thread_header        00000001800b7590 f   MSVCRT:thread_safe_statics.obj
 0001:000b660c       __GSHandlerCheck           00000001800b760c f   MSVCRT:gshandler.obj
 0001:000b662c       __GSHandlerCheckCommon     00000001800b762c f   MSVCRT:gshandler.obj
 0001:000b668c       __GSHandlerCheck_EH4       00000001800b768c f   MSVCRT:gshandlereh4.obj
 0001:000b670c       __GSHandlerCheck_SEH       00000001800b770c f   MSVCRT:gshandlerseh.obj
 0001:000b67b0       __security_check_cookie    00000001800b77b0 f   MSVCRT:amdsecgs.obj
 0001:000b67d0       ??_Etype_info@@UEAAPEAXI@Z 00000001800b77d0 f i MSVCRT:std_type_info_static.obj
 0001:000b67d0       ??_Gtype_info@@UEAAPEAXI@Z 00000001800b77d0 f i MSVCRT:std_type_info_static.obj
 0001:000b6b10       _DllMainCRTStartup         00000001800b7b10 f   MSVCRT:dll_dllmain.obj
 0001:000b6b50       __raise_securityfailure    00000001800b7b50 f   MSVCRT:gs_report.obj
 0001:000b6b84       __report_gsfailure         00000001800b7b84 f   MSVCRT:gs_report.obj
 0001:000b6c58       __report_rangecheckfailure 00000001800b7c58 f   MSVCRT:gs_report.obj
 0001:000b6c6c       __report_securityfailure   00000001800b7c6c f   MSVCRT:gs_report.obj
 0001:000b6df0       ??_U@YAPEAX_KAEBUnothrow_t@std@@@Z 00000001800b7df0 f   MSVCRT:new_array_nothrow.obj
 0001:000b6e04       ??_U@YAPEAX_K@Z            00000001800b7e04 f   MSVCRT:new_array.obj
 0001:000b6e20       __chkstk                   00000001800b7e20 f   MSVCRT:chkstk.obj
 0001:000b6e20       _alloca_probe              00000001800b7e20 f   MSVCRT:chkstk.obj
 0001:000b6e70       __dyn_tls_dtor             00000001800b7e70 f   MSVCRT:tlsdtor.obj
 0001:000b6f18       __tlregdtor                00000001800b7f18 f   MSVCRT:tlsdtor.obj
 0001:000b6fb4       __dyn_tls_init             00000001800b7fb4 f   MSVCRT:tlsdyn.obj
 0001:000b701c       __isa_available_init       00000001800b801c f   MSVCRT:cpu_disp.obj
 0001:000b72b4       ?__scrt_throw_std_bad_alloc@@YAXXZ 00000001800b82b4 f   MSVCRT:throw_bad_alloc.obj
 0001:000b72d4       ??3@YAXPEAX@Z              00000001800b82d4 f   MSVCRT:delete_scalar.obj
 0001:000b72dc       _get_startup_argv_mode     00000001800b82dc f   MSVCRT:argv_mode.obj
 0001:000b72e4       __scrt_is_ucrt_dll_in_use  00000001800b82e4 f   MSVCRT:ucrt_detection.obj
 0001:000b72f0       __crt_debugger_hook        00000001800b82f0 f   MSVCRT:utility_desktop.obj
 0001:000b72fc       __scrt_fastfail            00000001800b82fc f   MSVCRT:utility_desktop.obj
 0001:000b7448       __security_init_cookie     00000001800b8448 f   MSVCRT:gs_support.obj
 0001:000b74f8       ?__scrt_initialize_type_info@@YAXXZ 00000001800b84f8 f   MSVCRT:tncleanup.obj
 0001:000b7508       ?__scrt_uninitialize_type_info@@YAXXZ 00000001800b8508 f   MSVCRT:tncleanup.obj
 0001:000b7514       __local_stdio_scanf_options 00000001800b8514 f i MSVCRT:default_local_stdio_options.obj
 0001:000b751c       __scrt_initialize_default_local_stdio_options 00000001800b851c f   MSVCRT:default_local_stdio_options.obj
 0001:000b7538       __scrt_get_dyn_tls_init_callback 00000001800b8538 f   MSVCRT:dyn_tls_init.obj
 0001:000b7540       _RTC_Initialize            00000001800b8540 f   MSVCRT:initsect.obj
 0001:000b757c       _RTC_Terminate             00000001800b857c f   MSVCRT:initsect.obj
 0001:000b75c0       __std_exception_copy       00000001800b85c0 f   vcruntime:VCRUNTIME140.dll
 0001:000b75c6       __std_exception_destroy    00000001800b85c6 f   vcruntime:VCRUNTIME140.dll
 0001:000b75cc       _CxxThrowException         00000001800b85cc f   vcruntime:VCRUNTIME140.dll
 0001:000b75d2       __C_specific_handler       00000001800b85d2 f   vcruntime:VCRUNTIME140.dll
 0001:000b75d8       __CxxFrameHandler4         00000001800b85d8 f   vcruntime:VCRUNTIME140_1.dll
 0001:000b75de       memcmp                     00000001800b85de f   vcruntime:VCRUNTIME140.dll
 0001:000b75e4       memcpy                     00000001800b85e4 f   vcruntime:VCRUNTIME140.dll
 0001:000b75ea       memmove                    00000001800b85ea f   vcruntime:VCRUNTIME140.dll
 0001:000b75f0       memset                     00000001800b85f0 f   vcruntime:VCRUNTIME140.dll
 0001:000b75f6       __std_terminate            00000001800b85f6 f   vcruntime:VCRUNTIME140.dll
 0001:000b75fc       _purecall                  00000001800b85fc f   vcruntime:VCRUNTIME140.dll
 0001:000b7602       __current_exception        00000001800b8602 f   vcruntime:VCRUNTIME140.dll
 0001:000b7608       __current_exception_context 00000001800b8608 f   vcruntime:VCRUNTIME140.dll
 0001:000b760e       __std_type_info_destroy_list 00000001800b860e f   vcruntime:VCRUNTIME140.dll
 0001:000b7614       free                       00000001800b8614 f   ucrt:api-ms-win-crt-heap-l1-1-0.dll
 0001:000b761a       malloc                     00000001800b861a f   ucrt:api-ms-win-crt-heap-l1-1-0.dll
 0001:000b7620       terminate                  00000001800b8620 f   ucrt:api-ms-win-crt-runtime-l1-1-0.dll
 0001:000b7626       ceilf                      00000001800b8626 f   ucrt:api-ms-win-crt-math-l1-1-0.dll
 0001:000b762c       sqrtf                      00000001800b862c f   ucrt:api-ms-win-crt-math-l1-1-0.dll
 0001:000b7632       strlen                     00000001800b8632 f   ucrt:api-ms-win-crt-string-l1-1-0.dll
 0001:000b7638       floorf                     00000001800b8638 f   ucrt:api-ms-win-crt-math-l1-1-0.dll
 0001:000b763e       acosf                      00000001800b863e f   ucrt:api-ms-win-crt-math-l1-1-0.dll
 0001:000b7644       sinf                       00000001800b8644 f   ucrt:api-ms-win-crt-math-l1-1-0.dll
 0001:000b764a       _dclass                    00000001800b864a f   ucrt:api-ms-win-crt-math-l1-1-0.dll
 0001:000b7650       strcmp                     00000001800b8650 f   ucrt:api-ms-win-crt-string-l1-1-0.dll
 0001:000b7656       abort                      00000001800b8656 f   ucrt:api-ms-win-crt-runtime-l1-1-0.dll
 0001:000b765c       _callnewh                  00000001800b865c f   ucrt:api-ms-win-crt-heap-l1-1-0.dll
 0001:000b7662       _seh_filter_dll            00000001800b8662 f   ucrt:api-ms-win-crt-runtime-l1-1-0.dll
 0001:000b7668       _configure_narrow_argv     00000001800b8668 f   ucrt:api-ms-win-crt-runtime-l1-1-0.dll
 0001:000b766e       _initialize_narrow_environment 00000001800b866e f   ucrt:api-ms-win-crt-runtime-l1-1-0.dll
 0001:000b7674       _initialize_onexit_table   00000001800b8674 f   ucrt:api-ms-win-crt-runtime-l1-1-0.dll
 0001:000b767a       _register_onexit_function  00000001800b867a f   ucrt:api-ms-win-crt-runtime-l1-1-0.dll
 0001:000b7680       _execute_onexit_table      00000001800b8680 f   ucrt:api-ms-win-crt-runtime-l1-1-0.dll
 0001:000b7686       _crt_atexit                00000001800b8686 f   ucrt:api-ms-win-crt-runtime-l1-1-0.dll
 0001:000b768c       _cexit                     00000001800b868c f   ucrt:api-ms-win-crt-runtime-l1-1-0.dll
 0001:000b7692       _initterm                  00000001800b8692 f   ucrt:api-ms-win-crt-runtime-l1-1-0.dll
 0001:000b7698       _initterm_e                00000001800b8698 f   ucrt:api-ms-win-crt-runtime-l1-1-0.dll
 0001:000b76a0       __acrt_initialize          00000001800b86a0 f   MSVCRT:ucrt_stubs.obj
 0001:000b76a0       __acrt_thread_attach       00000001800b86a0 f   MSVCRT:ucrt_stubs.obj
 0001:000b76a0       __acrt_thread_detach       00000001800b86a0 f   MSVCRT:ucrt_stubs.obj
 0001:000b76a0       __acrt_uninitialize        00000001800b86a0 f   MSVCRT:ucrt_stubs.obj
 0001:000b76a0       __acrt_uninitialize_critical 00000001800b86a0 f   MSVCRT:ucrt_stubs.obj
 0001:000b76a0       __scrt_stub_for_acrt_initialize 00000001800b86a0 f   MSVCRT:ucrt_stubs.obj
 0001:000b76a0       __scrt_stub_for_acrt_thread_attach 00000001800b86a0 f   MSVCRT:ucrt_stubs.obj
 0001:000b76a0       __scrt_stub_for_acrt_thread_detach 00000001800b86a0 f   MSVCRT:ucrt_stubs.obj
 0001:000b76a0       __scrt_stub_for_acrt_uninitialize 00000001800b86a0 f   MSVCRT:ucrt_stubs.obj
 0001:000b76a0       __scrt_stub_for_acrt_uninitialize_critical 00000001800b86a0 f   MSVCRT:ucrt_stubs.obj
 0001:000b76a0       __vcrt_initialize          00000001800b86a0 f   MSVCRT:ucrt_stubs.obj
 0001:000b76a0       __vcrt_thread_attach       00000001800b86a0 f   MSVCRT:ucrt_stubs.obj
 0001:000b76a0       __vcrt_thread_detach       00000001800b86a0 f   MSVCRT:ucrt_stubs.obj
 0001:000b76a0       __vcrt_uninitialize        00000001800b86a0 f   MSVCRT:ucrt_stubs.obj
 0001:000b76a0       __vcrt_uninitialize_critical 00000001800b86a0 f   MSVCRT:ucrt_stubs.obj
 0001:000b76c0       _guard_dispatch_icall_nop  00000001800b86c0 f   MSVCRT:guard_dispatch.obj
 0001:000b76e0       _guard_xfg_dispatch_icall_nop 00000001800b86e0 f   MSVCRT:guard_xfg_dispatch.obj
 0001:000bbe40       ??__Fnotified50@?O@??HandleBuildProgressUpdate@PacketHandler@kmp@@CAXAEAVPacketReader@2@@Z@YAXXZ 00000001800bce40 f i packet_handler.obj
 0001:000bbf40       ??__Fcontext@?1??get_context@mdc@spdlog@@SAAEAV?$map@V?$basic_string@DU?$char_traits@D@std@@V?$allocator@D@2@@std@@V12@U?$less@V?$basic_string@DU?$char_traits@D@std@@V?$allocator@D@2@@std@@@2@V?$allocator@U?$pair@$$CBV?$basic_string@DU?$char_traits@D@std@@V?$allocator@D@2@@std@@V12@@std@@@2@@std@@XZ@YAXXZ 00000001800bcf40 f i spdlog:spdlog.obj
 0002:00000000       __imp_InitializeSListHead  00000001800be000     kernel32:KERNEL32.dll
 0002:00000008       __imp_GetSystemTimeAsFileTime 00000001800be008     kernel32:KERNEL32.dll
 0002:00000010       __imp_QueryPerformanceCounter 00000001800be010     kernel32:KERNEL32.dll
 0002:00000018       __imp_IsDebuggerPresent    00000001800be018     kernel32:KERNEL32.dll
 0002:00000020       __imp_IsProcessorFeaturePresent 00000001800be020     kernel32:KERNEL32.dll
 0002:00000028       __imp_TerminateProcess     00000001800be028     kernel32:KERNEL32.dll
 0002:00000030       __imp_SetUnhandledExceptionFilter 00000001800be030     kernel32:KERNEL32.dll
 0002:00000038       __imp_UnhandledExceptionFilter 00000001800be038     kernel32:KERNEL32.dll
 0002:00000040       __imp_RtlVirtualUnwind     00000001800be040     kernel32:KERNEL32.dll
 0002:00000048       __imp_RtlLookupFunctionEntry 00000001800be048     kernel32:KERNEL32.dll
 0002:00000050       __imp_RtlCaptureContext    00000001800be050     kernel32:KERNEL32.dll
 0002:00000058       __imp_WakeAllConditionVariable 00000001800be058     kernel32:KERNEL32.dll
 0002:00000060       __imp_SleepConditionVariableSRW 00000001800be060     kernel32:KERNEL32.dll
 0002:00000068       __imp_AcquireSRWLockShared 00000001800be068     kernel32:KERNEL32.dll
 0002:00000070       __imp_AcquireSRWLockExclusive 00000001800be070     kernel32:KERNEL32.dll
 0002:00000078       __imp_ReleaseSRWLockShared 00000001800be078     kernel32:KERNEL32.dll
 0002:00000080       __imp_ReleaseSRWLockExclusive 00000001800be080     kernel32:KERNEL32.dll
 0002:00000088       __imp_VirtualAlloc         00000001800be088     kernel32:KERNEL32.dll
 0002:00000090       __imp_GetSystemInfo        00000001800be090     kernel32:KERNEL32.dll
 0002:00000098       __imp_Thread32Next         00000001800be098     kernel32:KERNEL32.dll
 0002:000000a0       __imp_Thread32First        00000001800be0a0     kernel32:KERNEL32.dll
 0002:000000a8       __imp_CreateToolhelp32Snapshot 00000001800be0a8     kernel32:KERNEL32.dll
 0002:000000b0       __imp_FlushInstructionCache 00000001800be0b0     kernel32:KERNEL32.dll
 0002:000000b8       __imp_SetThreadContext     00000001800be0b8     kernel32:KERNEL32.dll
 0002:000000c0       __imp_GetThreadContext     00000001800be0c0     kernel32:KERNEL32.dll
 0002:000000c8       __imp_ResumeThread         00000001800be0c8     kernel32:KERNEL32.dll
 0002:000000d0       __imp_SuspendThread        00000001800be0d0     kernel32:KERNEL32.dll
 0002:000000d8       __imp_OpenThread           00000001800be0d8     kernel32:KERNEL32.dll
 0002:000000e0       __imp_GetCurrentProcess    00000001800be0e0     kernel32:KERNEL32.dll
 0002:000000e8       __imp_HeapFree             00000001800be0e8     kernel32:KERNEL32.dll
 0002:000000f0       __imp_DisableThreadLibraryCalls 00000001800be0f0     kernel32:KERNEL32.dll
 0002:000000f8       __imp_OutputDebugStringA   00000001800be0f8     kernel32:KERNEL32.dll
 0002:00000100       __imp_GetCurrentProcessId  00000001800be100     kernel32:KERNEL32.dll
 0002:00000108       __imp_VirtualProtect       00000001800be108     kernel32:KERNEL32.dll
 0002:00000110       __imp_GetModuleHandleA     00000001800be110     kernel32:KERNEL32.dll
 0002:00000118       __imp_GetTickCount64       00000001800be118     kernel32:KERNEL32.dll
 0002:00000120       __imp_VirtualQuery         00000001800be120     kernel32:KERNEL32.dll
 0002:00000128       __imp_GetProcAddress       00000001800be128     kernel32:KERNEL32.dll
 0002:00000130       __imp_GetFileAttributesA   00000001800be130     kernel32:KERNEL32.dll
 0002:00000138       __imp_CloseHandle          00000001800be138     kernel32:KERNEL32.dll
 0002:00000140       __imp_GetLastError         00000001800be140     kernel32:KERNEL32.dll
 0002:00000148       __imp_CreateProcessA       00000001800be148     kernel32:KERNEL32.dll
 0002:00000150       __imp_GetModuleFileNameA   00000001800be150     kernel32:KERNEL32.dll
 0002:00000158       __imp_GetModuleHandleExA   00000001800be158     kernel32:KERNEL32.dll
 0002:00000160       __imp_CreateDirectoryA     00000001800be160     kernel32:KERNEL32.dll
 0002:00000168       __imp_VirtualFree          00000001800be168     kernel32:KERNEL32.dll
 0002:00000170       __imp_Sleep                00000001800be170     kernel32:KERNEL32.dll
 0002:00000178       __imp_GetCurrentThreadId   00000001800be178     kernel32:KERNEL32.dll
 0002:00000180       __imp_GetDynamicTimeZoneInformation 00000001800be180     kernel32:KERNEL32.dll
 0002:00000188       __imp_GetStdHandle         00000001800be188     kernel32:KERNEL32.dll
 0002:00000190       __imp_WriteFile            00000001800be190     kernel32:KERNEL32.dll
 0002:00000198       __imp_GetConsoleMode       00000001800be198     kernel32:KERNEL32.dll
 0002:000001a0       __imp_WriteConsoleA        00000001800be1a0     kernel32:KERNEL32.dll
 0002:000001a8       __imp_GetConsoleScreenBufferInfo 00000001800be1a8     kernel32:KERNEL32.dll
 0002:000001b0       __imp_SetConsoleTextAttribute 00000001800be1b0     kernel32:KERNEL32.dll
 0002:000001b8       __imp_HeapCreate           00000001800be1b8     kernel32:KERNEL32.dll
 0002:000001c0       __imp_HeapAlloc            00000001800be1c0     kernel32:KERNEL32.dll
 0002:000001c8       __imp_HeapReAlloc          00000001800be1c8     kernel32:KERNEL32.dll
 0002:000001d0       \177KERNEL32_NULL_THUNK_DATA 00000001800be1d0     kernel32:KERNEL32.dll
 0002:000001d8       __imp_??0_Locinfo@std@@QEAA@PEBD@Z 00000001800be1d8     msvcprt:MSVCP140.dll
 0002:000001e0       __imp_??1_Locinfo@std@@QEAA@XZ 00000001800be1e0     msvcprt:MSVCP140.dll
 0002:000001e8       __imp_?_Getfalse@_Locinfo@std@@QEBAPEBDXZ 00000001800be1e8     msvcprt:MSVCP140.dll
 0002:000001f0       __imp_?_Gettrue@_Locinfo@std@@QEBAPEBDXZ 00000001800be1f0     msvcprt:MSVCP140.dll
 0002:000001f8       __imp_?c_str@?$_Yarn@D@std@@QEBAPEBDXZ 00000001800be1f8     msvcprt:MSVCP140.dll
 0002:00000200       __imp_??0facet@locale@std@@IEAA@_K@Z 00000001800be200     msvcprt:MSVCP140.dll
 0002:00000208       __imp_??1facet@locale@std@@MEAA@XZ 00000001800be208     msvcprt:MSVCP140.dll
 0002:00000210       __imp_?_Init@locale@std@@CAPEAV_Locimp@12@_N@Z 00000001800be210     msvcprt:MSVCP140.dll
 0002:00000218       __imp_?_Incref@facet@locale@std@@UEAAXXZ 00000001800be218     msvcprt:MSVCP140.dll
 0002:00000220       __imp_?_Decref@facet@locale@std@@UEAAPEAV_Facet_base@3@XZ 00000001800be220     msvcprt:MSVCP140.dll
 0002:00000228       __imp_?id@?$numpunct@D@std@@2V0locale@2@A 00000001800be228     msvcprt:MSVCP140.dll
 0002:00000230       __imp_?_Syserror_map@std@@YAPEBDH@Z 00000001800be230     msvcprt:MSVCP140.dll
 0002:00000238       __imp_?id@?$codecvt@DDU_Mbstatet@@@std@@2V0locale@2@A 00000001800be238     msvcprt:MSVCP140.dll
 0002:00000240       __imp_?_Fiopen@std@@YAPEAU_iobuf@@PEBDHH@Z 00000001800be240     msvcprt:MSVCP140.dll
 0002:00000248       __imp_?flush@?$basic_ostream@DU?$char_traits@D@std@@@std@@QEAAAEAV12@XZ 00000001800be248     msvcprt:MSVCP140.dll
 0002:00000250       __imp_?_Osfx@?$basic_ostream@DU?$char_traits@D@std@@@std@@QEAAXXZ 00000001800be250     msvcprt:MSVCP140.dll
 0002:00000258       __imp_??1?$basic_ostream@DU?$char_traits@D@std@@@std@@UEAA@XZ 00000001800be258     msvcprt:MSVCP140.dll
 0002:00000260       __imp_??0?$basic_ostream@DU?$char_traits@D@std@@@std@@QEAA@PEAV?$basic_streambuf@DU?$char_traits@D@std@@@1@_N@Z 00000001800be260     msvcprt:MSVCP140.dll
 0002:00000268       __imp_?fill@?$basic_ios@DU?$char_traits@D@std@@@std@@QEBADXZ 00000001800be268     msvcprt:MSVCP140.dll
 0002:00000270       __imp_?tie@?$basic_ios@DU?$char_traits@D@std@@@std@@QEBAPEAV?$basic_ostream@DU?$char_traits@D@std@@@2@XZ 00000001800be270     msvcprt:MSVCP140.dll
 0002:00000278       __imp_?clear@?$basic_ios@DU?$char_traits@D@std@@@std@@QEAAXH_N@Z 00000001800be278     msvcprt:MSVCP140.dll
 0002:00000280       __imp_?_Init@?$basic_streambuf@DU?$char_traits@D@std@@@std@@IEAAXPEAPEAD0PEAH001@Z 00000001800be280     msvcprt:MSVCP140.dll
 0002:00000288       __imp_?_Init@?$basic_streambuf@DU?$char_traits@D@std@@@std@@IEAAXXZ 00000001800be288     msvcprt:MSVCP140.dll
 0002:00000290       __imp_?_Pnavail@?$basic_streambuf@DU?$char_traits@D@std@@@std@@IEBA_JXZ 00000001800be290     msvcprt:MSVCP140.dll
 0002:00000298       __imp_?pbump@?$basic_streambuf@DU?$char_traits@D@std@@@std@@IEAAXH@Z 00000001800be298     msvcprt:MSVCP140.dll
 0002:000002a0       __imp_?_Xlength_error@std@@YAXPEBD@Z 00000001800be2a0     msvcprt:MSVCP140.dll
 0002:000002a8       __imp_?_Xout_of_range@std@@YAXPEBD@Z 00000001800be2a8     msvcprt:MSVCP140.dll
 0002:000002b0       __imp__Query_perf_counter  00000001800be2b0     msvcprt:MSVCP140.dll
 0002:000002b8       __imp__Query_perf_frequency 00000001800be2b8     msvcprt:MSVCP140.dll
 0002:000002c0       __imp__Thrd_join           00000001800be2c0     msvcprt:MSVCP140.dll
 0002:000002c8       __imp__Thrd_id             00000001800be2c8     msvcprt:MSVCP140.dll
 0002:000002d0       __imp__Mtx_lock            00000001800be2d0     msvcprt:MSVCP140.dll
 0002:000002d8       __imp__Mtx_unlock          00000001800be2d8     msvcprt:MSVCP140.dll
 0002:000002e0       __imp__Cnd_do_broadcast_at_thread_exit 00000001800be2e0     msvcprt:MSVCP140.dll
 0002:000002e8       __imp_?_Throw_Cpp_error@std@@YAXH@Z 00000001800be2e8     msvcprt:MSVCP140.dll
 0002:000002f0       __imp_?_Xbad_function_call@std@@YAXXZ 00000001800be2f0     msvcprt:MSVCP140.dll
 0002:000002f8       __imp__Cnd_wait            00000001800be2f8     msvcprt:MSVCP140.dll
 0002:00000300       __imp__Cnd_broadcast       00000001800be300     msvcprt:MSVCP140.dll
 0002:00000308       __imp__Cnd_signal          00000001800be308     msvcprt:MSVCP140.dll
 0002:00000310       __imp_??0_Lockit@std@@QEAA@H@Z 00000001800be310     msvcprt:MSVCP140.dll
 0002:00000318       __imp_??1_Lockit@std@@QEAA@XZ 00000001800be318     msvcprt:MSVCP140.dll
 0002:00000320       __imp_?_Xbad_alloc@std@@YAXXZ 00000001800be320     msvcprt:MSVCP140.dll
 0002:00000328       __imp_?_Getgloballocale@locale@std@@CAPEAV_Locimp@12@XZ 00000001800be328     msvcprt:MSVCP140.dll
 0002:00000330       __imp_?_Getcat@?$ctype@D@std@@SA_KPEAPEBVfacet@locale@2@PEBV42@@Z 00000001800be330     msvcprt:MSVCP140.dll
 0002:00000338       __imp_??Bios_base@std@@QEBA_NXZ 00000001800be338     msvcprt:MSVCP140.dll
 0002:00000340       __imp_??7ios_base@std@@QEBA_NXZ 00000001800be340     msvcprt:MSVCP140.dll
 0002:00000348       __imp_?width@ios_base@std@@QEBA_JXZ 00000001800be348     msvcprt:MSVCP140.dll
 0002:00000350       __imp_?width@ios_base@std@@QEAA_J_J@Z 00000001800be350     msvcprt:MSVCP140.dll
 0002:00000358       __imp_?getloc@ios_base@std@@QEBA?AVlocale@2@XZ 00000001800be358     msvcprt:MSVCP140.dll
 0002:00000360       __imp_??0?$basic_streambuf@DU?$char_traits@D@std@@@std@@IEAA@XZ 00000001800be360     msvcprt:MSVCP140.dll
 0002:00000368       __imp_??1?$basic_streambuf@DU?$char_traits@D@std@@@std@@UEAA@XZ 00000001800be368     msvcprt:MSVCP140.dll
 0002:00000370       __imp_?sgetc@?$basic_streambuf@DU?$char_traits@D@std@@@std@@QEAAHXZ 00000001800be370     msvcprt:MSVCP140.dll
 0002:00000378       __imp_?snextc@?$basic_streambuf@DU?$char_traits@D@std@@@std@@QEAAHXZ 00000001800be378     msvcprt:MSVCP140.dll
 0002:00000380       __imp_?eback@?$basic_streambuf@DU?$char_traits@D@std@@@std@@IEBAPEADXZ 00000001800be380     msvcprt:MSVCP140.dll
 0002:00000388       __imp_?gptr@?$basic_streambuf@DU?$char_traits@D@std@@@std@@IEBAPEADXZ 00000001800be388     msvcprt:MSVCP140.dll
 0002:00000390       __imp_?pptr@?$basic_streambuf@DU?$char_traits@D@std@@@std@@IEBAPEADXZ 00000001800be390     msvcprt:MSVCP140.dll
 0002:00000398       __imp_?egptr@?$basic_streambuf@DU?$char_traits@D@std@@@std@@IEBAPEADXZ 00000001800be398     msvcprt:MSVCP140.dll
 0002:000003a0       __imp_?gbump@?$basic_streambuf@DU?$char_traits@D@std@@@std@@IEAAXH@Z 00000001800be3a0     msvcprt:MSVCP140.dll
 0002:000003a8       __imp_?setg@?$basic_streambuf@DU?$char_traits@D@std@@@std@@IEAAXPEAD00@Z 00000001800be3a8     msvcprt:MSVCP140.dll
 0002:000003b0       __imp_?epptr@?$basic_streambuf@DU?$char_traits@D@std@@@std@@IEBAPEADXZ 00000001800be3b0     msvcprt:MSVCP140.dll
 0002:000003b8       __imp_?setp@?$basic_streambuf@DU?$char_traits@D@std@@@std@@IEAAXPEAD0@Z 00000001800be3b8     msvcprt:MSVCP140.dll
 0002:000003c0       __imp_?setp@?$basic_streambuf@DU?$char_traits@D@std@@@std@@IEAAXPEAD00@Z 00000001800be3c0     msvcprt:MSVCP140.dll
 0002:000003c8       __imp_?_Pninc@?$basic_streambuf@DU?$char_traits@D@std@@@std@@IEAAPEADXZ 00000001800be3c8     msvcprt:MSVCP140.dll
 0002:000003d0       __imp_??1?$basic_ios@DU?$char_traits@D@std@@@std@@UEAA@XZ 00000001800be3d0     msvcprt:MSVCP140.dll
 0002:000003d8       __imp_?setstate@?$basic_ios@DU?$char_traits@D@std@@@std@@QEAAXH_N@Z 00000001800be3d8     msvcprt:MSVCP140.dll
 0002:000003e0       __imp_?rdbuf@?$basic_ios@DU?$char_traits@D@std@@@std@@QEBAPEAV?$basic_streambuf@DU?$char_traits@D@std@@@2@XZ 00000001800be3e0     msvcprt:MSVCP140.dll
 0002:000003e8       __imp_??0?$basic_ios@DU?$char_traits@D@std@@@std@@IEAA@XZ 00000001800be3e8     msvcprt:MSVCP140.dll
 0002:000003f0       __imp_??0?$basic_istream@DU?$char_traits@D@std@@@std@@QEAA@PEAV?$basic_streambuf@DU?$char_traits@D@std@@@1@_N@Z 00000001800be3f0     msvcprt:MSVCP140.dll
 0002:000003f8       __imp_??1?$basic_istream@DU?$char_traits@D@std@@@std@@UEAA@XZ 00000001800be3f8     msvcprt:MSVCP140.dll
 0002:00000400       __imp_?_Ipfx@?$basic_istream@DU?$char_traits@D@std@@@std@@QEAA_N_N@Z 00000001800be400     msvcprt:MSVCP140.dll
 0002:00000408       __imp_?imbue@?$basic_streambuf@DU?$char_traits@D@std@@@std@@MEAAXAEBVlocale@2@@Z 00000001800be408     msvcprt:MSVCP140.dll
 0002:00000410       __imp_?sync@?$basic_streambuf@DU?$char_traits@D@std@@@std@@MEAAHXZ 00000001800be410     msvcprt:MSVCP140.dll
 0002:00000418       __imp_?setbuf@?$basic_streambuf@DU?$char_traits@D@std@@@std@@MEAAPEAV12@PEAD_J@Z 00000001800be418     msvcprt:MSVCP140.dll
 0002:00000420       __imp_?xsputn@?$basic_streambuf@DU?$char_traits@D@std@@@std@@MEAA_JPEBD_J@Z 00000001800be420     msvcprt:MSVCP140.dll
 0002:00000428       __imp_?xsgetn@?$basic_streambuf@DU?$char_traits@D@std@@@std@@MEAA_JPEAD_J@Z 00000001800be428     msvcprt:MSVCP140.dll
 0002:00000430       __imp_?uflow@?$basic_streambuf@DU?$char_traits@D@std@@@std@@MEAAHXZ 00000001800be430     msvcprt:MSVCP140.dll
 0002:00000438       __imp_?showmanyc@?$basic_streambuf@DU?$char_traits@D@std@@@std@@MEAA_JXZ 00000001800be438     msvcprt:MSVCP140.dll
 0002:00000440       __imp_?_Unlock@?$basic_streambuf@DU?$char_traits@D@std@@@std@@UEAAXXZ 00000001800be440     msvcprt:MSVCP140.dll
 0002:00000448       __imp_?_Lock@?$basic_streambuf@DU?$char_traits@D@std@@@std@@UEAAXXZ 00000001800be448     msvcprt:MSVCP140.dll
 0002:00000450       __imp_?_Id_cnt@id@locale@std@@0HA 00000001800be450     msvcprt:MSVCP140.dll
 0002:00000458       __imp_?id@?$ctype@D@std@@2V0locale@2@A 00000001800be458     msvcprt:MSVCP140.dll
 0002:00000460       __imp_?_Xinvalid_argument@std@@YAXPEBD@Z 00000001800be460     msvcprt:MSVCP140.dll
 0002:00000468       __imp__Xtime_get_ticks     00000001800be468     msvcprt:MSVCP140.dll
 0002:00000470       __imp_?sbumpc@?$basic_streambuf@DU?$char_traits@D@std@@@std@@QEAAHXZ 00000001800be470     msvcprt:MSVCP140.dll
 0002:00000478       __imp_?widen@?$basic_ios@DU?$char_traits@D@std@@@std@@QEBADD@Z 00000001800be478     msvcprt:MSVCP140.dll
 0002:00000480       __imp_?uncaught_exception@std@@YA_NXZ 00000001800be480     msvcprt:MSVCP140.dll
 0002:00000488       __imp_?_Getcvt@_Locinfo@std@@QEBA?AU_Cvtvec@@XZ 00000001800be488     msvcprt:MSVCP140.dll
 0002:00000490       __imp_?always_noconv@codecvt_base@std@@QEBA_NXZ 00000001800be490     msvcprt:MSVCP140.dll
 0002:00000498       __imp_?in@?$codecvt@DDU_Mbstatet@@@std@@QEBAHAEAU_Mbstatet@@PEBD1AEAPEBDPEAD3AEAPEAD@Z 00000001800be498     msvcprt:MSVCP140.dll
 0002:000004a0       __imp_?out@?$codecvt@DDU_Mbstatet@@@std@@QEBAHAEAU_Mbstatet@@PEBD1AEAPEBDPEAD3AEAPEAD@Z 00000001800be4a0     msvcprt:MSVCP140.dll
 0002:000004a8       __imp_?unshift@?$codecvt@DDU_Mbstatet@@@std@@QEBAHAEAU_Mbstatet@@PEAD1AEAPEAD@Z 00000001800be4a8     msvcprt:MSVCP140.dll
 0002:000004b0       __imp_?_Getcat@?$codecvt@DDU_Mbstatet@@@std@@SA_KPEAPEBVfacet@locale@2@PEBV42@@Z 00000001800be4b0     msvcprt:MSVCP140.dll
 0002:000004b8       __imp_?rdstate@ios_base@std@@QEBAHXZ 00000001800be4b8     msvcprt:MSVCP140.dll
 0002:000004c0       __imp_?good@ios_base@std@@QEBA_NXZ 00000001800be4c0     msvcprt:MSVCP140.dll
 0002:000004c8       __imp_?flags@ios_base@std@@QEBAHXZ 00000001800be4c8     msvcprt:MSVCP140.dll
 0002:000004d0       __imp_?getloc@?$basic_streambuf@DU?$char_traits@D@std@@@std@@QEBA?AVlocale@2@XZ 00000001800be4d0     msvcprt:MSVCP140.dll
 0002:000004d8       __imp_?sputc@?$basic_streambuf@DU?$char_traits@D@std@@@std@@QEAAHD@Z 00000001800be4d8     msvcprt:MSVCP140.dll
 0002:000004e0       __imp_?sputn@?$basic_streambuf@DU?$char_traits@D@std@@@std@@QEAA_JPEBD_J@Z 00000001800be4e0     msvcprt:MSVCP140.dll
 0002:000004e8       __imp_?_Gndec@?$basic_streambuf@DU?$char_traits@D@std@@@std@@IEAAPEADXZ 00000001800be4e8     msvcprt:MSVCP140.dll
 0002:000004f0       __imp_?_Gninc@?$basic_streambuf@DU?$char_traits@D@std@@@std@@IEAAPEADXZ 00000001800be4f0     msvcprt:MSVCP140.dll
 0002:000004f8       __imp_?_Gnavail@?$basic_streambuf@DU?$char_traits@D@std@@@std@@IEBA_JXZ 00000001800be4f8     msvcprt:MSVCP140.dll
 0002:00000500       \177MSVCP140_NULL_THUNK_DATA 00000001800be500     msvcprt:MSVCP140.dll
 0002:00000508       __imp_SHGetFolderPathA     00000001800be508     shell32:SHELL32.dll
 0002:00000510       \177SHELL32_NULL_THUNK_DATA 00000001800be510     shell32:SHELL32.dll
 0002:00000518       __imp_GetActiveWindow      00000001800be518     user32:USER32.dll
 0002:00000520       __imp_SetWindowLongPtrA    00000001800be520     user32:USER32.dll
 0002:00000528       __imp_GetClientRect        00000001800be528     user32:USER32.dll
 0002:00000530       __imp_DestroyWindow        00000001800be530     user32:USER32.dll
 0002:00000538       __imp_CreateWindowExA      00000001800be538     user32:USER32.dll
 0002:00000540       __imp_RegisterClassExA     00000001800be540     user32:USER32.dll
 0002:00000548       __imp_UnregisterClassA     00000001800be548     user32:USER32.dll
 0002:00000550       __imp_CallWindowProcA      00000001800be550     user32:USER32.dll
 0002:00000558       __imp_DefWindowProcA       00000001800be558     user32:USER32.dll
 0002:00000560       \177USER32_NULL_THUNK_DATA 00000001800be560     user32:USER32.dll
 0002:00000568       __imp___std_type_info_destroy_list 00000001800be568     vcruntime:VCRUNTIME140.dll
 0002:00000570       __imp___current_exception  00000001800be570     vcruntime:VCRUNTIME140.dll
 0002:00000578       __imp__purecall            00000001800be578     vcruntime:VCRUNTIME140.dll
 0002:00000580       __imp___std_terminate      00000001800be580     vcruntime:VCRUNTIME140.dll
 0002:00000588       __imp_memset               00000001800be588     vcruntime:VCRUNTIME140.dll
 0002:00000590       __imp_memmove              00000001800be590     vcruntime:VCRUNTIME140.dll
 0002:00000598       __imp_memcpy               00000001800be598     vcruntime:VCRUNTIME140.dll
 0002:000005a0       __imp_memcmp               00000001800be5a0     vcruntime:VCRUNTIME140.dll
 0002:000005a8       __imp___C_specific_handler 00000001800be5a8     vcruntime:VCRUNTIME140.dll
 0002:000005b0       __imp__CxxThrowException   00000001800be5b0     vcruntime:VCRUNTIME140.dll
 0002:000005b8       __imp___std_exception_destroy 00000001800be5b8     vcruntime:VCRUNTIME140.dll
 0002:000005c0       __imp___std_exception_copy 00000001800be5c0     vcruntime:VCRUNTIME140.dll
 0002:000005c8       __imp___current_exception_context 00000001800be5c8     vcruntime:VCRUNTIME140.dll
 0002:000005d0       \177VCRUNTIME140_NULL_THUNK_DATA 00000001800be5d0     vcruntime:VCRUNTIME140.dll
 0002:000005d8       __imp___CxxFrameHandler4   00000001800be5d8     vcruntime:VCRUNTIME140_1.dll
 0002:000005e0       \177VCRUNTIME140_1_NULL_THUNK_DATA 00000001800be5e0     vcruntime:VCRUNTIME140_1.dll
 0002:000005e8       __imp_timeBeginPeriod      00000001800be5e8     winmm:WINMM.dll
 0002:000005f0       __imp_timeGetTime          00000001800be5f0     winmm:WINMM.dll
 0002:000005f8       __imp_timeEndPeriod        00000001800be5f8     winmm:WINMM.dll
 0002:00000600       \177WINMM_NULL_THUNK_DATA  00000001800be600     winmm:WINMM.dll
 0002:00000608       __imp_WSAStartup           00000001800be608     ws2_32:WS2_32.dll
 0002:00000610       __imp_WSACleanup           00000001800be610     ws2_32:WS2_32.dll
 0002:00000618       __imp_WSAGetLastError      00000001800be618     ws2_32:WS2_32.dll
 0002:00000620       __imp_WSARecvFrom          00000001800be620     ws2_32:WS2_32.dll
 0002:00000628       __imp_WSASendTo            00000001800be628     ws2_32:WS2_32.dll
 0002:00000630       __imp_htonl                00000001800be630     ws2_32:WS2_32.dll
 0002:00000638       __imp_ntohl                00000001800be638     ws2_32:WS2_32.dll
 0002:00000640       __imp_ntohs                00000001800be640     ws2_32:WS2_32.dll
 0002:00000648       __imp_socket               00000001800be648     ws2_32:WS2_32.dll
 0002:00000650       __imp_htons                00000001800be650     ws2_32:WS2_32.dll
 0002:00000658       __imp_getsockname          00000001800be658     ws2_32:WS2_32.dll
 0002:00000660       __imp_ioctlsocket          00000001800be660     ws2_32:WS2_32.dll
 0002:00000668       __imp_closesocket          00000001800be668     ws2_32:WS2_32.dll
 0002:00000670       __imp_bind                 00000001800be670     ws2_32:WS2_32.dll
 0002:00000678       __imp___WSAFDIsSet         00000001800be678     ws2_32:WS2_32.dll
 0002:00000680       __imp_gethostbyname        00000001800be680     ws2_32:WS2_32.dll
 0002:00000688       __imp_setsockopt           00000001800be688     ws2_32:WS2_32.dll
 0002:00000690       __imp_select               00000001800be690     ws2_32:WS2_32.dll
 0002:00000698       \177WS2_32_NULL_THUNK_DATA 00000001800be698     ws2_32:WS2_32.dll
 0002:000006a0       __imp_strtol               00000001800be6a0     ucrt:api-ms-win-crt-convert-l1-1-0.dll
 0002:000006a8       __imp_strtof               00000001800be6a8     ucrt:api-ms-win-crt-convert-l1-1-0.dll
 0002:000006b0       __imp_atoi                 00000001800be6b0     ucrt:api-ms-win-crt-convert-l1-1-0.dll
 0002:000006b8       __imp_strtod               00000001800be6b8     ucrt:api-ms-win-crt-convert-l1-1-0.dll
 0002:000006c0       __imp_strtoul              00000001800be6c0     ucrt:api-ms-win-crt-convert-l1-1-0.dll
 0002:000006c8       __imp_strtoull             00000001800be6c8     ucrt:api-ms-win-crt-convert-l1-1-0.dll
 0002:000006d0       __imp_strtoll              00000001800be6d0     ucrt:api-ms-win-crt-convert-l1-1-0.dll
 0002:000006d8       \177api-ms-win-crt-convert-l1-1-0_NULL_THUNK_DATA 00000001800be6d8     ucrt:api-ms-win-crt-convert-l1-1-0.dll
 0002:000006e0       __imp__mkdir               00000001800be6e0     ucrt:api-ms-win-crt-filesystem-l1-1-0.dll
 0002:000006e8       __imp__lock_file           00000001800be6e8     ucrt:api-ms-win-crt-filesystem-l1-1-0.dll
 0002:000006f0       __imp__unlock_file         00000001800be6f0     ucrt:api-ms-win-crt-filesystem-l1-1-0.dll
 0002:000006f8       __imp__stat64i32           00000001800be6f8     ucrt:api-ms-win-crt-filesystem-l1-1-0.dll
 0002:00000700       \177api-ms-win-crt-filesystem-l1-1-0_NULL_THUNK_DATA 00000001800be700     ucrt:api-ms-win-crt-filesystem-l1-1-0.dll
 0002:00000708       __imp_malloc               00000001800be708     ucrt:api-ms-win-crt-heap-l1-1-0.dll
 0002:00000710       __imp_calloc               00000001800be710     ucrt:api-ms-win-crt-heap-l1-1-0.dll
 0002:00000718       __imp__callnewh            00000001800be718     ucrt:api-ms-win-crt-heap-l1-1-0.dll
 0002:00000720       __imp_free                 00000001800be720     ucrt:api-ms-win-crt-heap-l1-1-0.dll
 0002:00000728       \177api-ms-win-crt-heap-l1-1-0_NULL_THUNK_DATA 00000001800be728     ucrt:api-ms-win-crt-heap-l1-1-0.dll
 0002:00000730       __imp_localeconv           00000001800be730     ucrt:api-ms-win-crt-locale-l1-1-0.dll
 0002:00000738       \177api-ms-win-crt-locale-l1-1-0_NULL_THUNK_DATA 00000001800be738     ucrt:api-ms-win-crt-locale-l1-1-0.dll
 0002:00000740       __imp_acosf                00000001800be740     ucrt:api-ms-win-crt-math-l1-1-0.dll
 0002:00000748       __imp__dclass              00000001800be748     ucrt:api-ms-win-crt-math-l1-1-0.dll
 0002:00000750       __imp__dsign               00000001800be750     ucrt:api-ms-win-crt-math-l1-1-0.dll
 0002:00000758       __imp_floorf               00000001800be758     ucrt:api-ms-win-crt-math-l1-1-0.dll
 0002:00000760       __imp_sqrtf                00000001800be760     ucrt:api-ms-win-crt-math-l1-1-0.dll
 0002:00000768       __imp_sinf                 00000001800be768     ucrt:api-ms-win-crt-math-l1-1-0.dll
 0002:00000770       __imp_ceilf                00000001800be770     ucrt:api-ms-win-crt-math-l1-1-0.dll
 0002:00000778       \177api-ms-win-crt-math-l1-1-0_NULL_THUNK_DATA 00000001800be778     ucrt:api-ms-win-crt-math-l1-1-0.dll
 0002:00000780       __imp__invoke_watson       00000001800be780     ucrt:api-ms-win-crt-runtime-l1-1-0.dll
 0002:00000788       __imp__initialize_onexit_table 00000001800be788     ucrt:api-ms-win-crt-runtime-l1-1-0.dll
 0002:00000790       __imp__initterm_e          00000001800be790     ucrt:api-ms-win-crt-runtime-l1-1-0.dll
 0002:00000798       __imp__initterm            00000001800be798     ucrt:api-ms-win-crt-runtime-l1-1-0.dll
 0002:000007a0       __imp__beginthreadex       00000001800be7a0     ucrt:api-ms-win-crt-runtime-l1-1-0.dll
 0002:000007a8       __imp_terminate            00000001800be7a8     ucrt:api-ms-win-crt-runtime-l1-1-0.dll
 0002:000007b0       __imp__cexit               00000001800be7b0     ucrt:api-ms-win-crt-runtime-l1-1-0.dll
 0002:000007b8       __imp_abort                00000001800be7b8     ucrt:api-ms-win-crt-runtime-l1-1-0.dll
 0002:000007c0       __imp__crt_atexit          00000001800be7c0     ucrt:api-ms-win-crt-runtime-l1-1-0.dll
 0002:000007c8       __imp__execute_onexit_table 00000001800be7c8     ucrt:api-ms-win-crt-runtime-l1-1-0.dll
 0002:000007d0       __imp__register_onexit_function 00000001800be7d0     ucrt:api-ms-win-crt-runtime-l1-1-0.dll
 0002:000007d8       __imp__initialize_narrow_environment 00000001800be7d8     ucrt:api-ms-win-crt-runtime-l1-1-0.dll
 0002:000007e0       __imp__configure_narrow_argv 00000001800be7e0     ucrt:api-ms-win-crt-runtime-l1-1-0.dll
 0002:000007e8       __imp__seh_filter_dll      00000001800be7e8     ucrt:api-ms-win-crt-runtime-l1-1-0.dll
 0002:000007f0       __imp__errno               00000001800be7f0     ucrt:api-ms-win-crt-runtime-l1-1-0.dll
 0002:000007f8       \177api-ms-win-crt-runtime-l1-1-0_NULL_THUNK_DATA 00000001800be7f8     ucrt:api-ms-win-crt-runtime-l1-1-0.dll
 0002:00000800       __imp___stdio_common_vsprintf_s 00000001800be800     ucrt:api-ms-win-crt-stdio-l1-1-0.dll
 0002:00000808       __imp_fwrite               00000001800be808     ucrt:api-ms-win-crt-stdio-l1-1-0.dll
 0002:00000810       __imp__fseeki64            00000001800be810     ucrt:api-ms-win-crt-stdio-l1-1-0.dll
 0002:00000818       __imp__fwrite_nolock       00000001800be818     ucrt:api-ms-win-crt-stdio-l1-1-0.dll
 0002:00000820       __imp_ungetc               00000001800be820     ucrt:api-ms-win-crt-stdio-l1-1-0.dll
 0002:00000828       __imp__fsopen              00000001800be828     ucrt:api-ms-win-crt-stdio-l1-1-0.dll
 0002:00000830       __imp___acrt_iob_func      00000001800be830     ucrt:api-ms-win-crt-stdio-l1-1-0.dll
 0002:00000838       __imp_setvbuf              00000001800be838     ucrt:api-ms-win-crt-stdio-l1-1-0.dll
 0002:00000840       __imp_fread                00000001800be840     ucrt:api-ms-win-crt-stdio-l1-1-0.dll
 0002:00000848       __imp_fputc                00000001800be848     ucrt:api-ms-win-crt-stdio-l1-1-0.dll
 0002:00000850       __imp___stdio_common_vfprintf 00000001800be850     ucrt:api-ms-win-crt-stdio-l1-1-0.dll
 0002:00000858       __imp_fgetpos              00000001800be858     ucrt:api-ms-win-crt-stdio-l1-1-0.dll
 0002:00000860       __imp_fgetc                00000001800be860     ucrt:api-ms-win-crt-stdio-l1-1-0.dll
 0002:00000868       __imp_fclose               00000001800be868     ucrt:api-ms-win-crt-stdio-l1-1-0.dll
 0002:00000870       __imp__get_stream_buffer_pointers 00000001800be870     ucrt:api-ms-win-crt-stdio-l1-1-0.dll
 0002:00000878       __imp_fsetpos              00000001800be878     ucrt:api-ms-win-crt-stdio-l1-1-0.dll
 0002:00000880       __imp___stdio_common_vsprintf 00000001800be880     ucrt:api-ms-win-crt-stdio-l1-1-0.dll
 0002:00000888       __imp_fflush               00000001800be888     ucrt:api-ms-win-crt-stdio-l1-1-0.dll
 0002:00000890       \177api-ms-win-crt-stdio-l1-1-0_NULL_THUNK_DATA 00000001800be890     ucrt:api-ms-win-crt-stdio-l1-1-0.dll
 0002:00000898       __imp_strncpy              00000001800be898     ucrt:api-ms-win-crt-string-l1-1-0.dll
 0002:000008a0       __imp_isdigit              00000001800be8a0     ucrt:api-ms-win-crt-string-l1-1-0.dll
 0002:000008a8       __imp_tolower              00000001800be8a8     ucrt:api-ms-win-crt-string-l1-1-0.dll
 0002:000008b0       __imp_strcmp               00000001800be8b0     ucrt:api-ms-win-crt-string-l1-1-0.dll
 0002:000008b8       __imp_isalnum              00000001800be8b8     ucrt:api-ms-win-crt-string-l1-1-0.dll
 0002:000008c0       __imp_strlen               00000001800be8c0     ucrt:api-ms-win-crt-string-l1-1-0.dll
 0002:000008c8       \177api-ms-win-crt-string-l1-1-0_NULL_THUNK_DATA 00000001800be8c8     ucrt:api-ms-win-crt-string-l1-1-0.dll
 0002:000008d0       __imp__localtime64_s       00000001800be8d0     ucrt:api-ms-win-crt-time-l1-1-0.dll
 0002:000008d8       __imp_strftime             00000001800be8d8     ucrt:api-ms-win-crt-time-l1-1-0.dll
 0002:000008e0       __imp__gmtime64_s          00000001800be8e0     ucrt:api-ms-win-crt-time-l1-1-0.dll
 0002:000008e8       \177api-ms-win-crt-time-l1-1-0_NULL_THUNK_DATA 00000001800be8e8     ucrt:api-ms-win-crt-time-l1-1-0.dll
 0002:000008f0       __imp_D3D11CreateDeviceAndSwapChain 00000001800be8f0     d3d11:d3d11.dll
 0002:000008f8       \177d3d11_NULL_THUNK_DATA  00000001800be8f8     d3d11:d3d11.dll
 0002:00000900       __imp_UnDecorateSymbolName 00000001800be900     dbghelp:dbghelp.dll
 0002:00000908       \177dbghelp_NULL_THUNK_DATA 00000001800be908     dbghelp:dbghelp.dll
 0002:00000910       __guard_check_icall_fptr   00000001800be910     MSVCRT:guard_support.obj
 0002:00000918       __guard_xfg_check_icall_fptr 00000001800be918     MSVCRT:guard_support.obj
 0002:00000920       __guard_dispatch_icall_fptr 00000001800be920     MSVCRT:guard_support.obj
 0002:00000928       __guard_xfg_dispatch_icall_fptr 00000001800be928     MSVCRT:guard_support.obj
 0002:00000930       __guard_xfg_table_dispatch_icall_fptr 00000001800be930     MSVCRT:guard_support.obj
 0002:00000938       __castguard_check_failure_os_handled_fptr 00000001800be938     MSVCRT:guard_support.obj
 0002:00000940       __guard_memcpy_fptr        00000001800be940     vcruntime:softmemtag.obj
 0002:00000948       __xc_a                     00000001800be948     MSVCRT:initializers.obj
 0002:000009a8       __xc_z                     00000001800be9a8     MSVCRT:initializers.obj
 0002:000009c0       __xi_a                     00000001800be9c0     MSVCRT:initializers.obj
 0002:000009c8       __xi_z                     00000001800be9c8     MSVCRT:initializers.obj
 0002:000009d0       __xl_a                     00000001800be9d0     MSVCRT:tlssup.obj
 0002:000009e8       __xl_z                     00000001800be9e8     MSVCRT:tlssup.obj
 0002:000009f0       __xp_a                     00000001800be9f0     MSVCRT:initializers.obj
 0002:000009f8       __xp_z                     00000001800be9f8     MSVCRT:initializers.obj
 0002:00000a00       __xt_a                     00000001800bea00     MSVCRT:initializers.obj
 0002:00000a08       __xt_z                     00000001800bea08     MSVCRT:initializers.obj
 0002:00000a28       ??_7exception@std@@6B@     00000001800bea28     core.obj
 0002:00000a38       ??_C@_0BC@EOODALEL@Unknown?5exception@ 00000001800bea38     core.obj
 0002:00000a58       ??_7bad_alloc@std@@6B@     00000001800bea58     core.obj
 0002:00000a68       ??_C@_0P@GHFPNOJB@bad?5allocation@ 00000001800bea68     core.obj
 0002:00000a80       ??_7bad_array_new_length@std@@6B@ 00000001800bea80     core.obj
 0002:00000a90       ??_C@_0BF@KINCDENJ@bad?5array?5new?5length@ 00000001800bea90     core.obj
 0002:00000aa8       ??_C@_0BA@JFNIOLAK@string?5too?5long@ 00000001800beaa8     core.obj
 0002:00000ab8       ??_C@_0P@OIJBFJDA@CharacterSpawn@ 00000001800beab8     core.obj
 0002:00000ac8       ??_C@_0BB@CAGOMDKM@CharacterDestroy@ 00000001800beac8     core.obj
 0002:00000ae0       ??_C@_0BF@KHJKMAIJ@CharacterSetPosition@ 00000001800beae0     core.obj
 0002:00000af8       ??_C@_0BA@BJDFIA@CharacterMoveTo@ 00000001800beaf8     core.obj
 0002:00000b08       ??_C@_0M@OKAJABCH@ApplyDamage@ 00000001800beb08     core.obj
 0002:00000b18       ??_C@_0P@KFOGKDO@CharacterDeath@ 00000001800beb18     core.obj
 0002:00000b28       ??_C@_08MCDDGGFG@ZoneLoad@ 00000001800beb28     core.obj
 0002:00000b38       ??_C@_0L@BGDPLKDA@ZoneUnload@ 00000001800beb38     core.obj
 0002:00000b48       ??_C@_0O@OEAMJDME@BuildingPlace@ 00000001800beb48     core.obj
 0002:00000b58       ??_C@_08KICFJOJB@SaveGame@ 00000001800beb58     core.obj
 0002:00000b68       ??_C@_08KHPDHAOG@LoadGame@ 00000001800beb68     core.obj
 0002:00000b78       ??_C@_0CC@ELFJMMCC@invalid?5format?5specifier?5for?5ch@ 00000001800beb78     core.obj
 0002:00000ba0       ??_C@_0BC@MDEIBHGE@number?5is?5too?5big@ 00000001800beba0     core.obj
 0002:00000bc0       ??_7logger@spdlog@@6B@     00000001800bebc0     core.obj
 0002:00000be0       ??_C@_09PFCHIMEP@127?40?40?41@ 00000001800bebe0     core.obj
 0002:00000bec       ??_C@_05NKDMJPEB@27800@    00000001800bebec     core.obj
 0002:00000bf4       ??_C@_06NPAAKFED@Player@   00000001800bebf4     core.obj
 0002:00000c00       ??_C@_0BA@JMOAPIJH@127?40?40?41?327800@ 00000001800bec00     core.obj
 0002:00000c10       ??_C@_0EG@FEPDMFOB@Core?3?5SpawnManager?5linked?5entit@ 00000001800bec10     core.obj
 0002:00000c58       ??_C@_0BI@PNKDAAAJ@Remote?5player?5spawned?3?5@ 00000001800bec58     core.obj
 0002:00000c70       ??_C@_04FPOLKAEB@?4log@    00000001800bec70     core.obj
 0002:00000c78       ??_C@_0O@MPKMCOHC@KenshiOnline_@ 00000001800bec78     core.obj
 0002:00000c88       ??_C@_0O@OJAHELGP@kenshi_online@ 00000001800bec88     core.obj
 0002:00000c98       ??_C@_0DA@PEMDOBEI@KMP?3?5?$DN?$DN?$DN?5Kenshi?9Online?5v0?41?40?5I@ 00000001800bec98     core.obj
 0002:00000cc8       ??_C@_0CN@LMHNMENE@?$DN?$DN?$DN?5Kenshi?9Online?5v?$HL?$HN?4?$HL?$HN?4?$HL?$HN?5Ini@ 00000001800becc8     core.obj
 0002:00000cf8       ??_C@_0CB@CKBLFMFC@Kenshi?5Online?5v0?41?40?5starting?4?4@ 00000001800becf8     core.obj
 0002:00000d1c       ??_C@_04LGGJDDML@INIT@     00000001800bed1c     core.obj
 0002:00000d28       ??_C@_0O@EFLEBLEK@Config?5loaded@ 00000001800bed28     core.obj
 0002:00000d38       ??_C@_0BJ@NMMLNMJA@Game?5offsets?5initialized@ 00000001800bed38     core.obj
 0002:00000d58       ??_C@_0BM@DGBCHFIF@Pattern?5scanner?5starting?4?4?4@ 00000001800bed58     core.obj
 0002:00000d78       ??_C@_0BH@LJCPLPEM@Pattern?5scanner?5FAILED@ 00000001800bed78     core.obj
 0002:00000d90       ??_C@_03JFMEENOE@ERR@      00000001800bed90     core.obj
 0002:00000d98       ??_C@_0CI@DJLDHABI@Pattern?5scanner?5resolved?5game?5f@ 00000001800bed98     core.obj
 0002:00000dc0       ??_C@_02GIPFHKNO@OK@       00000001800bedc0     core.obj
 0002:00000dc8       ??_C@_0BI@IEAOLHPJ@MinHook?5initializing?4?4?4@ 00000001800bedc8     core.obj
 0002:00000de0       ??_C@_04PKGCAPDC@HOOK@     00000001800bede0     core.obj
 0002:00000de8       ??_C@_0CG@NNEMCAKL@MinHook?5FAILED?5?9?5cannot?5install@ 00000001800bede8     core.obj
 0002:00000e10       ??_C@_0O@DIACGHLD@MinHook?5ready@ 00000001800bee10     core.obj
 0002:00000e20       ??_C@_0CP@LJOIDABI@Loading?5guard?5inactive?5?$CIwaiting@ 00000001800bee20     core.obj
 0002:00000e50       ??_C@_0BJ@GHMIFJEK@Installing?5game?5hooks?4?4?4@ 00000001800bee50     core.obj
 0002:00000e70       ??_C@_0BN@NKGIPBBJ@Some?5hooks?5failed?5to?5install@ 00000001800bee70     core.obj
 0002:00000e90       ??_C@_04JBIELMDE@WARN@     00000001800bee90     core.obj
 0002:00000e98       ??_C@_0BE@GGACFODJ@All?5hooks?5installed@ 00000001800bee98     core.obj
 0002:00000eb0       ??_C@_0BP@CKDIFKCP@Network?5?$CIENet?$CJ?5initializing?4?4?4@ 00000001800beeb0     core.obj
 0002:00000ed0       ??_C@_03NPGNIJG@NET@       00000001800beed0     core.obj
 0002:00000ed8       ??_C@_0BE@CNAIKCMN@Network?5init?5FAILED@ 00000001800beed8     core.obj
 0002:00000ef0       ??_C@_0BF@EBIPHKAM@Network?5ready?5?$CIENet?$CJ@ 00000001800beef0     core.obj
 0002:00000f08       ??_C@_0BK@MELBNLGE@Packet?5handler?5registered@ 00000001800bef08     core.obj
 0002:00000f28       ??_C@_0BL@IOONEHOI@Spawn?5manager?5callback?5set@ 00000001800bef28     core.obj
 0002:00000f44       ??_C@_04FOKBGDA@GAME@      00000001800bef44     core.obj
 0002:00000f50       ??_C@_0BK@MOFHOMLA@Slash?5commands?5registered@ 00000001800bef50     core.obj
 0002:00000f6c       ??_C@_03LLENEDKC@CMD@      00000001800bef6c     core.obj
 0002:00000f70       ??_C@_0CG@GMBCLIBC@Task?5orchestrator?5started?5?$CI2?5wo@ 00000001800bef70     core.obj
 0002:00000f98       ??_C@_03PFPIJLAH@SYS@      00000001800bef98     core.obj
 0002:00000fa0       ??_C@_0BH@ODLPDHI@Network?5thread?5started@ 00000001800befa0     core.obj
 0002:00000fb8       ??_C@_0CA@MAEDCBON@?$DN?$DN?$DN?5Initialization?5complete?5?$DN?$DN?$DN@ 00000001800befb8     core.obj
 0002:00000fd8       ??_C@_0BM@FDKPPEEH@Waiting?5for?5game?5to?5load?4?4?4@ 00000001800befd8     core.obj
 0002:00000ff8       ??_C@_0CJ@GOCHIHNO@Press?5F1?5for?5menu?5?$HM?5Insert?5to?5t@ 00000001800beff8     core.obj
 0002:00001028       ??_C@_0DF@IOIPHHLH@KMP?3?5?$DN?$DN?$DN?5Kenshi?9Online?5Initiali@ 00000001800bf028     core.obj
 0002:00001060       ??_C@_0CP@KMMBIOJB@?$DN?$DN?$DN?5Kenshi?9Online?5Initialized?5S@ 00000001800bf060     core.obj
 0002:00001090       ??_C@_0BP@DLKMMELK@Kenshi?9Online?5shutting?5down?4?4?4@ 00000001800bf090     core.obj
 0002:000010b0       ??_C@_0CA@IOLANBDM@Kenshi?9Online?5shutdown?5complete@ 00000001800bf0b0     core.obj
 0002:000010d0       ??_C@_0CL@ONFEJFPK@Failed?5to?5init?5scanner?5for?5main@ 00000001800bf0d0     core.obj
 0002:00001100       ??_C@_09OKIMOEID@?5labeled?$CJ@ 00000001800bf100     core.obj
 0002:00001110       ??_C@_0L@LHCJPIGD@?5vtables?0?5@ 00000001800bf110     core.obj
 0002:00001120       ??_C@_0BA@JNNBKHBJ@?5?4pdata?5funcs?0?5@ 00000001800bf120     core.obj
 0002:00001130       ??_C@_0M@NMJFDDAH@?5resolved?5?$CI@ 00000001800bf130     core.obj
 0002:0000113c       ??_C@_01KMDKNFGN@?1@       00000001800bf13c     core.obj
 0002:00001140       ??_C@_0P@IEKAFLEK@Orchestrator?3?5@ 00000001800bf140     core.obj
 0002:00001150       ??_C@_0EG@KKCEFNHL@Game?5functions?5minimally?5resolv@ 00000001800bf150     core.obj
 0002:000011a0       ??_C@_0GC@BGPOPJNI@Core?3?5SIGNATURE?5MISMATCH?5for?5?8?$HL@ 00000001800bf1a0     core.obj
 0002:00001208       ??_C@_0DK@GKFFKMKB@Core?3?5Nulled?5?8?$HL?$HN?8?5to?5prevent?5cr@ 00000001800bf208     core.obj
 0002:00001248       ??_C@_0DF@JAOFINGC@Core?3?5PlayerBase?5bridged?5to?5gam@ 00000001800bf248     core.obj
 0002:00001280       ??_C@_0CN@EGOIDFPO@Core?3?5SetPosition?5function?5brid@ 00000001800bf280     core.obj
 0002:000012b0       ??_C@_0BG@PLGEDIBP@D3D11?5Present?5hook?4?4?4@ 00000001800bf2b0     core.obj
 0002:000012c8       ??_C@_0BE@NOPNFFKN@Present?5hook?5FAILED@ 00000001800bf2c8     core.obj
 0002:000012e0       ??_C@_0CO@FJNENBDM@Present?5hook?5installed?5?$CIWndProc@ 00000001800bf2e0     core.obj
 0002:00001310       ??_C@_0CC@PLAMDCA@Entity?5hooks?5?$CICharacterCreate?$CJ?4@ 00000001800bf310     core.obj
 0002:00001338       ??_C@_0DO@MNLBOPIM@CharacterCreate?5hook?5active?5?$CIca@ 00000001800bf338     core.obj
 0002:00001378       ??_C@_0BM@LNCGFNLA@CharacterCreate?5hook?5FAILED@ 00000001800bf378     core.obj
 0002:00001398       ??_C@_0CB@INOENIF@CharacterSpawn?5pattern?5NOT?5FOUN@ 00000001800bf398     core.obj
 0002:000013c0       ??_C@_0DB@COKJMDB@Other?5gameplay?5hooks?5DEFERRED?5?$CI@ 00000001800bf3c0     core.obj
 0002:000013f8       ??_C@_0CL@GIAGFCDN@KMP?3?5SEH?5CRASH?5in?5entity_hooks?3@ 00000001800bf3f8     core.obj
 0002:00001428       ??_C@_0DJ@GPMKPBEF@KMP?3?5SEH?5CRASH?5in?5PlayerControl@ 00000001800bf428     core.obj
 0002:00001468       ??_C@_0CK@BLNCHBAI@KMP?3?5SEH?5CRASH?5in?5RetryGlobalDi@ 00000001800bf468     core.obj
 0002:00001498       ??_C@_0CG@INKKNFIB@KMP?3?5SEH?5CRASH?5in?5ScanGameDataH@ 00000001800bf498     core.obj
 0002:000014c0       ??_C@_0BL@EHPOCMNO@?$DN?$DN?$DN?5Game?5world?5loaded?$CB?5?$DN?$DN?$DN@ 00000001800bf4c0     core.obj
 0002:000014e0       ??_C@_0CJ@DOMBEAHA@KMP?3?5?$DN?$DN?$DN?5Core?3?3OnGameLoaded?$CI?$CJ?5S@ 00000001800bf4e0     core.obj
 0002:00001510       ??_C@_0CF@HEFEHLGB@Loading?5guard?5cleared?5?$CIhooks?5ac@ 00000001800bf510     core.obj
 0002:00001538       ??_C@_0CG@NBKFHJIJ@Installing?5deferred?5gameplay?5ho@ 00000001800bf538     core.obj
 0002:00001560       ??_C@_0ED@OGHICKGN@Non?9essential?5hooks?5SKIPPED?5?$CIsa@ 00000001800bf560     core.obj
 0002:000015b0       ??_C@_0EK@HGLDGCPJ@Core?3?5Skipping?5non?9essential?5ho@ 00000001800bf5b0     core.obj
 0002:00001600       ??_C@_0O@HHFADEKO@Time?5hooks?4?4?4@ 00000001800bf600     core.obj
 0002:00001610       ??_C@_0BF@CNOJEFJF@Time?5hooks?5installed@ 00000001800bf610     core.obj
 0002:00001628       ??_C@_0BL@OCNPBDFC@Time?5hooks?5partial?5failure@ 00000001800bf628     core.obj
 0002:00001648       ??_C@_0CF@FLFODKOC@Game?5tick?5hooks?5?$CIspawn?5processo@ 00000001800bf648     core.obj
 0002:00001670       ??_C@_0DC@EBGCICNO@Game?5tick?5hooks?5installed?5?$CIspaw@ 00000001800bf670     core.obj
 0002:000016a8       ??_C@_0BH@IGEHKIBK@Game?5tick?5hooks?5failed@ 00000001800bf6a8     core.obj
 0002:000016c0       ??_C@_0DJ@NENAPBKI@GameFrameUpdate?5not?5found?5?b?$IA?$JE?5s@ 00000001800bf6c0     core.obj
 0002:00001700       ??_C@_0BC@EHCDLDBF@Movement?5hooks?4?4?4@ 00000001800bf700     core.obj
 0002:00001718       ??_C@_0BJ@ECHHBIBB@Movement?5hooks?5installed@ 00000001800bf718     core.obj
 0002:00001738       ??_C@_0BP@LJGJFEGM@Movement?5hooks?5partial?5failure@ 00000001800bf738     core.obj
 0002:00001758       ??_C@_0CM@HEEMNOFF@Movement?5hooks?5SKIPPED?5?$CIpattern@ 00000001800bf758     core.obj
 0002:00001788       ??_C@_0CB@KNFHALBI@Squad?5hooks?5?$CIsquad?5injection?$CJ?4?4@ 00000001800bf788     core.obj
 0002:000017b0       ??_C@_0DC@DAIPKKE@Squad?5hooks?5installed?5?$CIsquad?5in@ 00000001800bf7b0     core.obj
 0002:000017e8       ??_C@_0BD@KJBAIGLJ@Squad?5hooks?5failed@ 00000001800bf7e8     core.obj
 0002:00001800       ??_C@_0DK@KLDJLOOI@Squad?5functions?5not?5found?5?b?$IA?$JE?5s@ 00000001800bf800     core.obj
 0002:00001840       ??_C@_0M@PLECJEFP@AI?5hooks?4?4?4@ 00000001800bf840     core.obj
 0002:00001850       ??_C@_0BD@ELFDKIHH@AI?5hooks?5installed@ 00000001800bf850     core.obj
 0002:00001868       ??_C@_0BJ@FHICLDNJ@AI?5hooks?5partial?5failure@ 00000001800bf868     core.obj
 0002:00001888       ??_C@_0CG@NPECFGDI@AI?5hooks?5SKIPPED?5?$CIpatterns?5not?5@ 00000001800bf888     core.obj
 0002:000018b0       ??_C@_0BI@BBBJKKNM@PlayerBase?5discovery?4?4?4@ 00000001800bf8b0     core.obj
 0002:000018c8       ??_C@_0BN@DDAILNIO@Retrying?5global?5discovery?4?4?4@ 00000001800bf8c8     core.obj
 0002:000018e8       ??_C@_0BL@PNMOMJGD@Global?5discovery?5succeeded@ 00000001800bf8e8     core.obj
 0002:00001910       ??_C@_0EM@HHCBKCHJ@Global?5discovery?5failed?5?b?$IA?$JE?5fac@ 00000001800bf910     core.obj
 0002:00001960       ??_C@_0BJ@IOFICKE@PlayerBase?5already?5valid@ 00000001800bf960     core.obj
 0002:00001980       ??_C@_0DG@MCPLPBFE@GameWorld?5bridge?5set?5?$CIfallback?5@ 00000001800bf980     core.obj
 0002:000019b8       ??_C@_0CI@LGJOALKF@Player?5controller?3?5OnGameWorldL@ 00000001800bf9b8     core.obj
 0002:000019e0       ??_C@_0BI@FIHBAOFG@Player?5controller?5ready@ 00000001800bf9e0     core.obj
